
 Start  Stop   Length Name               Class

 00000H 03208H 03209H seg000             CODE
 03209H 03F20H 00D18H seg001             CODE
 03F22H 03FEEH 000CDH seg002             CODE
 03FF0H 0418BH 0019CH seg003             CODE
 0418CH 0422DH 000A2H seg004             CODE
 0422EH 045DCH 003AFH seg005             CODE
 045DEH 04669H 0008CH seg006             CODE
 0466AH 04786H 0011DH seg007             CODE
 04787H 04E10H 0068AH seg008             CODE
 04E12H 04F25H 00114H seg009             CODE
 04F26H 0607CH 01157H seg010             CODE
 0607DH 06174H 000F8H seg011             CODE
 06176H 06436H 002C1H seg012             CODE
 06437H 07D6CH 01936H seg013             CODE
 07D6DH 08663H 008F7H seg014             CODE
 08664H 086A7H 00044H seg015             CODE
 086A8H 09229H 00B82H seg016             CODE
 0922AH 0AAFAH 018D1H seg017             CODE
 0AAFCH 0B0ACH 005B1H seg018             CODE
 0B0ADH 0BE79H 00DCDH seg019             CODE
 0BE7AH 0C4C6H 0064DH seg020             CODE
 0C4C8H 0CBB9H 006F2H seg021             CODE
 0CBBAH 0D5DDH 00A24H seg022             CODE
 0D5DEH 0DB41H 00564H seg023             CODE
 0DB42H 0E0D2H 00591H seg024             CODE
 0E0D4H 0E4B8H 003E5H seg025             CODE
 0E4BAH 0E7ABH 002F2H seg026             CODE
 0E7ACH 0EE70H 006C5H seg027             CODE
 0EE71H 1218AH 0331AH seg028             CODE
 1218CH 126B2H 00527H seg029             CODE
 126B4H 12CD6H 00623H seg030             CODE
 12CD8H 13746H 00A6FH seg031             CODE
 13748H 13ED5H 0078EH seg032             CODE
 13ED6H 14DADH 00ED8H seg033             CODE
 14DAEH 1E351H 095A4H seg034             CODE
 1E352H 1FC55H 01904H seg035             CODE
 1FC56H 20B76H 00F21H seg036             CODE
 20B77H 214B9H 00943H seg037             CODE
 214C0H 217D7H 00318H seg038             CODE
 217E0H 21809H 0002AH stub048            CODE
 21810H 21848H 00039H stub049            CODE
 21850H 2192DH 000DEH stub050            CODE
 21930H 21A5DH 0012EH stub051            CODE
 21A60H 21A84H 00025H stub052            CODE
 21A90H 21B1DH 0008EH stub053            CODE
 21B20H 21B58H 00039H stub054            CODE
 21B60H 21B84H 00025H stub055            CODE
 21B90H 21C04H 00075H stub056            CODE
 21C10H 21C34H 00025H stub057            CODE
 21C40H 21C7DH 0003EH stub058            CODE
 21C80H 21CAEH 0002FH stub059            CODE
 21CB0H 21CD9H 0002AH stub060            CODE
 21CE0H 21D09H 0002AH stub061            CODE
 21D10H 2C759H 0AA4AH dseg               DATA
 2C760H 2C7DFH 00080H seg054             STACK
 2C7E0H 2CFBFH 007E0H ovr048             OVERLAY
 2CFC0H 2DA25H 00A66H ovr049             OVERLAY
 2DA30H 3357BH 05B4CH ovr050             OVERLAY
 33580H 3D539H 09FBAH ovr051             OVERLAY
 3D540H 3D5A6H 00067H ovr052             OVERLAY
 3D5B0H 403E9H 02E3AH ovr053             OVERLAY
 403F0H 418D8H 014E9H ovr054             OVERLAY
 418E0H 422DFH 00A00H ovr055             OVERLAY
 422E0H 453A9H 030CAH ovr056             OVERLAY
 453B0H 457D1H 00422H ovr057             OVERLAY
 457E0H 45C94H 004B5H ovr058             OVERLAY
 45CA0H 46238H 00599H ovr059             OVERLAY
 46240H 46449H 0020AH ovr060             OVERLAY
 46450H 46885H 00436H ovr061             OVERLAY


  Address         Publics by Value

 0000:0000       STARTX
 0000:0003       loc_10003
 0000:0008       loc_10008
 0000:000A       loc_1000A
 0000:000C       loc_1000C
 0000:0037       @@EnvLoop
 0000:0041       SaveEnv
 0000:0067       AskedStackNotOK
 0000:006E       AskedStackOK
 0000:0074       loc_10074
 0000:007A       loc_1007A
 0000:0083       LDATA_EQ_false
 0000:008A       loc_1008A
 0000:0091       ExpandDS
 0000:0098       loc_10098
 0000:009C       InitFailed
 0000:009F       ExcessOfMemory
 0000:00E0       loc_100E0
 0000:00E2       loc_100E2
 0000:00E9       __linkproc__ DoChange_1of5
 0000:00F3       @@DoChange_2of5
 0000:00FD       __linkproc__ DoChange_3of5
 0000:0106       @@DoChange_4of5
 0000:0113       @@DoChange_5of5
 0000:011D       @@BadInit
 0000:0120       @@NoChange
 0000:0124       loc_10124
 0000:0130       @@SetMidnight
 0000:013C       @@NotMidnight
 0000:013E       loc_1013E
 0000:0158       CallMain
 0000:015E       alignment
 0000:015F       startup_epilogue
 0000:0163       __cleanup
 0000:0176       __checknull
 0000:0184       ComputeChecksum
 0000:019B       @@SumOk
 0000:019E       __terminate
 0000:01B0       SaveVectors
 0000:01B1       loc_101B1
 0000:01D0       loc_101D0
 0000:01E5       loc_101E5
 0000:01F3       __restorezero
 0000:01FF       loc_101FF
 0000:0220       StartExit
 0000:0227       @@TopOfTable_1of
 0000:022B       @@TopOfTable_2of
 0000:023F       @@Next
 0000:0244       @@EndOfTable_1of2
 0000:0246       loc_10246
 0000:0248       @@EndOfTable_2of2
 0000:0255       @@FarCall
 0000:025C       @@NearCall
 0000:0263       @@Done
 0000:0264       idk_CleanUp
 0000:026A       loc_1026A
 0000:0280       loc_10280
 0000:0285       loc_10285
 0000:029D       loc_1029D
 0000:02A4       locret_102A4
 0000:02A5       ErrorDisplay
 0000:02AD       _abort
 0000:02B3       MsgExit3
 0000:02BE       CallExit3
 0000:02C4       DGROUP@
 0000:02C6       __MMODEL
 0000:02C8       _abs
 0000:02D4       loc_102D4
 0000:02D6       _atexit
 0000:02E0       ExceededMaxAtExitFunctions
 0000:02E5       AddAtExitFunction
 0000:02FF       loc_102FF
 0000:0301       loc_10301
 0000:0302       locret_10302
 0000:0303       __DOSCMD
 0000:030A       loc_1030A
 0000:0325       loc_10325
 0000:0342       loc_10342
 0000:034E       loc_1034E
 0000:0376       loc_10376
 0000:038B       loc_1038B
 0000:0397       loc_10397
 0000:03A2       loc_103A2
 0000:03A4       loc_103A4
 0000:03AC       __DOSENV
 0000:03C4       loc_103C4
 0000:03CD       loc_103CD
 0000:03D4       loc_103D4
 0000:03D9       loc_103D9
 0000:03E0       loc_103E0
 0000:03E7       loc_103E7
 0000:03F0       loc_103F0
 0000:03F5       loc_103F5
 0000:03FE       loc_103FE
 0000:0414       loc_10414
 0000:0431       loc_10431
 0000:044E       loc_1044E
 0000:045C       loc_1045C
 0000:0465       loc_10465
 0000:046B       loc_1046B
 0000:046E       loc_1046E
 0000:0498       loc_10498
 0000:049F       loc_1049F
 0000:04A1       loc_104A1
 0000:04A9       __dos_getfileattr
 0000:04C0       loc_104C0
 0000:04C4       loc_104C4
 0000:04C6       __dos_setfileattr
 0000:04C7       loc_104C7
 0000:04DB       loc_104DB
 0000:04DF       loc_104DF
 0000:04E1       __dos_findfirst
 0000:050E       loc_1050E
 0000:0512       loc_10512
 0000:0514       __dos_findnext
 0000:053B       loc_1053B
 0000:053F       loc_1053F
 0000:0541       __dos_getdrive
 0000:0554       __dos_setdrive
 0000:056B       nullsub_1
 0000:056C       __exit_2of2
 0000:0577       NotQuick
 0000:0579       Loop_Next_AtExitTbl
 0000:0589       loc_10589
 0000:0599       loc_10599
 0000:05AD       NotDontExitNotQuick
 0000:05B5       NotDontExitIsQuick
 0000:05BE       DO_NOT_TERMINATE
 0000:05C3       _exit
 0000:05D2       __exit__1of2
 0000:05DC       loc_105DC
 0000:05E4       __cexit
 0000:05F2       __c_exit
 0000:05FE       LXMUL@
 0000:0607       loc_10607
 0000:060E       loc_1060E
 0000:0615       SCOPY@
 0000:0631       N_LDIV@
 0000:0634       LDIV@
 0000:0638       N_LUDIV@
 0000:063B       F_LUDIV@
 0000:0640       N_LMOD@
 0000:0643       F_LMOD@
 0000:0648       N_LUMOD@
 0000:064B       LUMOD@
 0000:064E       loc_1064E
 0000:066D       loc_1066D
 0000:0681       loc_10681
 0000:068F       loc_1068F
 0000:0699       loc_10699
 0000:06AB       loc_106AB
 0000:06B0       loc_106B0
 0000:06BF       loc_106BF
 0000:06CC       loc_106CC
 0000:06D2       loc_106D2
 0000:06DB       loc_106DB
 0000:06DF       N_LXLSH@
 0000:06E2       LXLSH@
 0000:06F7       loc_106F7
 0000:0700       N_LXURSH@
 0000:0703       LXURSH@
 0000:0718       loc_10718
 0000:0721       N_PADD@
 0000:0724       F_PADD@
 0000:0734       loc_10734
 0000:073C       loc_1073C
 0000:0750       N_PSUB@
 0000:0753       F_PSUB@
 0000:0763       loc_10763
 0000:076B       loc_1076B
 0000:0781       __IOERROR
 0000:0791       ser_errorFault
 0000:0794       ser_dosError
 0000:07A1       ser_maybeSVerr_1of2
 0000:07A8       ser_maybeSVerr_2of2
 0000:07AE       ser_end
 0000:07BA       __DOSERROR
 0000:07CC       _isalnum
 0000:07D0       loc_107D0
 0000:07DE       _isascii
 0000:07EB       loc_107EB
 0000:07ED       loc_107ED
 0000:07EF       loc_107EF
 0000:07F1       _isalpha
 0000:0800       loc_10800
 0000:0803       _iscntrl
 0000:0815       _isdigit
 0000:0827       _isgraph
 0000:083C       loc_1083C
 0000:083E       loc_1083E
 0000:0840       _islower
 0000:0852       _isprint
 0000:0867       loc_10867
 0000:0869       loc_10869
 0000:086B       _ispunct
 0000:087D       _isspace
 0000:088F       _isupper
 0000:08A1       _isxdigit
 0000:08B3       _getc
 0000:08CA       loc_108CA
 0000:08D1       loc_108D1
 0000:08D4       _getchar
 0000:08E8       loc_108E8
 0000:08F2       locret_108F2
 0000:08F3       _putc
 0000:0901       loc_10901
 0000:090F       loc_1090F
 0000:0918       loc_10918
 0000:091B       _putchar
 0000:0937       loc_10937
 0000:0943       loc_10943
 0000:0945       _feof
 0000:0955       _ferror
 0000:095F       loc_1095F
 0000:0965       _isatty
 0000:0976       __LONGTOA
 0000:09AC       loc_109AC
 0000:09B1       loc_109B1
 0000:09C0       loc_109C0
 0000:09C7       loc_109C7
 0000:09D3       loc_109D3
 0000:09DE       loc_109DE
 0000:09E1       loc_109E1
 0000:09E4       loc_109E4
 0000:09F3       __UTOA
 0000:0A0D       locret_10A0D
 0000:0A10       _lseek
 0000:0A32       loc_10A32
 0000:0A37       loc_10A37
 0000:0A39       __MKNAME
 0000:0A4A       loc_10A4A
 0000:0A56       loc_10A56
 0000:0A58       loc_10A58
 0000:0A78       __TMPNAM
 0000:0A86       loc_10A86
 0000:0A8A       loc_10A8A
 0000:0A94       loc_10A94
 0000:0A97       loc_10A97
 0000:0ABB       N_LXMUL@
 0000:0AC4       loc_10AC4
 0000:0ACB       loc_10ACB
 0000:0AD2       N_PCMP@
 0000:0AF2       locret_10AF2
 0000:0AF3       __read
 0000:0B09       loc_10B09
 0000:0B1A       loc_10B1A
 0000:0B1B       loc_10B1B
 0000:0B1E       loc_10B1E
 0000:0B20       fncCopyToUpperCase
 0000:0B2E       DO_UNTIL_ZERO
 0000:0B39       NOT_LOWERCASE
 0000:0B46       DOS_GetCurrDir
 0000:0B5A       loc_10B5A
 0000:0B5F       sub_10B5F
 0000:0B83       Arg8_ZERO
 0000:0B8E       loc_10B8E
 0000:0BB9       loc_10BB9
 0000:0BCC       loc_10BCC
 0000:0BE3       loc_10BE3
 0000:0BF9       loc_10BF9
 0000:0C09       loc_10C09
 0000:0C0C       loc_10C0C
 0000:0C18       loc_10C18
 0000:0C20       sub_10C20
 0000:0C3A       loc_10C3A
 0000:0C55       loc_10C55
 0000:0C64       loc_10C64
 0000:0C75       loc_10C75
 0000:0C7F       loc_10C7F
 0000:0C93       loc_10C93
 0000:0C9D       loc_10C9D
 0000:0CBD       loc_10CBD
 0000:0CE9       loc_10CE9
 0000:0D09       loc_10D09
 0000:0D12       loc_10D12
 0000:0D16       loc_10D16
 0000:0D32       loc_10D32
 0000:0D3D       loc_10D3D
 0000:0D4E       loc_10D4E
 0000:0D4F       loc_10D4F
 0000:0D5C       loc_10D5C
 0000:0D5E       loc_10D5E
 0000:0D69       loc_10D69
 0000:0D76       loc_10D76
 0000:0D78       loc_10D78
 0000:0D7E       __SEARCHPATH
 0000:0D92       __searchenv
 0000:0DB5       loc_10DB5
 0000:0DC0       loc_10DC0
 0000:0DC5       __searchstr
 0000:0DE8       loc_10DE8
 0000:0DF3       loc_10DF3
 0000:0DF8       __setupio
 0000:0E01       loc_10E01
 0000:0E05       loc_10E05
 0000:0E2C       loc_10E2C
 0000:0E41       loc_10E41
 0000:0E52       loc_10E52
 0000:0E54       loc_10E54
 0000:0E79       loc_10E79
 0000:0E8A       loc_10E8A
 0000:0E8C       loc_10E8C
 0000:0E9D       idk_ctype_s10E9D
 0000:0EAD       loc_10EAD
 0000:0EC3       loc_10EC3
 0000:0EC7       loc_10EC7
 0000:0EC9       _unlink
 0000:0ED9       loc_10ED9
 0000:0EDD       loc_10EDD
 0000:0EDF       _stpcpy
 0000:0F08       ___brk
 0000:0F09       loc_10F09
 0000:0F1F       loc_10F1F
 0000:0F28       loc_10F28
 0000:0F2A       ___sbrk
 0000:0F50       loc_10F50
 0000:0F59       loc_10F59
 0000:0F5B       _brk
 0000:0F67       _sbrk
 0000:0F77       _coreleft
 0000:0F84       loc_10F84
 0000:0F87       LoaderDatas
 0000:10E7       LoaderVector
 0000:10EB       OldEnvSave
 0000:10ED       byte_110ED
 0000:10EE       __exec
 0000:1110       CopyCmdLine
 0000:113F       FindWhite_1of4
 0000:1145       FindWhite_2of4
 0000:1149       FindWhite_3of4
 0000:114D       FindWhite_4of4
 0000:1150       NextFCB
 0000:116E       GetMaxMem_1of2
 0000:117A       GetMaxMem_2of2
 0000:117B       DoWeHaveAnEnv_1of2
 0000:1181       DoWeHaveAnEnv_2of2
 0000:1187       WeHaveAnEnv
 0000:1191       GetEnvSize_1of2
 0000:1198       GetEnvSize_2of2
 0000:11A4       SetEnvSize_1of2
 0000:11C3       SetEnvSize_2of2
 0000:11CC       SavePath
 0000:11D4       CopyPathName_1of3
 0000:11DA       CopyPathName_2of3
 0000:11ED       CopyPathName_3of3
 0000:11EF       ExecError
 0000:11FB       EXEFile_1of3
 0000:1208       EXEFile_2of3
 0000:1213       EXEFile_3of3
 0000:122D       EXECompute_1of2
 0000:1233       EXECompute_2of2
 0000:124F       COMFile
 0000:125B       COMCompute_1of2
 0000:1261       COMCompute_2of2
 0000:1279       IsItEnough_1of7
 0000:128C       IsItEnough_2of7
 0000:128F       IsItEnough_3of7
 0000:12A3       IsItEnough_4of7
 0000:12A6       IsItEnough_5of7
 0000:12C0       loc_112C0
 0000:12CE       IsItEnough_6of7
 0000:12D6       IsItEnough_7of7
 0000:12D8       ReUseEnv
 0000:12DC       CopyEnv_1of2
 0000:12FA       loc_112FA
 0000:1302       CopyEnv_2of2
 0000:130B       ReadyToOverlay
 0000:1311       ExecExit
 0000:131D       _execl
 0000:1337       LibMalloc____first
 0000:1339       ___last
 0000:133B       LibMalloc____rover
 0000:133D       LibMalloc_w1133D
 0000:133F       LibMalloc_FarReAlloc_w1133F
 0000:1341       nbytes
 0000:1343       LibMalloc_s11343
 0000:135E       loc_1135E
 0000:137C       loc_1137C
 0000:1381       loc_11381
 0000:1396       loc_11396
 0000:139F       loc_1139F
 0000:13A6       sub_113A6
 0000:13E5       loc_113E5
 0000:13EC       loc_113EC
 0000:13EF       loc_113EF
 0000:1401       loc_11401
 0000:1417       LibMalloc_s11417
 0000:1438       loc_11438
 0000:1440       sub_11440
 0000:1469       loc_11469
 0000:1477       _farfree
 0000:1494       loc_11494
 0000:1497       loc_11497
 0000:14A0       LibMalloc_s114A0
 0000:14C9       loc_114C9
 0000:1500       loc_11500
 0000:1504       LibMalloc_s11504
 0000:1527       loc_11527
 0000:153F       loc_1153F
 0000:155A       loc_1155A
 0000:155E       LibMalloc_s1155E
 0000:1581       _farmalloc
 0000:15C1       loc_115C1
 0000:15D1       loc_115D1
 0000:15D6       loc_115D6
 0000:15DB       loc_115DB
 0000:15E0       loc_115E0
 0000:15E5       loc_115E5
 0000:15F5       loc_115F5
 0000:15FE       LibMalloc_FarReAlloc_s115FE
 0000:1618       loc_11618
 0000:163C       loc_1163C
 0000:164B       loc_1164B
 0000:1669       loc_11669
 0000:167A       idk_FarFreeOrBrk
 0000:16B2       loc_116B2
 0000:16B7       loc_116B7
 0000:16C6       loc_116C6
 0000:16DE       _farrealloc
 0000:172E       loc_1172E
 0000:1733       loc_11733
 0000:1738       loc_11738
 0000:1743       loc_11743
 0000:174C       loc_1174C
 0000:174F       loc_1174F
 0000:1758       idk_InBrkSbrk
 0000:1771       loc_11771
 0000:1783       loc_11783
 0000:179B       loc_1179B
 0000:17B9       loc_117B9
 0000:17C9       loc_117C9
 0000:17CE       __brk
 0000:1804       loc_11804
 0000:1809       loc_11809
 0000:180B       loc_1180B
 0000:180D       __sbrk
 0000:1836       loc_11836
 0000:183E       loc_1183E
 0000:1894       loc_11894
 0000:1898       _ioctl
 0000:18B7       loc_118B7
 0000:18B9       loc_118B9
 0000:18BD       loc_118BD
 0000:18BF       __LoadProg
 0000:18E4       loc_118E4
 0000:18E9       loc_118E9
 0000:18FE       loc_118FE
 0000:1906       loc_11906
 0000:1927       loc_11927
 0000:1950       loc_11950
 0000:1956       _free
 0000:196D       loc_1196D
 0000:1970       loc_11970
 0000:1973       sub_11973
 0000:1987       loc_11987
 0000:199A       loc_1199A
 0000:199C       loc_1199C
 0000:19A7       loc_119A7
 0000:19AD       sub_119AD
 0000:19CD       loc_119CD
 0000:19D0       loc_119D0
 0000:19DB       loc_119DB
 0000:19E6       LibMalloc_s119E6
 0000:19FB       loc_119FB
 0000:1A02       sub_11A02
 0000:1A1A       loc_11A1A
 0000:1A25       _malloc
 0000:1A40       loc_11A40
 0000:1A51       loc_11A51
 0000:1A5C       loc_11A5C
 0000:1A61       loc_11A61
 0000:1A66       loc_11A66
 0000:1A6B       loc_11A6B
 0000:1A6F       loc_11A6F
 0000:1A82       loc_11A82
 0000:1A85       LibMalloc_s11A85
 0000:1A9D       loc_11A9D
 0000:1AC1       loc_11AC1
 0000:1AC5       LibMalloc_s11AC5
 0000:1AEA       loc_11AEA
 0000:1AEE       LibMalloc_s11AEE
 0000:1B07       sub_11B07
 0000:1B38       loc_11B38
 0000:1B3C       sub_11B3C
 0000:1B5C       loc_11B5C
 0000:1B7A       loc_11B7A
 0000:1B7E       _realloc
 0000:1BA7       loc_11BA7
 0000:1BB2       loc_11BB2
 0000:1BB7       loc_11BB7
 0000:1BBA       loc_11BBA
 0000:1BBE       loc_11BBE
 0000:1BC5       loc_11BC5
 0000:1BCC       loc_11BCC
 0000:1BCD       loc_11BCD
 0000:1BD1       byte_11BD1
 0000:1BD3       unknown_libname_1
 0000:1C0C       loc_11C0C
 0000:1C1F       loc_11C1F
 0000:1C46       loc_11C46
 0000:1C4B       loc_11C4B
 0000:1C56       loc_11C56
 0000:1C62       loc_11C62
 0000:1C66       sub_11C66
 0000:1C71       loc_11C71
 0000:1C8B       loc_11C8B
 0000:1C8D       locret_11C8D
 0000:1C8E       loc_11C8E
 0000:1C93       loc_11C93
 0000:1CB0       loc_11CB0
 0000:1CB8       loc_11CB8
 0000:1CC0       loc_11CC0
 0000:1CEA       _setblock
 0000:1CFE       loc_11CFE
 0000:1D04       loc_11D04
 0000:1D06       unknown_libname_2
 0000:1D3D       loc_11D3D
 0000:1D42       loc_11D42
 0000:1D4C       loc_11D4C
 0000:1D58       loc_11D58
 0000:1D63       __chmod
 0000:1D78       loc_11D78
 0000:1D7C       loc_11D7C
 0000:1D7E       _close
 0000:1D93       loc_11D93
 0000:1DA4       loc_11DA4
 0000:1DA6       __close
 0000:1DBE       loc_11DBE
 0000:1DC2       loc_11DC2
 0000:1DC4       _fcloseall
 0000:1DDF       loc_11DDF
 0000:1DF5       loc_11DF5
 0000:1DF6       loc_11DF6
 0000:1E05       loc_11E05
 0000:1E0E       loc_11E0E
 0000:1E10       loc_11E10
 0000:1E16       _eof
 0000:1E2B       loc_11E2B
 0000:1E38       loc_11E38
 0000:1E3D       loc_11E3D
 0000:1E7F       loc_11E7F
 0000:1E81       loc_11E81
 0000:1E85       loc_11E85
 0000:1E86       loc_11E86
 0000:1E89       loc_11E89
 0000:1E8D       _fclose
 0000:1EB7       loc_11EB7
 0000:1EC7       loc_11EC7
 0000:1EDA       loc_11EDA
 0000:1F08       loc_11F08
 0000:1F0E       _fflush
 0000:1F21       loc_11F21
 0000:1F26       loc_11F26
 0000:1F2B       loc_11F2B
 0000:1F41       loc_11F41
 0000:1F59       loc_11F59
 0000:1F5F       loc_11F5F
 0000:1F89       loc_11F89
 0000:1F8B       loc_11F8B
 0000:1F8F       _flushall
 0000:1FA5       loc_11FA5
 0000:1FB6       loc_11FB6
 0000:1FB9       loc_11FB9
 0000:1FC9       hrmCheckAccessMode
 0000:1FEC       loc_11FEC
 0000:1FF6       loc_11FF6
 0000:1FFE       loc_11FFE
 0000:2008       loc_12008
 0000:200C       loc_1200C
 0000:2023       loc_12023
 0000:202A       loc_1202A
 0000:2038       loc_12038
 0000:2043       loc_12043
 0000:204E       loc_1204E
 0000:205D       loc_1205D
 0000:2060       loc_12060
 0000:2077       loc_12077
 0000:207B       loc_1207B
 0000:2083       __OPENFP
 0000:20C4       loc_120C4
 0000:20CD       loc_120CD
 0000:20D1       loc_120D1
 0000:20E5       loc_120E5
 0000:20F5       loc_120F5
 0000:20F7       loc_120F7
 0000:2111       loc_12111
 0000:2118       loc_12118
 0000:211F       __GETFP
 0000:2123       loc_12123
 0000:213C       loc_1213C
 0000:2146       loc_12146
 0000:2148       loc_12148
 0000:214A       _fopen
 0000:215A       loc_1215A
 0000:2167       loc_12167
 0000:2169       __FGETN_jwb
 0000:2171       loc_12171
 0000:2184       loc_12184
 0000:218A       loc_1218A
 0000:21B0       loc_121B0
 0000:21BC       loc_121BC
 0000:21E8       loc_121E8
 0000:21F1       loc_121F1
 0000:21F9       loc_121F9
 0000:2219       loc_12219
 0000:2222       loc_12222
 0000:2229       loc_12229
 0000:222E       loc_1222E
 0000:2237       loc_12237
 0000:2240       _fread
 0000:226B       loc_1226B
 0000:2284       FAILURE
 0000:2286       loc_12286
 0000:228B       sub_1228B
 0000:22A2       loc_122A2
 0000:22AD       loc_122AD
 0000:22BE       loc_122BE
 0000:22C7       loc_122C7
 0000:22D0       loc_122D0
 0000:22D9       loc_122D9
 0000:22E0       loc_122E0
 0000:22E8       _fseek
 0000:2303       loc_12303
 0000:2318       loc_12318
 0000:234A       loc_1234A
 0000:234C       loc_1234C
 0000:2350       _ftell
 0000:2384       loc_12384
 0000:23C0       loc_123C0
 0000:23E8       loc_123E8
 0000:23F4       loc_123F4
 0000:2401       loc_12401
 0000:240C       loc_1240C
 0000:2412       loc_12412
 0000:2417       _fwrite
 0000:242D       SOURCE_NOT_NULL
 0000:2449       loc_12449
 0000:245B       FAILURE
 0000:245D       loc_1245D
 0000:2463       sub_12463
 0000:246D       loc_1246D
 0000:247F       loc_1247F
 0000:2482       loc_12482
 0000:248C       sub_1248C
 0000:249D       loc_1249D
 0000:24C2       loc_124C2
 0000:24D5       loc_124D5
 0000:24DD       loc_124DD
 0000:24E0       loc_124E0
 0000:24E5       __fgetc
 0000:24F7       __Nfgetc
 0000:24FA       _fgetc
 0000:2505       loc_12505
 0000:250B       loc_1250B
 0000:2510       loc_12510
 0000:251D       loc_1251D
 0000:2547       loc_12547
 0000:2551       loc_12551
 0000:257A       loc_1257A
 0000:2580       loc_12580
 0000:258F       loc_1258F
 0000:259D       loc_1259D
 0000:25A4       loc_125A4
 0000:25A6       loc_125A6
 0000:25A9       _fgetchar
 0000:25B3       _getenv
 0000:25DE       loc_125DE
 0000:25E2       loc_125E2
 0000:25E9       loc_125E9
 0000:260C       loc_1260C
 0000:2612       _itoa
 0000:2625       NOT_DECIMAL
 0000:2629       loc_12629
 0000:263A       _ultoa
 0000:2654       _ltoa
 0000:266E       loc_1266E
 0000:2670       loc_12670
 0000:2679       _memcpy
 0000:2691       loc_12691
 0000:2698       DOS_CreateFileWithHandle
 0000:26A9       FAILURE
 0000:26AD       loc_126AD
 0000:26B1       DOS_WriteToFileWithHandle
 0000:26C3       _open
 0000:26DF       loc_126DF
 0000:2707       loc_12707
 0000:2718       loc_12718
 0000:271E       loc_1271E
 0000:2728       loc_12728
 0000:272B       loc_1272B
 0000:2730       loc_12730
 0000:273C       loc_1273C
 0000:2754       loc_12754
 0000:275D       loc_1275D
 0000:276F       loc_1276F
 0000:27B3       loc_127B3
 0000:27BD       loc_127BD
 0000:27E0       loc_127E0
 0000:27EF       loc_127EF
 0000:27F1       loc_127F1
 0000:27FF       loc_127FF
 0000:2805       loc_12805
 0000:2808       loc_12808
 0000:2809       loc_12809
 0000:2813       loc_12813
 0000:2815       loc_12815
 0000:281B       __open
 0000:2836       loc_12836
 0000:2839       loc_12839
 0000:2860       loc_12860
 0000:2864       loc_12864
 0000:2868       __fputc
 0000:286F       loc_1286F
 0000:2879       loc_12879
 0000:2881       _fputc
 0000:28A8       loc_128A8
 0000:28B9       loc_128B9
 0000:28BF       loc_128BF
 0000:28C7       loc_128C7
 0000:28D0       loc_128D0
 0000:28DE       loc_128DE
 0000:28E4       loc_128E4
 0000:28E9       loc_128E9
 0000:28ED       loc_128ED
 0000:28EF       loc_128EF
 0000:28FF       loc_128FF
 0000:291B       loc_1291B
 0000:292C       loc_1292C
 0000:2932       loc_12932
 0000:2933       loc_12933
 0000:293B       loc_1293B
 0000:2962       loc_12962
 0000:298A       loc_1298A
 0000:29A4       loc_129A4
 0000:29AE       loc_129AE
 0000:29B3       loc_129B3
 0000:29B7       _fputchar
 0000:29C9       __FPUTN
 0000:29E3       LOOP_xSIZE
 0000:29F9       FAILURE
 0000:29FE       loc_129FE
 0000:2A0B       loc_12A0B
 0000:2A15       loc_12A15
 0000:2A1E       loc_12A1E
 0000:2A36       loc_12A36
 0000:2A5D       loc_12A5D
 0000:2A78       loc_12A78
 0000:2A7E       loc_12A7E
 0000:2A94       loc_12A94
 0000:2AA2       MEM_COPY
 0000:2ABA       loc_12ABA
 0000:2AC3       loc_12AC3
 0000:2AEA       loc_12AEA
 0000:2B07       loc_12B07
 0000:2B0F       loc_12B0F
 0000:2B27       loc_12B27
 0000:2B37       loc_12B37
 0000:2B3F       loc_12B3F
 0000:2B4B       loc_12B4B
 0000:2B66       SUCCESS
 0000:2B69       RETURN
 0000:2B71       ___read
 0000:2B8C       loc_12B8C
 0000:2BA2       loc_12BA2
 0000:2BA7       loc_12BA7
 0000:2BCE       loc_12BCE
 0000:2BD3       loc_12BD3
 0000:2BE0       loc_12BE0
 0000:2BEE       loc_12BEE
 0000:2C06       loc_12C06
 0000:2C0C       loc_12C0C
 0000:2C12       loc_12C12
 0000:2C14       loc_12C14
 0000:2C36       loc_12C36
 0000:2C39       loc_12C39
 0000:2C3F       _setvbuf
 0000:2C5B       loc_12C5B
 0000:2C61       loc_12C61
 0000:2C76       loc_12C76
 0000:2C89       loc_12C89
 0000:2CA1       loc_12CA1
 0000:2CB1       loc_12CB1
 0000:2CF2       loc_12CF2
 0000:2CFB       loc_12CFB
 0000:2D11       loc_12D11
 0000:2D13       loc_12D13
 0000:2D17       sub_12D17
 0000:2D47       loc_12D47
 0000:2D50       loc_12D50
 0000:2D56       sub_12D56
 0000:2D67       loc_12D67
 0000:2D76       loc_12D76
 0000:2D85       loc_12D85
 0000:2D89       loc_12D89
 0000:2D8F       loc_12D8F
 0000:2D94       loc_12D94
 0000:2D96       loc_12D96
 0000:2D9D       word_12D9D
 0000:2DAD       __fnsplit
 0000:2DC6       loc_12DC6
 0000:2DD2       loc_12DD2
 0000:2DDE       loc_12DDE
 0000:2DEA       loc_12DEA
 0000:2DEF       loc_12DEF
 0000:2DF2       loc_12DF2
 0000:2E0B       loc_12E0B
 0000:2E16       loc_12E16
 0000:2E23       loc_12E23
 0000:2E32       loc_12E32
 0000:2E41       loc_12E41
 0000:2E45       loc_12E45
 0000:2E55       loc_12E55
 0000:2E74       loc_12E74
 0000:2E7B       loc_12E7B
 0000:2E8B       loc_12E8B
 0000:2E9C       loc_12E9C
 0000:2EAD       loc_12EAD
 0000:2EC9       loc_12EC9
 0000:2ED3       loc_12ED3
 0000:2ED5       loc_12ED5
 0000:2EDC       loc_12EDC
 0000:2EE3       loc_12EE3
 0000:2EF2       loc_12EF2
 0000:2F00       loc_12F00
 0000:2F09       word_12F09
 0000:2F17       off_12F17
 0000:2F25       __splitpath
 0000:2F40       _strcat
 0000:2F6D       loc_12F6D
 0000:2F74       loc_12F74
 0000:2F79       _strcpy
 0000:2F9B       _stricmp
 0000:2FAF       loc_12FAF
 0000:2FB2       LOOP_TO_EOS
 0000:2FBC       STR1
 0000:2FC6       STR2
 0000:2FD1       COMPARE_BYTE
 0000:2FD5       GOT_EOS_OR_DIFF
 0000:2FDB       _strlen
 0000:2FF5       _strncpy
 0000:3021       _strupr
 0000:302D       NOT_ZERO
 0000:3038       NEXT_STRINGBYTE
 0000:3041       ___write
 0000:3049       loc_13049
 0000:304A       loc_1304A
 0000:3059       loc_13059
 0000:305A       loc_1305A
 0000:305D       loc_1305D
 0000:3060       loc_13060
 0000:306E       loc_1306E
 0000:308D       loc_1308D
 0000:3099       loc_13099
 0000:30A9       loc_130A9
 0000:30AD       loc_130AD
 0000:30BE       loc_130BE
 0000:30D4       loc_130D4
 0000:3100       loc_13100
 0000:3105       loc_13105
 0000:310D       loc_1310D
 0000:3111       loc_13111
 0000:3140       loc_13140
 0000:3144       loc_13144
 0000:3146       loc_13146
 0000:3149       loc_13149
 0000:314F       __write
 0000:3155       loc_13155
 0000:3157       loc_13157
 0000:3165       loc_13165
 0000:3174       loc_13174
 0000:3183       loc_13183
 0000:3184       loc_13184
 0000:3187       loc_13187
 0000:3188       locret_13188
 0000:3189       __xfclose
 0000:3196       loc_13196
 0000:31A4       loc_131A4
 0000:31AE       loc_131AE
 0000:31B1       __xfflush
 0000:31BB       loc_131BB
 0000:31C2       loc_131C2
 0000:31C9       loc_131C9
 0000:31CD       loc_131CD
 0000:31D1       loc_131D1
 0000:31D4       byte_131D4
 0000:31EB       __OverlayHalt
 0000:31F3       loc_131F3
 0000:31F5       loc_131F5
 0000:31F8       loc_131F8
 0000:31FA       loc_131FA
 0000:31FE       loc_131FE
 0000:3205       loc_13205
 0000:3208       nullsub_2
 0320:0009       _f010109_main
 0320:002A       MISSING_CONFIG_MOM
 0320:0033       loc_13233
 0320:0034       OPEN_READ_ConfigMom
 0320:007D       varCfgMom_02
 0320:0086       loc_13286
 0320:008E       loc_1328E
 0320:0095       loc_13295
 0320:0099       loc_13299
 0320:009B       loc_1329B
 0320:00A0       loc_132A0
 0320:00A5       loc_132A5
 0320:00AA       loc_132AA
 0320:00AF       loc_132AF
 0320:00B4       loc_132B4
 0320:00B9       loc_132B9
 0320:00BE       loc_132BE
 0320:00C3       loc_132C3
 0320:00C8       loc_132C8
 0320:00CD       loc_132CD
 0320:00D2       loc_132D2
 0320:00D4       loc_132D4
 0320:00D9       loc_132D9
 0320:00DE       loc_132DE
 0320:00E3       INIT_ROLAND_DRIVERS
 0320:00FC       loc_132FC
 0320:011A       loc_1331A
 0320:0127       loc_13327
 0320:0129       loc_13329
 0320:012D       loc_1332D
 0320:0132       loc_13332
 0320:0143       loc_13343
 0320:014A       loc_1334A
 0320:014C       loc_1334C
 0320:0153       loc_13353
 0320:015A       loc_1335A
 0320:016A       loc_1336A
 0320:0171       loc_13371
 0320:0176       loc_13376
 0320:017D       loc_1337D
 0320:0184       loc_13384
 0320:0186       loc_13386
 0320:018D       loc_1338D
 0320:0194       loc_13394
 0320:019E       loc_1339E
 0320:01AC       loc_133AC
 0320:01B2       loc_133B2
 0320:01C0       loc_133C0
 0320:01CF       SAVEGAM
 0320:0278       ITR_SaveGam
 0320:027B       LOOP_x9_SaveGam
 0320:0284       loc_13484
 0320:02FE       loc_134FE
 0320:030A       loc_1350A
 0320:0330       loc_13530
 0320:0335       loc_13535
 0320:03AC       KICK_OFF
 0320:03DA       idk_enum_w135DA
 0320:040A       idk_enum_w1360A
 0320:043A       filebuf::terminate(void)
 0320:043F       _f010309_RUN
 0320:045A       ConfigMomMissing
 0320:0464       ConfigMomFound
 0320:046C       loc_1366C
 0320:04A6       loc_136A6
 0320:04D6       loc_136D6
 0320:04E5       loc_136E5
 0320:04ED       loc_136ED
 0320:04F4       loc_136F4
 0320:04FB       loc_136FB
 0320:0500       loc_13700
 0320:050C       loc_1370C
 0320:0510       ThankYouExit
 0320:0520       off_13720
 0320:052A       _f010409_LoadVortexAnimationImages
 0320:05C3       LOAD_WIZARDS_0_TO_13
 0320:05D8       LOOP_WIZARDS
 0320:05EA       _f010509_MainMenuScreen
 0320:0608       loc_13808
 0320:060B       loc_1380B
 0320:063D       loc_1383D
 0320:0642       loc_13842
 0320:06BE       SAVE_GAM
 0320:0725       loc_13925
 0320:072B       loc_1392B
 0320:0731       loc_13931
 0320:0733       loc_13933
 0320:073F       loc_1393F
 0320:0742       loc_13942
 0320:074B       loc_1394B
 0320:0758       loc_13958
 0320:07AC       loc_139AC
 0320:07B7       loc_139B7
 0320:0821       loc_13A21
 0320:0827       loc_13A27
 0320:0900       loc_13B00
 0320:0905       loc_13B05
 0320:090A       loc_13B0A
 0320:0925       loc_13B25
 0320:092A       loc_13B2A
 0320:09DE       loc_13BDE
 0320:09F1       loc_13BF1
 0320:09FC       loc_13BFC
 0320:0A05       loc_13C05
 0320:0A10       loc_13C10
 0320:0A19       loc_13C19
 0320:0A24       loc_13C24
 0320:0A2D       loc_13C2D
 0320:0A3D       loc_13C3D
 0320:0A46       loc_13C46
 0320:0A51       loc_13C51
 0320:0A5A       loc_13C5A
 0320:0A63       loc_13C63
 0320:0A88       loc_13C88
 0320:0A93       loc_13C93
 0320:0A9D       loc_13C9D
 0320:0AA4       loc_13CA4
 0320:0AB4       loc_13CB4
 0320:0ABA       _f010609_DrawMainMenuScreen
 0320:0B10       loc_13D10
 0320:0B22       loc_13D22
 0320:0B25       loc_13D25
 0320:0B4C       loc_13D4C
 0320:0B6D       loc_13D6D
 0320:0B7B       loc_13D7B
 0320:0B7C       loc_13D7C
 0320:0B91       loc_13D91
 0320:0B96       loc_13D96
 0320:0BA0       loc_13DA0
 0320:0BB2       loc_13DB2
 0320:0BC1       loc_13DC1
 0320:0BDB       loc_13DDB
 0320:0BF0       loc_13DF0
 0320:0BFF       loc_13DFF
 0320:0C27       loc_13E27
 0320:0C36       loc_13E36
 0320:0C5E       loc_13E5E
 0320:0C6C       loc_13E6C
 0320:0C6D       loc_13E6D
 0320:0C94       fncLoadTERRSTAT
 0320:0CC1       LBX_SpellDat
 0320:0CDB       loc_13EDB
 0320:0CDF       loc_13EDF
 0320:0CEE       LBX_HelpEntry_s13EEE
 0320:0D04       loc_13F04
 0320:0D0D       loc_13F0D
 0320:0D14       loc_13F14
 0320:0D18       loc_13F18
 0320:0D1E       loc_13F1E
 0320:0D20       locret_13F20
 03F2:0002       _f020105_bios_timeofday
 03F2:0018       _f020205_idk_DIFF_bios_time_lw
 03F2:0028       _f020305_idk_SleepWaitPause
 03F2:0035       loc_13F55
 03F2:003D       LOOP
 03F2:004C       loc_13F6C
 03F2:005E       _f020405_idk_CheckInputOrSleep_s13F7E
 03F2:0069       loc_13F89
 03F2:006C       loc_13F8C
 03F2:0079       loc_13F99
 03F2:008D       loc_13FAD
 03F2:0090       loc_13FB0
 03F2:00AD       loc_13FCD
 03F2:00B2       loc_13FD2
 03F2:00B7       loc_13FD7
 03F2:00BF       _f020505_WaitForVsync
 03F2:00C3       loc_13FE3
 03F2:00C8       loc_13FE8
 03F2:00CD       loc_13FED
 03FF:0000       byte_13FF0
 03FF:0003       idk_IntVec_s13FF3
 03FF:002D       loc_1401D
 03FF:0032       byte_14022
 03FF:0033       loc_14023
 03FF:0038       loc_14028
 03FF:003B       loc_1402B
 03FF:0054       loc_14044
 03FF:0057       loc_14047
 03FF:005D       byte_1404D
 03FF:006C       DOS_DeleteFile
 03FF:0082       DOS_FindFirst
 03FF:00AF       loc_1409F
 03FF:00B4       loc_140A4
 03FF:00B7       loc_140A7
 03FF:00BA       loc_140AA
 03FF:00C0       loc_140B0
 03FF:00C3       loc_140B3
 03FF:00C8       loc_140B8
 03FF:00CD       loc_140BD
 03FF:00D2       NOT_FOUND
 03FF:00D5       loc_140C5
 03FF:00E0       loc_140D0
 03FF:00E3       loc_140D3
 03FF:00E5       loc_140D5
 03FF:00E6       loc_140D6
 03FF:00E8       loc_140D8
 03FF:00EA       NoXrefs_DosGetDtaFindFirst
 03FF:00EB       loc_140DB
 03FF:00ED       loc_140DD
 03FF:00F0       loc_140E0
 03FF:00F1       loc_140E1
 03FF:00F5       loc_140E5
 03FF:00FA       loc_140EA
 03FF:00FC       loc_140EC
 03FF:00FE       loc_140EE
 03FF:0101       loc_140F1
 03FF:0104       loc_140F4
 03FF:0118       loc_14108
 03FF:0126       loc_14116
 03FF:0130       loc_14120
 03FF:0138       idk_DOS_SelectDisk_s14128
 03FF:0160       loc_14150
 03FF:0163       loc_14153
 03FF:016F       idk_GetDir_Adrive_s1415F
 0418:000C       _f040101_DosFindFile
 0418:0033       FIND_FIRST
 0418:0041       j_FILE_FOUND
 0418:0044       FIND_NEXT
 0418:004A       FILE_FOUND
 0418:0059       ASCIIZ_COPY_SI_TO_DI
 0418:005F       RET_FILE_FOUND
 0418:0072       FILE_NOT_FOUND
 0418:008C       byte_1420C
 0422:000E       ST_ExitWithMemDiag
 0422:0011       loc_14231
 0422:0145       _f050207_EXIT_CleanUp
 0422:0171       idk_CleanupPrintExit_s14391
 0422:01B6       ST_execl_WizardsExe
 0422:01CE       loc_143EE
 0422:01D8       loc_143F8
 0422:01EE       loc_1440E
 0422:01F8       loc_14418
 0422:01FE       loc_1441E
 0422:0248       loc_14468
 0422:0251       ST_UpdateWorstFreeKb
 0422:0262       New_Worst_Free_Kb
 0422:0266       CURRENT_NOT_WORSE
 0422:0269       idk_Cleanup_PrintFileTextMode_Exit_s14489
 0422:02D4       loc_144F4
 0422:0308       loc_14528
 0422:0319       loc_14539
 0422:0324       loc_14544
 0422:032C       loc_1454C
 0422:0345       loc_14565
 0422:0347       loc_14567
 0422:034C       CLRSCR_EXIT
 0422:0365       idk_OutputText_TextMode
 0422:0378       loc_14598
 0422:03AB       loc_145CB
 0422:03B0       loc_145D0
 0422:03B6       loc_145D6
 045D:000E       ST_SetVideoMode_TEXT
 045D:0014       _f060206_DOS_PrintAndExit
 045D:0017       loc_145E7
 045D:001A       LOOP_LoadSB
 045D:003F       loc_1460F
 045D:0040       locret_14610
 045D:0041       sub_14611
 045D:0044       loc_14614
 045D:0047       loc_14617
 045D:0048       loc_14618
 045D:004A       loc_1461A
 045D:004C       loc_1461C
 045D:004D       loc_1461D
 045D:0050       loc_14620
 045D:0051       loc_14621
 045D:0055       loc_14625
 045D:0058       loc_14628
 045D:005C       loc_1462C
 045D:005D       loc_1462D
 045D:0060       loc_14630
 045D:0061       loc_14631
 045D:0064       loc_14634
 045D:0066       loc_14636
 045D:0068       loc_14638
 045D:0069       locret_14639
 045D:006A       ST_GetDosMemAvail_KB
 045D:0075       loc_14645
 045D:007D       loc_1464D
 045D:0084       loc_14654
 045D:0086       loc_14656
 045D:0088       idk_PushPopEsDsSiDiRetF
 045D:008A       loc_1465A
 045D:008C       loc_1465C
 045D:008E       loc_1465E
 045D:0090       locret_14660
 045D:0091       idk_PushPop_EsDsSiDi
 045D:0094       loc_14664
 045D:0096       loc_14666
 045D:0098       loc_14668
 0466:000A       sub_1466A
 0466:000B       loc_1466B
 0466:000D       loc_1466D
 0466:000E       loc_1466E
 0466:000F       loc_1466F
 0466:0010       loc_14670
 0466:0011       loc_14671
 0466:0014       loc_14674
 0466:0015       loc_14675
 0466:0017       loc_14677
 0466:0019       loc_14679
 0466:001B       loc_1467B
 0466:001D       loc_1467D
 0466:0020       loc_14680
 0466:0023       loc_14683
 0466:0024       loc_14684
 0466:0028       loc_14688
 0466:002B       loc_1468B
 0466:002C       loc_1468C
 0466:002D       loc_1468D
 0466:0030       loc_14690
 0466:0031       loc_14691
 0466:0033       loc_14693
 0466:0037       loc_14697
 0466:0038       locret_14698
 0466:0039       loc_14699
 0466:003C       loc_1469C
 0466:003D       loc_1469D
 0466:003E       loc_1469E
 0466:003F       loc_1469F
 0466:0040       loc_146A0
 0466:0041       locret_146A1
 0466:0042       sub_146A2
 0466:0052       loc_146B2
 0466:0058       loc_146B8
 0466:0061       sub_146C1
 0466:0064       loc_146C4
 0466:0065       loc_146C5
 0466:0066       loc_146C6
 0466:0067       loc_146C7
 0466:006A       loc_146CA
 0466:006B       loc_146CB
 0466:006D       loc_146CD
 0466:0070       loc_146D0
 0466:007A       loc_146DA
 0466:007E       ST_Chk_12FA_4ECF
 0466:0091       loc_146F1
 0466:0097       Not_12FA_4ECF
 0466:009E       Is_12FA_4ECF
 0466:00A5       idk_LODSB_Arg2_Arg1
 0466:00B9       ST_Read_2B_From_Buffer_At_Offset
 0466:00CB       ST_Read_4B_From_Buffer_At_Offset
 0466:00E4       fncStoSB
 0466:00F9       fncStoSW
 0466:010E       fncStoSWx2
 0466:0113       loc_14773
 0466:0116       loc_14776
 0466:0118       loc_14778
 0466:011B       loc_1477B
 0466:011E       loc_1477E
 0466:011F       loc_1477F
 0466:0126       locret_14786
 0478:0007       sub_14787
 0478:0008       loc_14788
 0478:000A       loc_1478A
 0478:000D       loc_1478D
 0478:0012       sub_14792
 0478:001D       sub_1479D
 0478:001E       loc_1479E
 0478:0020       loc_147A0
 0478:0026       loc_147A6
 0478:002C       loc_147AC
 0478:002E       EMM_CheckAllocation
 0478:003B       loc_147BB
 0478:004A       loc_147CA
 0478:0065       sub_147E5
 0478:0066       loc_147E6
 0478:0068       loc_147E8
 0478:006C       loc_147EC
 0478:006F       loc_147EF
 0478:0072       loc_147F2
 0478:007A       loc_147FA
 0478:007C       loc_147FC
 0478:007F       loc_147FF
 0478:008A       loc_1480A
 0478:008D       loc_1480D
 0478:0090       loc_14810
 0478:0094       loc_14814
 0478:0097       loc_14817
 0478:009D       loc_1481D
 0478:009F       loc_1481F
 0478:00A0       locret_14820
 0478:00A1       EXIT_AllocationError
 0478:00B2       loc_14832
 0478:00B3       loc_14833
 0478:00B7       loc_14837
 0478:00BA       loc_1483A
 0478:00BB       loc_1483B
 0478:00C6       loc_14846
 0478:00D5       loc_14855
 0478:00DF       loc_1485F
 0478:00E3       loc_14863
 0478:00EB       ST_AllocateSpace
 0478:011F       DynamicAllocationTooSmallForAllocateSpace
 0478:012B       NOT_NULL
 0478:018A       ST_FarMalloc
 0478:01BD       loc_1493D
 0478:01BF       loc_1493F
 0478:01D0       loc_14950
 0478:01D4       malloc_s14954
 0478:0205       @@NoCanDo
 0478:0207       @@AllDone
 0478:0209       loc_14989
 0478:021A       @@Exit
 0478:021E       idk_LoadSw10_StoreSw14
 0478:024C       idk_LoadSw14_StoreSw10
 0478:027A       idk_Mem_StoSW_s149FA
 0478:02AE       loc_14A2E
 0478:02BA       loc_14A3A
 0478:02D0       loc_14A50
 0478:0343       sub_14AC3
 0478:034A       loc_14ACA
 0478:034D       loc_14ACD
 0478:035F       loc_14ADF
 0478:0378       sub_14AF8
 0478:03A2       loc_14B22
 0478:03C4       loc_14B44
 0478:0449       fncSub2ndW1stW
 0478:046C       loc_14BEC
 0478:046D       loc_14BED
 0478:047C       idk_DxAxBpSp_s14BFC
 0478:049F       sub_14C1F
 0478:04A5       loc_14C25
 0478:04AE       loc_14C2E
 0478:04BC       loc_14C3C
 0478:04C8       loc_14C48
 0478:04CE       CALL_farfree
 0478:04EF       MemBlocksErrorExit
 0478:0550       DEBUG_MODE
 0478:055C       loc_14CDC
 0478:0563       DynAllocTooSmallForAllocSpace
 0478:0584       loc_14D04
 0478:0593       loc_14D13
 0478:05A7       loc_14D27
 0478:05AB       loc_14D2B
 0478:05B5       loc_14D35
 0478:05CC       loc_14D4C
 0478:05DB       loc_14D5B
 0478:05F6       AllocationSpaceCorrupted
 0478:0604       loc_14D84
 0478:0617       loc_14D97
 0478:061F       loc_14D9F
 0478:0626       loc_14DA6
 0478:0629       loc_14DA9
 0478:0631       loc_14DB1
 0478:0638       loc_14DB8
 0478:063B       loc_14DBB
 0478:063C       loc_14DBC
 0478:064F       loc_14DCF
 0478:065E       loc_14DDE
 0478:0674       loc_14DF4
 0478:0677       loc_14DF7
 0478:067A       loc_14DFA
 0478:067E       loc_14DFE
 0478:0684       loc_14E04
 0478:0685       loc_14E05
 0478:0688       locret_14E08
 0478:0689       off_14E09
 04E1:0002       DOS_OpenFile
 04E1:0003       loc_14E13
 04E1:0006       loc_14E16
 04E1:0008       loc_14E18
 04E1:0009       loc_14E19
 04E1:000C       loc_14E1C
 04E1:0019       CF1_ErrorSet
 04E1:0022       DOS_CloseFileWithHandle
 04E1:0023       loc_14E33
 04E1:0026       loc_14E36
 04E1:0028       loc_14E38
 04E1:002B       loc_14E3B
 04E1:0030       loc_14E40
 04E1:0033       loc_14E43
 04E1:0036       ST_DOS_fseek_BOF
 04E1:004D       FAILURE
 04E1:0056       SUCCESS
 04E1:005F       sub_14E6F
 04E1:0060       loc_14E70
 04E1:0064       loc_14E74
 04E1:0065       loc_14E75
 04E1:0066       loc_14E76
 04E1:0069       loc_14E79
 04E1:006C       loc_14E7C
 04E1:006F       loc_14E7F
 04E1:0072       loc_14E82
 04E1:0074       loc_14E84
 04E1:007A       loc_14E8A
 04E1:007C       loc_14E8C
 04E1:007F       loc_14E8F
 04E1:0084       loc_14E94
 04E1:0088       ST_DOS_fread
 04E1:00AC       ReadError
 04E1:00B5       ST_DOS_ReadFromFileHandle_1
 04E1:00CB       loc_14EDB
 04E1:00D4       loc_14EE4
 04E1:00DD       idk_Get_FAT_FileExtension_s14EED
 04E1:00EA       loc_14EFA
 04E1:00EF       loc_14EFF
 04E1:00F5       loc_14F05
 04E1:00FA       loc_14F0A
 04E1:00FD       loc_14F0D
 04E1:0102       loc_14F12
 04E1:0105       loc_14F15
 04E1:0108       loc_14F18
 04E1:010A       loc_14F1A
 04E1:010C       loc_14F1C
 04E1:010E       loc_14F1E
 04E1:0110       loc_14F20
 04E1:0114       loc_14F24
 04F2:0006       LBX_Load_Entry_0_0_0
 04F2:0022       LBX_Load_Entry_0_1
 04F2:003F       LBX_Load_Entry_0_2
 04F2:005C       LBX_PreLoad_s15453
 04F2:007E       LBX_Load_s14F9E
 04F2:00A1       LBX_Load_s14FC1
 04F2:00C4       sub_14FE4
 04F2:00C7       loc_14FE7
 04F2:00CD       loc_14FED
 04F2:00D0       loc_14FF0
 04F2:00D4       loc_14FF4
 04F2:00D7       loc_14FF7
 04F2:00E0       locret_15000
 04F2:00E1       sub_15001
 04F2:00E2       loc_15002
 04F2:00E4       loc_15004
 04F2:00E7       loc_15007
 04F2:00E8       loc_15008
 04F2:00EB       loc_1500B
 04F2:00EC       loc_1500C
 04F2:00EF       loc_1500F
 04F2:00F7       loc_15017
 04F2:00FA       loc_1501A
 04F2:00FD       loc_1501D
 04F2:00FE       locret_1501E
 04F2:00FF       loc_1501F
 04F2:0100       loc_15020
 04F2:0106       loc_15026
 04F2:0110       loc_15030
 04F2:011D       LBX_Load_Entry
 04F2:012F       NoNameDefaultNotFound
 04F2:013D       OK_StringNotEmpty
 04F2:0157       loc_15077
 04F2:0164       loc_15084
 04F2:016B       NO_ArgNbr3
 04F2:0172       loc_15092
 04F2:0177       loc_15097
 04F2:0196       GOT_ZERO
 04F2:019D       idk_CurrentFileOpen
 04F2:01AD       idk_AlreadyReadHeader
 04F2:01B8       DIFFERENT_FILE_OPEN
 04F2:01CF       loc_150EF
 04F2:020A       COULD_NOT_OPEN_FILE
 04F2:021F       TRY_SOME_OTHER_FILENAME
 04F2:0251       COULD_NOT_OPEN_FILE_STILL
 04F2:025F       SUCCESS_FILE_OPEN
 04F2:0272       FILE_POSITION_IS_ZERO
 04F2:027C       loc_1519C
 04F2:0292       SEEK_FAILURE1
 04F2:029F       SEEK_SUCCESS1
 04F2:02B0       Check_Lbx_MagSig
 04F2:02C7       noLbxMagSig
 04F2:02D5       GetEntryCount
 04F2:02E6       CheckEntryCount
 04F2:02EC       EXCEEDS_ENTRY_COUNT
 04F2:02FA       GetEntryOffsets
 04F2:0300       loc_15220
 04F2:035A       SEEK_FAILURE2
 04F2:036B       SEEK_SUCCESS2
 04F2:0388       NOT_Srtgy0
 04F2:038D       NOT_Srtgy1
 04F2:0392       Srtgy2_jmp
 04F2:0395       Srtgy3
 04F2:0398       Srtgy0_Malloc
 04F2:03AA       FAILURE_MALLOC
 04F2:03B8       loc_152D8
 04F2:03BB       Srtgy1_check
 04F2:03D6       Srtgy1_g2g
 04F2:040D       loc_1532D
 04F2:0419       loc_15339
 04F2:042A       Srtgy2_check
 04F2:0445       Srtgy2_g2g
 04F2:046A       loc_1538A
 04F2:046D       loc_1538D
 04F2:0470       loc_15390
 04F2:049D       loc_153BD
 04F2:04AA       ReadLbxMemberData
 04F2:04D7       SUCCESS_DOS_fread
 04F2:04DC       loc_153FC
 04F2:04EB       loc_1540B
 04F2:04F9       Read_LTE_32KB
 04F2:0515       READ_FAILURE
 04F2:0523       loc_15443
 04F2:0533       LBX_Load_s15453
 04F2:0554       loc_15474
 04F2:056E       loc_1548E
 04F2:059F       loc_154BF
 04F2:05BE       j_TEST_ENTRY_COUNT
 04F2:05C1       loc_154E1
 04F2:05D8       loc_154F8
 04F2:0628       loc_15548
 04F2:065D       NOT_FOUND
 04F2:066B       loc_1558B
 04F2:0680       SEEK_0
 04F2:06AD       READ_LBX_HEADER
 04F2:06BE       READ_TEST_MAGSIG
 04F2:06DC       loc_155FC
 04F2:06E3       READ_ENTRY_COUNT
 04F2:06F4       TEST_ENTRY_COUNT
 04F2:0708       MemberOffsetMath
 04F2:0769       loc_15689
 04F2:0770       loc_15690
 04F2:0779       loc_15699
 04F2:07AF       loc_156CF
 04F2:07C0       loc_156E0
 04F2:07D0       loc_156F0
 04F2:07D4       loc_156F4
 04F2:07DC       loc_156FC
 04F2:081E       loc_1573E
 04F2:0850       loc_15770
 04F2:085D       loc_1577D
 04F2:0860       loc_15780
 04F2:0880       loc_157A0
 04F2:0883       loc_157A3
 04F2:0890       loc_157B0
 04F2:089E       loc_157BE
 04F2:08A2       loc_157C2
 04F2:08D5       loc_157F5
 04F2:08E1       loc_15801
 04F2:08F2       loc_15812
 04F2:08FF       loc_1581F
 04F2:0900       loc_15820
 04F2:090D       loc_1582D
 04F2:0938       loc_15858
 04F2:0965       loc_15885
 04F2:0970       loc_15890
 04F2:0972       loc_15892
 04F2:097B       loc_1589B
 04F2:099F       loc_158BF
 04F2:09A4       loc_158C4
 04F2:09AA       loc_158CA
 04F2:09B3       loc_158D3
 04F2:09C1       loc_158E1
 04F2:09EB       loc_1590B
 04F2:09FB       LBX_Load_HelpNewTerrCity
 04F2:0A0F       loc_1592F
 04F2:0A1C       loc_1593C
 04F2:0A36       loc_15956
 04F2:0A64       loc_15984
 04F2:0A86       loc_159A6
 04F2:0A9D       loc_159BD
 04F2:0ADF       loc_159FF
 04F2:0AE4       loc_15A04
 04F2:0AE5       loc_15A05
 04F2:0AED       loc_15A0D
 04F2:0B20       loc_15A40
 04F2:0B25       loc_15A45
 04F2:0B2D       loc_15A4D
 04F2:0B5A       loc_15A7A
 04F2:0B6B       loc_15A8B
 04F2:0B90       loc_15AB0
 04F2:0BA1       loc_15AC1
 04F2:0BB5       loc_15AD5
 04F2:0C15       SEEK_FAILURE
 04F2:0C26       SEEK_SUCCESS
 04F2:0C5C       loc_15B7C
 04F2:0C6D       loc_15B8D
 04F2:0C89       loc_15BA9
 04F2:0CCE       loc_15BEE
 04F2:0D1F       loc_15C3F
 04F2:0D2A       LBX_Load_Entry_4bytes
 04F2:0D4A       loc_15C6A
 04F2:0D64       UPPERCASE
 04F2:0D78       loc_15C98
 04F2:0D7F       NOT_TWO
 04F2:0D84       loc_15CA4
 04F2:0D9B       REQUESTED_LBX_IS_GLOBAL_LBX
 04F2:0DA3       REQUESTED_POS_IS_GLOBAL_POS
 04F2:0DA6       OPEN_DIFFERENT_LBX
 04F2:0DB3       CLOSE_GLOBAL_LBX_HANDLE
 04F2:0DBD       CONTINUE_NO_GLOBAL_LBX_HANDLE
 04F2:0DF8       FAILURE_OPEN_FILE
 04F2:0E0D       loc_15D2D
 04F2:0E4D       SUCCESS_OPEN_FILE
 04F2:0E60       loc_15D80
 04F2:0E6A       LSEEK
 04F2:0E80       LSEEK_FAILURE
 04F2:0E8D       LSEEK_SUCCESS
 04F2:0E9E       Check_LBX_MagSig
 04F2:0EC3       VALID_LBX
 04F2:0ED4       CHECK_ENTRYCOUNT
 04F2:0EE8       ENTRYCOUNT_OK
 04F2:0F43       ST_Set_LbxDirectoryPath
 04F2:0F56       LBX_Load_ErrorHandler
 04F2:0FB8       UNKNOWN_ERROR
 04F2:0FBB       ErrNoLTE15
 04F2:0FC2       LbxErrNo_1
 04F2:0FC5       loc_15EE5
 04F2:0FD4       LbxErrNo_2
 04F2:0FD9       CASE_0x2
 04F2:0FE8       loc_15F08
 04F2:1012       CASE_0x3
 04F2:1017       LbxErrNo_5
 04F2:1050       LbxErrNo_7
 04F2:1056       LbxErrNo_8
 04F2:105C       CASE_0x8
 04F2:1062       loc_15F82
 04F2:1068       loc_15F88
 04F2:1089       CASE_0xB
 04F2:108F       CASE_0xC
 04F2:1095       loc_15FB5
 04F2:10B3       loc_15FD3
 04F2:10D7       VGA_ANIM_FRAME_TOO_BIG
 04F2:10E6       loc_16006
 04F2:10F5       off_16015
 04F2:1115       ST_RemoveExtensionUppercaseName
 04F2:111F       NOT_ZERO
 04F2:1128       TO_UPPERCASE
 04F2:1136       NOT_LOWERCASE
 04F2:113F       GotTheDot
 04F2:1146       NEXT_BYTE
 04F2:1147       WHILE_NOT_ZERO
 04F2:1150       STRING_END
 04F2:1152       ST_SetRequiredMEM
 0607:000D       DOS_OpenFileModeCheck
 0607:000E       loc_1607E
 0607:0024       loc_16094
 0607:0034       READ_MODE
 0607:0041       NotReadMode
 0607:0051       loc_160C1
 0607:0061       CREATE
 0607:0071       WRITE_MODE
 0607:007C       loc_160EC
 0607:0084       DOS_ReadFromFile_0
 0607:0087       loc_160F7
 0607:008A       loc_160FA
 0607:008D       loc_160FD
 0607:0090       loc_16100
 0607:0096       loc_16106
 0607:0098       loc_16108
 0607:009B       SKIP_SAVE_DS
 0607:009C       loc_1610C
 0607:00B3       OVR_DOS_WriteToFileWithHandle
 0607:00CA       GOT_BYTES_TO_WRITE
 0607:00E2       DOS_MoveFilePointer
 0607:00E5       loc_16155
 0607:00EE       loc_1615E
 0607:00F4       loc_16164
 0607:00F6       loc_16166
 0607:00F8       DOS_CloseFileHandle
 0607:00F9       loc_16169
 0607:00FB       loc_1616B
 0607:00FD       loc_1616D
 0607:0104       locret_16174
 0617:0006       nEmsLogicalPageNumber
 0617:0008       EMM_GetPageFrameAddress
 0617:000B       loc_1617B
 0617:000C       loc_1617C
 0617:0016       TEST_IOCTL
 0617:001F       TEST_CHAR_DEV
 0617:0025       TEST_EMM_AVAIL
 0617:002C       TEST_DEV_STAT
 0617:0030       CLOSE_HANDLE
 0617:0036       loc_161A6
 0617:003F       TEST_EMM_VERSION
 0617:0043       GET_PAGE_FRAME_ADDR
 0617:004C       EMM_SUCCESS
 0617:0058       EMM_FAIL
 0617:0060       EMM_GetUnallocatedPageCount
 0617:0061       loc_161D1
 0617:0064       loc_161D4
 0617:0066       loc_161D6
 0617:0068       loc_161D8
 0617:006B       loc_161DB
 0617:006D       SUCCESS
 0617:0070       loc_161E0
 0617:0072       loc_161E2
 0617:0074       FAILURE
 0617:007A       loc_161EA
 0617:007C       DOS_GetNumberOfPages
 0617:0080       loc_161F0
 0617:0084       loc_161F4
 0617:0087       loc_161F7
 0617:0089       loc_161F9
 0617:008F       locret_161FF
 0617:0090       FAILURE
 0617:0096       loc_16206
 0617:0098       EMM_GetPagesOwnedByHandle
 0617:0099       loc_16209
 0617:009E       loc_1620E
 0617:009F       loc_1620F
 0617:00A9       loc_16219
 0617:00AB       loc_1621B
 0617:00AE       loc_1621E
 0617:00B1       loc_16221
 0617:00B3       EMM_FAILURE
 0617:00B9       loc_16229
 0617:00BA       loc_1622A
 0617:00BB       locret_1622B
 0617:00BC       EMS_GetHandleAllocMemSetName
 0617:00BF       loc_1622F
 0617:00C6       loc_16236
 0617:00C8       loc_16238
 0617:00CD       loc_1623D
 0617:00D2       loc_16242
 0617:00D5       loc_16245
 0617:00D8       loc_16248
 0617:00E0       loc_16250
 0617:00E2       loc_16252
 0617:00E5       loc_16255
 0617:00E7       loc_16257
 0617:00E8       loc_16258
 0617:00EB       loc_1625B
 0617:00ED       EMM_FAILURE
 0617:00F0       loc_16260
 0617:00F1       loc_16261
 0617:00F2       loc_16262
 0617:00F7       locret_16267
 0617:00F8       EMM_GetHandleName
 0617:00F9       loc_16269
 0617:00FB       loc_1626B
 0617:00FD       loc_1626D
 0617:00FE       loc_1626E
 0617:00FF       loc_1626F
 0617:0120       loc_16290
 0617:0125       EMM_FAILURE
 0617:0128       loc_16298
 0617:012E       EMM_ReleaseHandleAndMemory
 0617:013D       loc_162AD
 0617:0140       loc_162B0
 0617:0142       ZERO_HANDLES
 0617:0147       locret_162B7
 0617:0148       EMS_MapMemory_4
 0617:015D       loc_162CD
 0617:01C7       idk_EmsMapMem_s16337
 0617:01D1       loc_16341
 0617:01DC       loc_1634C
 0617:01E4       loc_16354
 0617:01E6       loc_16356
 0617:01E8       loc_16358
 0617:01FF       loc_1636F
 0617:0202       loc_16372
 0617:0208       loc_16378
 0617:0217       loc_16387
 0617:021C       loc_1638C
 0617:021F       loc_1638F
 0617:0234       loc_163A4
 0617:0241       loc_163B1
 0617:0246       fncGetEmmPageFrameSegmentAddress
 0617:0247       loc_163B7
 0617:0251       DOS_MapMemory
 0617:028C       sub_163FC
 0617:028D       loc_163FD
 0617:02A4       loc_16414
 0617:02A5       loc_16415
 0617:02AA       loc_1641A
 0617:02AE       loc_1641E
 0617:02AF       loc_1641F
 0617:02B4       loc_16424
 0617:02B7       loc_16427
 0617:02BA       loc_1642A
 0617:02BD       loc_1642D
 0617:02BF       loc_1642F
 0617:02C0       loc_16430
 0617:02C1       loc_16431
 0617:02C2       loc_16432
 0617:02C3       loc_16433
 0617:02C4       loc_16434
 0617:02C5       loc_16435
 0617:02C6       locret_16436
 0643:0007       idk_Setup_EMM
 0643:000A       loc_1643A
 0643:000E       loc_1643E
 0643:0017       loc_16447
 0643:001A       EMM_GotPageFrameAddress
 0643:002D       loc_1645D
 0643:002E       loc_1645E
 0643:0032       loc_16462
 0643:0037       loc_16467
 0643:003D       loc_1646D
 0643:0040       loc_16470
 0643:0044       loc_16474
 0643:0045       loc_16475
 0643:004C       loc_1647C
 0643:004E       loc_1647E
 0643:0050       loc_16480
 0643:0054       EMM_FAILURE
 0643:0055       CHECK_PAGE_COUNT
 0643:0058       loc_16488
 0643:005F       loc_1648F
 0643:0061       GetMoreHandles
 0643:0067       loc_16497
 0643:006C       loc_1649C
 0643:0070       loc_164A0
 0643:0071       loc_164A1
 0643:0074       loc_164A4
 0643:007A       loc_164AA
 0643:007E       loc_164AE
 0643:0086       loc_164B6
 0643:00C4       TEST_HANDLE
 0643:00CB       loc_164FB
 0643:00D5       loc_16505
 0643:00DF       loc_1650F
 0643:00E5       loc_16515
 0643:00EB       loc_1651B
 0643:00ED       loc_1651D
 0643:00EE       loc_1651E
 0643:00F1       loc_16521
 0643:00F7       loc_16527
 0643:00F9       loc_16529
 0643:00FB       loc_1652B
 0643:00FD       loc_1652D
 0643:0103       loc_16533
 0643:0106       loc_16536
 0643:010D       loc_1653D
 0643:0119       loc_16549
 0643:0122       loc_16552
 0643:0128       loc_16558
 0643:0131       loc_16561
 0643:013B       loc_1656B
 0643:013C       LOOP_50
 0643:013F       loc_1656F
 0643:0148       loc_16578
 0643:0166       loc_16596
 0643:0167       loc_16597
 0643:0186       loc_165B6
 0643:018F       loc_165BF
 0643:019D       loc_165CD
 0643:01AB       loc_165DB
 0643:01B1       loc_165E1
 0643:01B4       loc_165E4
 0643:01B6       sub_165E6
 0643:01C8       LBX_LoadFileIndex1
 0643:01D2       loc_16602
 0643:01DB       LBX_LoadFileMemory
 0643:01FE       NEXT_BYTE
 0643:01FF       LOOP_TO_EOS
 0643:0209       APPEND_ZERO
 0643:020E       GOT_EOS
 0643:0213       loc_16643
 0643:021C       loc_1664C
 0643:0220       loc_16650
 0643:023B       STR_MISMATCH
 0643:023C       loc_1666C
 0643:0246       loc_16676
 0643:025B       loc_1668B
 0643:0265       loc_16695
 0643:026F       loc_1669F
 0643:027E       loc_166AE
 0643:02A5       loc_166D5
 0643:02A8       loc_166D8
 0643:02AF       loc_166DF
 0643:02BD       loc_166ED
 0643:02C4       loc_166F4
 0643:02D6       loc_16706
 0643:02EE       loc_1671E
 0643:02F1       loc_16721
 0643:0300       loc_16730
 0643:030F       loc_1673F
 0643:031C       loc_1674C
 0643:0325       loc_16755
 0643:033B       loc_1676B
 0643:034C       loc_1677C
 0643:037F       loc_167AF
 0643:038E       loc_167BE
 0643:039C       loc_167CC
 0643:03AF       loc_167DF
 0643:03BD       loc_167ED
 0643:03C0       loc_167F0
 0643:03C3       loc_167F3
 0643:03C9       loc_167F9
 0643:03CB       loc_167FB
 0643:03E3       loc_16813
 0643:03E6       loc_16816
 0643:03E9       loc_16819
 0643:03EF       sub_1681F
 0643:03F0       loc_16820
 0643:03F5       loc_16825
 0643:03F8       loc_16828
 0643:0408       sub_16838
 0643:040E       loc_1683E
 0643:0422       LBX_AllocMem
 0643:0440       loc_16870
 0643:0453       loc_16883
 0643:0454       loc_16884
 0643:045E       LOOP
 0643:0463       LOOP_x9
 0643:0468       END_LOOP
 0643:046D       loc_1689D
 0643:0471       COMPARE_WHAT
 0643:047F       loc_168AF
 0643:0490       END_LOOP_PageCount
 0643:0491       LOOP_PageCount
 0643:04B0       loc_168E0
 0643:04BA       loc_168EA
 0643:04C4       loc_168F4
 0643:04F2       loc_16922
 0643:0509       loc_16939
 0643:0537       loc_16967
 0643:053E       loc_1696E
 0643:0565       loc_16995
 0643:0585       loc_169B5
 0643:05AF       loc_169DF
 0643:05B3       loc_169E3
 0643:05BE       loc_169EE
 0643:05CA       loc_169FA
 0643:05CC       loc_169FC
 0643:05FF       loc_16A2F
 0643:0605       sub_16A35
 0643:060E       loc_16A3E
 0643:0622       loc_16A52
 0643:0625       loc_16A55
 0643:0629       locret_16A59
 0643:062A       sub_16A5A
 0643:0633       loc_16A63
 0643:0639       loc_16A69
 0643:063C       loc_16A6C
 0643:0640       loc_16A70
 0643:064F       locret_16A7F
 0643:0650       LBX_s16A80
 0643:0651       loc_16A81
 0643:0653       loc_16A83
 0643:0660       loc_16A90
 0643:0668       loc_16A98
 0643:067C       loc_16AAC
 0643:0681       loc_16AB1
 0643:0682       loc_16AB2
 0643:0688       loc_16AB8
 0643:068C       loc_16ABC
 0643:0691       loc_16AC1
 0643:069F       loc_16ACF
 0643:06AE       loc_16ADE
 0643:06BE       loc_16AEE
 0643:06BF       loc_16AEF
 0643:06CB       loc_16AFB
 0643:06D2       loc_16B02
 0643:06D6       loc_16B06
 0643:06DE       loc_16B0E
 0643:06E8       loc_16B18
 0643:06F2       loc_16B22
 0643:0735       loc_16B65
 0643:0748       loc_16B78
 0643:074E       loc_16B7E
 0643:075A       loc_16B8A
 0643:0766       loc_16B96
 0643:078E       loc_16BBE
 0643:07BC       loc_16BEC
 0643:07CA       loc_16BFA
 0643:07CD       loc_16BFD
 0643:07E6       loc_16C16
 0643:07EB       loc_16C1B
 0643:07FF       loc_16C2F
 0643:0806       loc_16C36
 0643:080B       loc_16C3B
 0643:0830       loc_16C60
 0643:083F       loc_16C6F
 0643:084D       loc_16C7D
 0643:0871       loc_16CA1
 0643:0875       loc_16CA5
 0643:0877       LBX_EmsMapMem
 0643:0896       EXIT_AX_0_1of
 0643:0899       GOT_varMemCntOrHandle
 0643:08D7       loc_16D07
 0643:08F1       loc_16D21
 0643:08F4       loc_16D24
 0643:0918       EXIT_AX_ZERO
 0643:091A       loc_16D4A
 0643:091D       loc_16D4D
 0643:0923       arg8_SI_ZERO
 0643:0933       arg8_SI_NOT_ZERO
 0643:0941       loc_16D71
 0643:099C       EXIT_AX_0_2of
 0643:099F       loc_16DCF
 0643:09A7       EXIT_AX_0_3of
 0643:09AA       loc_16DDA
 0643:09C9       TypeCheck_1of3
 0643:09D0       TypeCheck_1of2
 0643:09D5       TypeCheck_3of3
 0643:09DD       loc_16E0D
 0643:09EF       loc_16E1F
 0643:09F2       loc_16E22
 0643:0A00       loc_16E30
 0643:0A15       loc_16E45
 0643:0A1F       loc_16E4F
 0643:0A2E       loc_16E5E
 0643:0A37       loc_16E67
 0643:0A39       loc_16E69
 0643:0A47       loc_16E77
 0643:0A53       EXIT_AX_0_4of
 0643:0A56       loc_16E86
 0643:0A7C       loc_16EAC
 0643:0A80       EXIT_AX_0_5of
 0643:0A83       loc_16EB3
 0643:0A8D       loc_16EBD
 0643:0ABE       loc_16EEE
 0643:0ACD       loc_16EFD
 0643:0AD3       loc_16F03
 0643:0ADB       loc_16F0B
 0643:0B0A       loc_16F3A
 0643:0B0F       loc_16F3F
 0643:0B15       LBX_s16F45
 0643:0B46       loc_16F76
 0643:0B58       loc_16F88
 0643:0B97       argE_Not_0
 0643:0B9C       argE_Not_1_Not_0
 0643:0BA1       argE_Is_2
 0643:0BA4       argE_Not_2_Not_1_Not_0
 0643:0BA7       argE_Is_0
 0643:0BC8       loc_16FF8
 0643:0BCB       argE_Is_1
 0643:0BE8       loc_17018
 0643:0C10       loc_17040
 0643:0C1A       loc_1704A
 0643:0C29       loc_17059
 0643:0C32       loc_17062
 0643:0C34       loc_17064
 0643:0C3F       loc_1706F
 0643:0C51       loc_17081
 0643:0C73       loc_170A3
 0643:0C99       loc_170C9
 0643:0D16       idk_PreEmmPgCnt
 0643:0D38       loc_17168
 0643:0D5A       loc_1718A
 0643:0D5C       loc_1718C
 0643:0D5F       loc_1718F
 0643:0DC7       loc_171F7
 0643:0DCF       loc_171FF
 0643:0DD2       loc_17202
 0643:0E28       loc_17258
 0643:0E2B       loc_1725B
 0643:0E39       loc_17269
 0643:0E99       loc_172C9
 0643:0EAB       loc_172DB
 0643:0EAE       loc_172DE
 0643:0EB1       loc_172E1
 0643:0EBF       loc_172EF
 0643:0ED4       loc_17304
 0643:0EDF       loc_1730F
 0643:0EEE       loc_1731E
 0643:0EF7       loc_17327
 0643:0EF9       loc_17329
 0643:0F07       loc_17337
 0643:0F16       loc_17346
 0643:0F3D       loc_1736D
 0643:0F46       loc_17376
 0643:0F53       loc_17383
 0643:0F82       loc_173B2
 0643:0F8A       loc_173BA
 0643:0F91       loc_173C1
 0643:0F99       loc_173C9
 0643:0F9F       loc_173CF
 0643:0FA1       loc_173D1
 0643:0FCC       loc_173FC
 0643:0FD2       loc_17402
 0643:0FD8       EMS_s17408
 0643:0FFA       loc_1742A
 0643:0FFF       loc_1742F
 0643:100C       loc_1743C
 0643:1014       loc_17444
 0643:1019       loc_17449
 0643:101B       loc_1744B
 0643:101E       loc_1744E
 0643:1020       loc_17450
 0643:102E       loc_1745E
 0643:1039       loc_17469
 0643:1085       loc_174B5
 0643:1090       loc_174C0
 0643:10E6       loc_17516
 0643:10E9       loc_17519
 0643:10EC       loc_1751C
 0643:10EF       loc_1751F
 0643:10F7       loc_17527
 0643:1100       loc_17530
 0643:1109       loc_17539
 0643:1120       loc_17550
 0643:1127       loc_17557
 0643:112D       loc_1755D
 0643:112F       loc_1755F
 0643:1134       loc_17564
 0643:1155       loc_17585
 0643:1170       loc_175A0
 0643:1172       loc_175A2
 0643:1175       loc_175A5
 0643:117B       loc_175AB
 0643:1181       Emm_PgCnt_s175B1
 0643:118C       COMPARE_WHAT
 0643:11C3       StringMismatch
 0643:11C4       LOOP_PageCount
 0643:11CE       loc_175FE
 0643:11D6       Chk_RelMemHandle
 0643:11DE       loc_1760E
 0643:11E7       loc_17617
 0643:11F2       loc_17622
 0643:11F8       loc_17628
 0643:11FD       loc_1762D
 0643:11FF       loc_1762F
 0643:1209       loc_17639
 0643:120C       EMM_LoopRelease
 0643:1214       loc_17644
 0643:1216       loc_17646
 0643:1219       loc_17649
 0643:1237       loc_17667
 0643:1238       LOOP_RELEASE
 0643:1241       sub_17671
 0643:1291       loc_176C1
 0643:12A7       loc_176D7
 0643:12B9       loc_176E9
 0643:12C4       loc_176F4
 0643:131A       loc_1774A
 0643:1326       loc_17756
 0643:132C       sub_1775C
 0643:132F       loc_1775F
 0643:1336       EMM_Allocate
 0643:1346       MissingParameter
 0643:1348       loc_17778
 0643:134B       ValidParameter
 0643:1357       loc_17787
 0643:136F       loc_1779F
 0643:1372       loc_177A2
 0643:1375       loc_177A5
 0643:1378       loc_177A8
 0643:1381       GET_MORE_PAGES
 0643:1385       loc_177B5
 0643:1387       loc_177B7
 0643:138A       ITR_MAX_65535
 0643:13A4       argValue_NE_0
 0643:13AE       loc_177DE
 0643:13C4       loc_177F4
 0643:13CC       loc_177FC
 0643:13E0       loc_17810
 0643:13E3       SUCCESS
 0643:13FF       loc_1782F
 0643:140E       loc_1783E
 0643:1412       loc_17842
 0643:1420       loc_17850
 0643:1427       NOT_ZERO
 0643:142E       GT_BLOCKS_AVAIL
 0643:1496       LTE_BLOCKS_AVAIL
 0643:1499       loc_178C9
 0643:14B3       GOT_REQUESTED_PAGES
 0643:14B6       DIFF_SIZE
 0643:1513       loc_17943
 0643:1521       loc_17951
 0643:1568       loc_17998
 0643:156D       loc_1799D
 0643:1573       sub_179A3
 0643:1595       sub_179C5
 0643:15A6       loc_179D6
 0643:15AC       loc_179DC
 0643:15AD       loc_179DD
 0643:15B7       sub_179E7
 0643:15D0       loc_17A00
 0643:15E2       sub_17A12
 0643:15ED       loc_17A1D
 0643:160D       CALL_DOS_MapMemory
 0643:1620       sub_17A50
 0643:1663       loc_17A93
 0643:1671       loc_17AA1
 0643:16B0       loc_17AE0
 0643:16BF       loc_17AEF
 0643:16CA       sub_17AFA
 0643:16CD       loc_17AFD
 0643:16D0       loc_17B00
 0643:16D9       loc_17B09
 0643:16E0       loc_17B10
 0643:16EE       loc_17B1E
 0643:170B       loc_17B3B
 0643:1760       loc_17B90
 0643:1772       sub_17BA2
 0643:177D       sub_17BAD
 0643:1788       sub_17BB8
 0643:17A2       loc_17BD2
 0643:17A8       loc_17BD8
 0643:17AC       loc_17BDC
 0643:17AD       loc_17BDD
 0643:17B0       loc_17BE0
 0643:17B2       loc_17BE2
 0643:17B9       loc_17BE9
 0643:17C0       loc_17BF0
 0643:17C1       loc_17BF1
 0643:17CA       loc_17BFA
 0643:17D4       loc_17C04
 0643:17DC       loc_17C0C
 0643:17EB       loc_17C1B
 0643:17ED       loc_17C1D
 0643:17F0       loc_17C20
 0643:17F2       loc_17C22
 0643:17FD       loc_17C2D
 0643:1812       loc_17C42
 0643:1816       loc_17C46
 0643:1819       loc_17C49
 0643:1835       loc_17C65
 0643:184B       loc_17C7B
 0643:184E       loc_17C7E
 0643:185D       loc_17C8D
 0643:1867       loc_17C97
 0643:186E       loc_17C9E
 0643:187E       word_17CAE
 0643:1880       seg_17CB0
 0643:1884       loc_17CB4
 0643:1888       loc_17CB8
 0643:1890       loc_17CC0
 0643:1893       loc_17CC3
 0643:189F       loc_17CCF
 0643:18A3       loc_17CD3
 0643:18AE       loc_17CDE
 0643:18B6       loc_17CE6
 0643:18BC       loc_17CEC
 0643:18BF       loc_17CEF
 0643:18C2       loc_17CF2
 0643:18C8       loc_17CF8
 0643:18CF       loc_17CFF
 0643:18DE       loc_17D0E
 0643:18DF       loc_17D0F
 0643:18E5       loc_17D15
 0643:18E6       loc_17D16
 0643:18EB       setRequiredEMS
 0643:18F6       fncBldMsgInsuffEMS
 0643:18FD       loc_17D2D
 0643:1914       loc_17D44
 0643:1918       loc_17D48
 0643:1919       loc_17D49
 0643:191E       loc_17D4E
 0643:1924       loc_17D54
 0643:1925       loc_17D55
 0643:192A       loc_17D5A
 0643:192C       loc_17D5C
 0643:192F       loc_17D5F
 0643:1930       loc_17D60
 0643:1931       loc_17D61
 0643:1936       loc_17D66
 0643:1937       loc_17D67
 0643:1938       loc_17D68
 0643:1939       loc_17D69
 0643:193B       loc_17D6B
 0643:193C       locret_17D6C
 07D6:000D       Load_Fonts_SndDrv
 07D6:0028       DEFAULT
 07D6:006A       loc_17DCA
 07D6:0097       loc_17DF7
 07D6:00AA       idk_Load_FntSty_SndDrv_Mos
 07D6:00C0       loc_17E20
 07D6:00DF       loc_17E3F
 07D6:00F6       loc_17E56
 07D6:00FB       loc_17E5B
 07D6:00FC       loc_17E5C
 07D6:0104       LBX_Load_FontsStyleData
 07D6:0195       SI_LT_768
 07D6:01A6       LOOP_x768
 07D6:01AC       SI_GTE_768
 07D6:01B0       SI_LT_256
 07D6:01C2       LOOP_x256
 07D6:01C8       SI_GTE_256
 07D6:01CC       wtfCompareSwap
 07D6:01CD       loc_17F2D
 07D6:01D1       loc_17F31
 07D6:01DF       loc_17F3F
 07D6:01E3       loc_17F43
 07D6:01E7       loc_17F47
 07D6:01E9       loc_17F49
 07D6:01F2       loc_17F52
 07D6:01F6       loc_17F56
 07D6:01FB       loc_17F5B
 07D6:01FF       loc_17F5F
 07D6:0205       loc_17F65
 07D6:0207       loc_17F67
 07D6:0209       loc_17F69
 07D6:020F       loc_17F6F
 07D6:021B       loc_17F7B
 07D6:0220       loc_17F80
 07D6:0223       idk_ScrnPos_0_319_0_199
 07D6:022C       loc_17F8C
 07D6:0238       loc_17F98
 07D6:0240       sub_17FA0
 07D6:0245       loc_17FA5
 07D6:0248       loc_17FA8
 07D6:024B       loc_17FAB
 07D6:0252       loc_17FB2
 07D6:0254       loc_17FB4
 07D6:0258       loc_17FB8
 07D6:025C       loc_17FBC
 07D6:0260       loc_17FC0
 07D6:0263       loc_17FC3
 07D6:026B       loc_17FCB
 07D6:026F       loc_17FCF
 07D6:0273       loc_17FD3
 07D6:027D       loc_17FDD
 07D6:0281       loc_17FE1
 07D6:0283       loc_17FE3
 07D6:0287       loc_17FE7
 07D6:028A       loc_17FEA
 07D6:028E       loc_17FEE
 07D6:0290       loc_17FF0
 07D6:0296       loc_17FF6
 07D6:0299       loc_17FF9
 07D6:029F       loc_17FFF
 07D6:02A2       loc_18002
 07D6:02A5       loc_18005
 07D6:02B8       loc_18018
 07D6:02BC       sub_1801C
 07D6:02BD       loc_1801D
 07D6:02C4       loc_18024
 07D6:02CD       loc_1802D
 07D6:02D1       loc_18031
 07D6:02D9       loc_18039
 07D6:02DD       loc_1803D
 07D6:02E1       loc_18041
 07D6:02E7       loc_18047
 07D6:02E9       loc_18049
 07D6:02EC       loc_1804C
 07D6:02ED       loc_1804D
 07D6:02F6       loc_18056
 07D6:02FA       sub_1805A
 07D6:02FD       loc_1805D
 07D6:0300       loc_18060
 07D6:0302       loc_18062
 07D6:0306       loc_18066
 07D6:0309       loc_18069
 07D6:0315       loc_18075
 07D6:0318       loc_18078
 07D6:031A       loc_1807A
 07D6:0322       sub_18082
 07D6:0325       loc_18085
 07D6:032B       loc_1808B
 07D6:0334       loc_18094
 07D6:0335       loc_18095
 07D6:0338       loc_18098
 07D6:0343       loc_180A3
 07D6:0349       loc_180A9
 07D6:034B       sub_180AB
 07D6:0359       loc_180B9
 07D6:0368       loc_180C8
 07D6:036C       loc_180CC
 07D6:036E       loc_180CE
 07D6:0371       loc_180D1
 07D6:0375       loc_180D5
 07D6:0377       loc_180D7
 07D6:037E       loc_180DE
 07D6:0386       loc_180E6
 07D6:038C       loc_180EC
 07D6:038F       loc_180EF
 07D6:0393       loc_180F3
 07D6:0399       loc_180F9
 07D6:039C       loc_180FC
 07D6:03A8       loc_18108
 07D6:03AF       loc_1810F
 07D6:03B5       loc_18115
 07D6:03B9       loc_18119
 07D6:03BC       loc_1811C
 07D6:03C2       loc_18122
 07D6:03C5       loc_18125
 07D6:03C8       loc_18128
 07D6:03CB       loc_1812B
 07D6:03CE       loc_1812E
 07D6:03D9       loc_18139
 07D6:03E5       loc_18145
 07D6:03E8       loc_18148
 07D6:03EF       loc_1814F
 07D6:03F2       loc_18152
 07D6:03FF       loc_1815F
 07D6:0404       loc_18164
 07D6:0407       loc_18167
 07D6:040A       loc_1816A
 07D6:0414       loc_18174
 07D6:0416       loc_18176
 07D6:041C       loc_1817C
 07D6:0420       loc_18180
 07D6:042A       loc_1818A
 07D6:0447       loc_181A7
 07D6:0454       loc_181B4
 07D6:0459       loc_181B9
 07D6:045E       loc_181BE
 07D6:0460       loc_181C0
 07D6:046C       loc_181CC
 07D6:046F       loc_181CF
 07D6:047A       loc_181DA
 07D6:047F       loc_181DF
 07D6:0486       loc_181E6
 07D6:0496       loc_181F6
 07D6:04A0       loc_18200
 07D6:04AB       loc_1820B
 07D6:04B4       loc_18214
 07D6:04BB       loc_1821B
 07D6:04BE       loc_1821E
 07D6:04C0       loc_18220
 07D6:04C3       loc_18223
 07D6:04C6       loc_18226
 07D6:04CC       loc_1822C
 07D6:04CF       loc_1822F
 07D6:04D5       loc_18235
 07D6:04DB       loc_1823B
 07D6:04E2       loc_18242
 07D6:04EB       loc_1824B
 07D6:04F4       loc_18254
 07D6:04F7       loc_18257
 07D6:04FB       loc_1825B
 07D6:04FD       loc_1825D
 07D6:0500       loc_18260
 07D6:0503       loc_18263
 07D6:0506       loc_18266
 07D6:050E       loc_1826E
 07D6:0517       loc_18277
 07D6:051A       loc_1827A
 07D6:051D       loc_1827D
 07D6:0520       loc_18280
 07D6:0523       loc_18283
 07D6:0526       loc_18286
 07D6:052A       loc_1828A
 07D6:0532       loc_18292
 07D6:0538       loc_18298
 07D6:0541       loc_182A1
 07D6:0545       loc_182A5
 07D6:0547       loc_182A7
 07D6:054A       loc_182AA
 07D6:054D       loc_182AD
 07D6:055C       loc_182BC
 07D6:0564       loc_182C4
 07D6:0569       loc_182C9
 07D6:0570       loc_182D0
 07D6:0577       loc_182D7
 07D6:057D       loc_182DD
 07D6:0580       loc_182E0
 07D6:0589       loc_182E9
 07D6:0592       loc_182F2
 07D6:0595       loc_182F5
 07D6:0598       loc_182F8
 07D6:059B       loc_182FB
 07D6:059F       loc_182FF
 07D6:05A0       loc_18300
 07D6:05A3       loc_18303
 07D6:05A6       loc_18306
 07D6:05BC       loc_1831C
 07D6:05BF       loc_1831F
 07D6:05C4       loc_18324
 07D6:05C9       loc_18329
 07D6:05CF       loc_1832F
 07D6:05D8       loc_18338
 07D6:05DB       loc_1833B
 07D6:05E0       loc_18340
 07D6:05E8       loc_18348
 07D6:05EA       loc_1834A
 07D6:05ED       loc_1834D
 07D6:05F5       loc_18355
 07D6:05F8       loc_18358
 07D6:05FB       loc_1835B
 07D6:05FE       loc_1835E
 07D6:0602       loc_18362
 07D6:0603       loc_18363
 07D6:060B       loc_1836B
 07D6:060F       loc_1836F
 07D6:0611       sub_18371
 07D6:0612       loc_18372
 07D6:0614       loc_18374
 07D6:0616       loc_18376
 07D6:0620       loc_18380
 07D6:0623       loc_18383
 07D6:0630       loc_18390
 07D6:0636       loc_18396
 07D6:063B       loc_1839B
 07D6:0641       loc_183A1
 07D6:0644       loc_183A4
 07D6:064E       loc_183AE
 07D6:065C       loc_183BC
 07D6:065F       loc_183BF
 07D6:0663       loc_183C3
 07D6:0666       loc_183C6
 07D6:066B       loc_183CB
 07D6:0672       sub_183D2
 07D6:0678       loc_183D8
 07D6:067A       loc_183DA
 07D6:0680       loc_183E0
 07D6:0689       loc_183E9
 07D6:068B       loc_183EB
 07D6:068F       loc_183EF
 07D6:06A0       loc_18400
 07D6:06A3       loc_18403
 07D6:06AC       loc_1840C
 07D6:06C0       loc_18420
 07D6:06DC       loc_1843C
 07D6:06E4       loc_18444
 07D6:06E9       locret_18449
 07D6:06EA       sub_1844A
 07D6:06F0       loc_18450
 07D6:06F1       loc_18451
 07D6:06FA       loc_1845A
 07D6:06FE       loc_1845E
 07D6:0706       loc_18466
 07D6:071D       loc_1847D
 07D6:0720       loc_18480
 07D6:0722       loc_18482
 07D6:072D       loc_1848D
 07D6:0733       loc_18493
 07D6:0741       loc_184A1
 07D6:0744       loc_184A4
 07D6:0747       loc_184A7
 07D6:074C       loc_184AC
 07D6:074D       loc_184AD
 07D6:075A       loc_184BA
 07D6:075E       sub_184BE
 07D6:0766       loc_184C6
 07D6:076C       loc_184CC
 07D6:0770       loc_184D0
 07D6:0772       loc_184D2
 07D6:0777       loc_184D7
 07D6:077D       loc_184DD
 07D6:0780       loc_184E0
 07D6:0783       loc_184E3
 07D6:0794       loc_184F4
 07D6:079A       loc_184FA
 07D6:079B       loc_184FB
 07D6:07A0       loc_18500
 07D6:07A6       loc_18506
 07D6:07AC       loc_1850C
 07D6:07C3       loc_18523
 07D6:07C7       loc_18527
 07D6:07CC       loc_1852C
 07D6:07D1       loc_18531
 07D6:07DD       loc_1853D
 07D6:07EB       loc_1854B
 07D6:07FA       loc_1855A
 07D6:0800       loc_18560
 07D6:0803       loc_18563
 07D6:080D       loc_1856D
 07D6:0818       locret_18578
 07D6:0819       sub_18579
 07D6:081C       loc_1857C
 07D6:081D       loc_1857D
 07D6:081E       loc_1857E
 07D6:0824       loc_18584
 07D6:082F       loc_1858F
 07D6:0836       loc_18596
 07D6:0839       loc_18599
 07D6:0844       loc_185A4
 07D6:0849       loc_185A9
 07D6:084E       loc_185AE
 07D6:0853       loc_185B3
 07D6:0856       loc_185B6
 07D6:0865       loc_185C5
 07D6:086E       loc_185CE
 07D6:0871       loc_185D1
 07D6:0874       loc_185D4
 07D6:0880       loc_185E0
 07D6:0886       loc_185E6
 07D6:088C       loc_185EC
 07D6:0899       loc_185F9
 07D6:089B       loc_185FB
 07D6:089E       loc_185FE
 07D6:08A4       loc_18604
 07D6:08AA       loc_1860A
 07D6:08B4       loc_18614
 07D6:08B9       loc_18619
 07D6:08BF       loc_1861F
 07D6:08C2       loc_18622
 07D6:08CC       loc_1862C
 07D6:08CE       loc_1862E
 07D6:08D1       off_18631
 07D6:08F3       DOS_PrintString
 07D6:08F4       loc_18654
 07D6:08F6       loc_18656
 07D6:08F7       loc_18657
 07D6:08FA       loc_1865A
 07D6:08FD       loc_1865D
 07D6:08FF       loc_1865F
 0866:0004       ST_SetVideoMode_VGA
 0866:0006       loc_18666
 0866:0008       loc_18668
 0866:000B       loc_1866B
 0866:000D       loc_1866D
 0866:0034       loc_18694
 0866:0035       loc_18695
 0866:0038       loc_18698
 0866:003A       loc_1869A
 0866:003C       loc_1869C
 0866:003D       loc_1869D
 0866:0040       loc_186A0
 0866:0046       loc_186A6
 086A:0008       word_186A8
 086A:000A       word_186AA
 086A:000C       word_186AC
 086A:000E       word_186AE
 086A:0010       word_186B0
 086A:0012       word_186B2
 086A:0014       word_186B4
 086A:0016       word_186B6
 086A:0018       word_186B8
 086A:001A       word_186BA
 086A:001C       idk_VGA_ScData_s186BC
 086A:003E       loc_186DE
 086A:007C       loc_1871C
 086A:008A       loc_1872A
 086A:00C0       loc_18760
 086A:00C6       loc_18766
 086A:00E2       loc_18782
 086A:00E8       loc_18788
 086A:0101       loc_187A1
 086A:010F       loc_187AF
 086A:0118       loc_187B8
 086A:0120       sub_187C0
 086A:0125       loc_187C5
 086A:0128       loc_187C8
 086A:012C       loc_187CC
 086A:012E       loc_187CE
 086A:0131       loc_187D1
 086A:0137       loc_187D7
 086A:013A       loc_187DA
 086A:013C       loc_187DC
 086A:013E       loc_187DE
 086A:0140       loc_187E0
 086A:0144       loc_187E4
 086A:0146       loc_187E6
 086A:014C       loc_187EC
 086A:015A       sub_187FA
 086A:015B       loc_187FB
 086A:015D       loc_187FD
 086A:0160       loc_18800
 086A:0164       loc_18804
 086A:016A       loc_1880A
 086A:0170       loc_18810
 086A:0174       loc_18814
 086A:017A       loc_1881A
 086A:0180       loc_18820
 086A:0183       loc_18823
 086A:0186       loc_18826
 086A:0189       loc_18829
 086A:018C       loc_1882C
 086A:0192       loc_18832
 086A:01A2       loc_18842
 086A:01A7       loc_18847
 086A:01AF       loc_1884F
 086A:01B9       loc_18859
 086A:01BB       loc_1885B
 086A:01BF       loc_1885F
 086A:01C1       loc_18861
 086A:01C5       loc_18865
 086A:01CB       loc_1886B
 086A:01CF       loc_1886F
 086A:01D2       loc_18872
 086A:01D9       loc_18879
 086A:01DF       loc_1887F
 086A:01E4       loc_18884
 086A:0200       loc_188A0
 086A:0206       loc_188A6
 086A:0208       loc_188A8
 086A:020D       loc_188AD
 086A:0215       loc_188B5
 086A:021F       loc_188BF
 086A:0224       loc_188C4
 086A:0230       loc_188D0
 086A:0233       loc_188D3
 086A:0237       loc_188D7
 086A:0238       loc_188D8
 086A:023D       loc_188DD
 086A:0240       loc_188E0
 086A:0242       loc_188E2
 086A:0245       loc_188E5
 086A:024A       loc_188EA
 086A:024E       loc_188EE
 086A:0253       loc_188F3
 086A:0256       loc_188F6
 086A:0259       loc_188F9
 086A:025F       loc_188FF
 086A:0263       sub_18903
 086A:0264       loc_18904
 086A:026A       loc_1890A
 086A:0270       loc_18910
 086A:027B       loc_1891B
 086A:027D       loc_1891D
 086A:0280       loc_18920
 086A:0286       loc_18926
 086A:028C       loc_1892C
 086A:028F       loc_1892F
 086A:0292       loc_18932
 086A:0295       loc_18935
 086A:0298       loc_18938
 086A:02A2       loc_18942
 086A:02AB       loc_1894B
 086A:02B0       loc_18950
 086A:02B4       loc_18954
 086A:02B5       loc_18955
 086A:02B8       loc_18958
 086A:02BE       loc_1895E
 086A:02C0       loc_18960
 086A:02C2       loc_18962
 086A:02CA       loc_1896A
 086A:02CE       loc_1896E
 086A:02D4       loc_18974
 086A:02D9       loc_18979
 086A:02DB       loc_1897B
 086A:02E2       loc_18982
 086A:02ED       loc_1898D
 086A:02F5       loc_18995
 086A:02F8       loc_18998
 086A:0300       loc_189A0
 086A:0302       loc_189A2
 086A:0306       loc_189A6
 086A:030A       loc_189AA
 086A:030F       loc_189AF
 086A:0317       loc_189B7
 086A:031D       loc_189BD
 086A:031F       loc_189BF
 086A:0324       loc_189C4
 086A:0330       loc_189D0
 086A:0333       loc_189D3
 086A:033F       loc_189DF
 086A:0344       loc_189E4
 086A:034A       loc_189EA
 086A:035B       loc_189FB
 086A:0360       loc_18A00
 086A:0363       loc_18A03
 086A:0370       loc_18A10
 086A:0371       loc_18A11
 086A:0375       loc_18A15
 086A:0380       loc_18A20
 086A:0384       locret_18A24
 086A:0385       sub_18A25
 086A:038D       loc_18A2D
 086A:039A       loc_18A3A
 086A:039C       loc_18A3C
 086A:03A2       loc_18A42
 086A:03A4       loc_18A44
 086A:03A8       loc_18A48
 086A:03B0       loc_18A50
 086A:03B2       loc_18A52
 086A:03B3       loc_18A53
 086A:03B8       loc_18A58
 086A:03BC       sub_18A5C
 086A:03BD       loc_18A5D
 086A:03BF       loc_18A5F
 086A:03C4       loc_18A64
 086A:03C5       loc_18A65
 086A:03CE       loc_18A6E
 086A:03D9       loc_18A79
 086A:03E6       loc_18A86
 086A:03F0       loc_18A90
 086A:0402       loc_18AA2
 086A:0418       loc_18AB8
 086A:042A       loc_18ACA
 086A:042E       loc_18ACE
 086A:0434       loc_18AD4
 086A:0438       loc_18AD8
 086A:043C       loc_18ADC
 086A:0440       loc_18AE0
 086A:0445       loc_18AE5
 086A:0457       loc_18AF7
 086A:045F       loc_18AFF
 086A:0462       loc_18B02
 086A:0465       loc_18B05
 086A:046B       loc_18B0B
 086A:046D       loc_18B0D
 086A:0470       loc_18B10
 086A:047D       loc_18B1D
 086A:0480       loc_18B20
 086A:0486       loc_18B26
 086A:0489       loc_18B29
 086A:048C       loc_18B2C
 086A:0492       loc_18B32
 086A:0495       loc_18B35
 086A:04A8       loc_18B48
 086A:04B2       loc_18B52
 086A:04BF       loc_18B5F
 086A:04C8       locret_18B68
 086A:04C9       sub_18B69
 086A:04D1       loc_18B71
 086A:04D4       loc_18B74
 086A:04E0       loc_18B80
 086A:04EA       loc_18B8A
 086A:04FC       loc_18B9C
 086A:0502       sub_18BA2
 086A:0513       loc_18BB3
 086A:052F       loc_18BCF
 086A:0543       loc_18BE3
 086A:0549       loc_18BE9
 086A:0550       loc_18BF0
 086A:055F       loc_18BFF
 086A:0564       loc_18C04
 086A:0569       loc_18C09
 086A:056E       loc_18C0E
 086A:0573       loc_18C13
 086A:057C       loc_18C1C
 086A:057E       loc_18C1E
 086A:0581       loc_18C21
 086A:0586       loc_18C26
 086A:0588       loc_18C28
 086A:058D       loc_18C2D
 086A:0592       loc_18C32
 086A:0597       loc_18C37
 086A:059A       loc_18C3A
 086A:059C       loc_18C3C
 086A:05A2       loc_18C42
 086A:05A6       loc_18C46
 086A:05AC       loc_18C4C
 086A:05AE       loc_18C4E
 086A:05C5       loc_18C65
 086A:05C7       loc_18C67
 086A:05DC       loc_18C7C
 086A:05F2       loc_18C92
 086A:05F8       loc_18C98
 086A:05FC       loc_18C9C
 086A:05FE       loc_18C9E
 086A:060A       loc_18CAA
 086A:0617       loc_18CB7
 086A:0622       loc_18CC2
 086A:0628       loc_18CC8
 086A:062F       loc_18CCF
 086A:0636       loc_18CD6
 086A:063B       loc_18CDB
 086A:064A       loc_18CEA
 086A:064C       loc_18CEC
 086A:064F       loc_18CEF
 086A:065E       loc_18CFE
 086A:0665       loc_18D05
 086A:0674       loc_18D14
 086A:0675       loc_18D15
 086A:0679       loc_18D19
 086A:067E       loc_18D1E
 086A:0680       loc_18D20
 086A:0688       loc_18D28
 086A:0694       loc_18D34
 086A:0696       loc_18D36
 086A:06AF       loc_18D4F
 086A:06C0       loc_18D60
 086A:06C2       loc_18D62
 086A:06C3       loc_18D63
 086A:06C8       loc_18D68
 086A:06DE       loc_18D7E
 086A:06E0       loc_18D80
 086A:06EC       loc_18D8C
 086A:06F0       loc_18D90
 086A:06F7       loc_18D97
 086A:06F9       loc_18D99
 086A:06FF       idk_VidPalFnt_s18D9F
 086A:071F       loc_18DBF
 086A:0784       loc_18E24
 086A:078E       loc_18E2E
 086A:0798       loc_18E38
 086A:07A2       loc_18E42
 086A:07AC       loc_18E4C
 086A:07C6       loc_18E66
 086A:07CB       loc_18E6B
 086A:07D0       loc_18E70
 086A:081F       loc_18EBF
 086A:0829       loc_18EC9
 086A:082B       loc_18ECB
 086A:0844       loc_18EE4
 086A:084B       loc_18EEB
 086A:0877       loc_18F17
 086A:0879       loc_18F19
 086A:0892       loc_18F32
 086A:08C1       loc_18F61
 086A:08C3       loc_18F63
 086A:08DC       loc_18F7C
 086A:0901       loc_18FA1
 086A:090B       loc_18FAB
 086A:090D       loc_18FAD
 086A:0926       loc_18FC6
 086A:092C       sub_18FCC
 086A:092F       loc_18FCF
 086A:0932       loc_18FD2
 086A:0933       loc_18FD3
 086A:0936       loc_18FD6
 086A:093B       loc_18FDB
 086A:0959       loc_18FF9
 086A:095C       loc_18FFC
 086A:095D       loc_18FFD
 086A:0960       loc_19000
 086A:0965       loc_19005
 086A:097E       loc_1901E
 086A:0984       loc_19024
 086A:09A0       loc_19040
 086A:09A7       loc_19047
 086A:09AC       loc_1904C
 086A:09AE       loc_1904E
 086A:09B0       loc_19050
 086A:09B6       loc_19056
 086A:09B9       loc_19059
 086A:09C0       loc_19060
 086A:09C7       loc_19067
 086A:09CD       loc_1906D
 086A:09D4       loc_19074
 086A:09D7       loc_19077
 086A:09DA       loc_1907A
 086A:09DF       loc_1907F
 086A:09EA       loc_1908A
 086A:09F5       loc_19095
 086A:09FA       loc_1909A
 086A:09FF       loc_1909F
 086A:0A04       loc_190A4
 086A:0A0F       loc_190AF
 086A:0A16       sub_190B6
 086A:0A19       loc_190B9
 086A:0A1C       loc_190BC
 086A:0A27       loc_190C7
 086A:0A2A       loc_190CA
 086A:0A2D       loc_190CD
 086A:0A30       loc_190D0
 086A:0A3A       loc_190DA
 086A:0A4A       loc_190EA
 086A:0A4F       loc_190EF
 086A:0A60       loc_19100
 086A:0A73       loc_19113
 086A:0A7B       loc_1911B
 086A:0A80       loc_19120
 086A:0A8C       loc_1912C
 086A:0A8E       loc_1912E
 086A:0AA8       loc_19148
 086A:0ABF       loc_1915F
 086A:0AC5       loc_19165
 086A:0AC8       loc_19168
 086A:0ACD       loc_1916D
 086A:0AD4       loc_19174
 086A:0AD8       loc_19178
 086A:0ADF       loc_1917F
 086A:0AF2       loc_19192
 086A:0AF5       loc_19195
 086A:0B06       loc_191A6
 086A:0B08       loc_191A8
 086A:0B0E       loc_191AE
 086A:0B14       loc_191B4
 086A:0B19       loc_191B9
 086A:0B1C       loc_191BC
 086A:0B20       loc_191C0
 086A:0B24       loc_191C4
 086A:0B27       loc_191C7
 086A:0B2A       loc_191CA
 086A:0B2D       loc_191CD
 086A:0B2F       loc_191CF
 086A:0B31       loc_191D1
 086A:0B40       loc_191E0
 086A:0B45       loc_191E5
 086A:0B4B       loc_191EB
 086A:0B4E       loc_191EE
 086A:0B56       loc_191F6
 086A:0B59       loc_191F9
 086A:0B60       loc_19200
 086A:0B61       loc_19201
 086A:0B65       loc_19205
 086A:0B68       loc_19208
 086A:0B6C       loc_1920C
 086A:0B6E       loc_1920E
 086A:0B70       loc_19210
 086A:0B73       loc_19213
 086A:0B76       loc_19216
 086A:0B77       loc_19217
 086A:0B7A       loc_1921A
 086A:0B7D       loc_1921D
 086A:0B7F       loc_1921F
 086A:0B80       loc_19220
 086A:0B82       loc_19222
 086A:0B83       loc_19223
 086A:0B84       loc_19224
 086A:0B85       loc_19225
 086A:0B86       loc_19226
 086A:0B88       loc_19228
 086A:0B89       locret_19229
 0922:000A       sub_1922A
 0922:000B       loc_1922B
 0922:000D       loc_1922D
 0922:0037       sub_19257
 0922:003A       loc_1925A
 0922:003D       loc_1925D
 0922:0040       loc_19260
 0922:0043       loc_19263
 0922:0046       loc_19266
 0922:004B       loc_1926B
 0922:004E       loc_1926E
 0922:0052       loc_19272
 0922:0056       loc_19276
 0922:005A       loc_1927A
 0922:005F       loc_1927F
 0922:0064       sub_19284
 0922:0065       loc_19285
 0922:0067       loc_19287
 0922:006A       loc_1928A
 0922:0070       loc_19290
 0922:0078       loc_19298
 0922:007B       loc_1929B
 0922:007F       loc_1929F
 0922:0083       loc_192A3
 0922:0087       loc_192A7
 0922:008C       loc_192AC
 0922:008F       loc_192AF
 0922:0091       sub_192B1
 0922:0092       loc_192B2
 0922:0094       loc_192B4
 0922:0097       loc_192B7
 0922:009A       loc_192BA
 0922:009D       loc_192BD
 0922:00A5       loc_192C5
 0922:00A8       loc_192C8
 0922:00AB       loc_192CB
 0922:00AC       loc_192CC
 0922:00B0       loc_192D0
 0922:00B4       loc_192D4
 0922:00B9       loc_192D9
 0922:00BE       sub_192DE
 0922:00BF       loc_192DF
 0922:00C7       loc_192E7
 0922:00D5       loc_192F5
 0922:00D9       loc_192F9
 0922:00DD       loc_192FD
 0922:00E1       loc_19301
 0922:00E6       loc_19306
 0922:00EB       idk_SetConfigMomFlagValue_s1930B
 0922:00F6       sub_19316
 0922:00F7       loc_19317
 0922:00F9       loc_19319
 0922:00FD       loc_1931D
 0922:0101       loc_19321
 0922:011E       sub_1933E
 0922:0121       loc_19341
 0922:0124       loc_19344
 0922:0128       loc_19348
 0922:0136       sub_19356
 0922:013F       loc_1935F
 0922:0140       loc_19360
 0922:014E       sub_1936E
 0922:0156       loc_19376
 0922:0159       loc_19379
 0922:015B       loc_1937B
 0922:015E       loc_1937E
 0922:015F       loc_1937F
 0922:0161       loc_19381
 0922:0163       loc_19383
 0922:0164       loc_19384
 0922:016D       loc_1938D
 0922:0171       loc_19391
 0922:0179       sub_19399
 0922:0189       loc_193A9
 0922:01A5       loc_193C5
 0922:01BD       sub_193DD
 0922:01C0       loc_193E0
 0922:01C8       loc_193E8
 0922:01D1       loc_193F1
 0922:01D2       loc_193F2
 0922:01D9       loc_193F9
 0922:01DD       loc_193FD
 0922:01E5       loc_19405
 0922:01E6       loc_19406
 0922:01EF       loc_1940F
 0922:01F3       loc_19413
 0922:01F8       loc_19418
 0922:01FB       loc_1941B
 0922:01FC       loc_1941C
 0922:0200       loc_19420
 0922:020C       loc_1942C
 0922:021E       loc_1943E
 0922:0226       loc_19446
 0922:0234       sub_19454
 0922:023C       loc_1945C
 0922:0240       loc_19460
 0922:0247       loc_19467
 0922:0253       loc_19473
 0922:0258       loc_19478
 0922:025A       loc_1947A
 0922:025F       loc_1947F
 0922:0269       loc_19489
 0922:026D       loc_1948D
 0922:0271       loc_19491
 0922:027E       loc_1949E
 0922:027F       loc_1949F
 0922:0288       loc_194A8
 0922:028D       loc_194AD
 0922:0291       loc_194B1
 0922:02A2       sub_194C2
 0922:02A3       loc_194C3
 0922:02AA       loc_194CA
 0922:02BB       loc_194DB
 0922:02C4       loc_194E4
 0922:02CE       loc_194EE
 0922:02D1       loc_194F1
 0922:02E0       loc_19500
 0922:02E6       loc_19506
 0922:02FF       loc_1951F
 0922:0304       loc_19524
 0922:0307       loc_19527
 0922:030A       loc_1952A
 0922:030F       loc_1952F
 0922:0310       loc_19530
 0922:0314       loc_19534
 0922:0319       loc_19539
 0922:031F       sub_1953F
 0922:0334       loc_19554
 0922:033E       loc_1955E
 0922:0349       loc_19569
 0922:034B       sub_1956B
 0922:034E       loc_1956E
 0922:0366       loc_19586
 0922:0367       loc_19587
 0922:0377       sub_19597
 0922:0380       loc_195A0
 0922:038F       loc_195AF
 0922:0399       loc_195B9
 0922:03A3       sub_195C3
 0922:03BF       loc_195DF
 0922:03C2       loc_195E2
 0922:03C5       loc_195E5
 0922:03CE       locret_195EE
 0922:03CF       sub_195EF
 0922:03D0       loc_195F0
 0922:03DA       loc_195FA
 0922:03E4       loc_19604
 0922:03E7       loc_19607
 0922:03EE       loc_1960E
 0922:03F1       loc_19611
 0922:03FB       sub_1961B
 0922:041F       loc_1963F
 0922:0427       sub_19647
 0922:042D       loc_1964D
 0922:0440       loc_19660
 0922:044A       loc_1966A
 0922:0452       loc_19672
 0922:045E       sub_1967E
 0922:046C       loc_1968C
 0922:046F       loc_1968F
 0922:047E       loc_1969E
 0922:048F       loc_196AF
 0922:0498       sub_196B8
 0922:04AE       loc_196CE
 0922:04C0       loc_196E0
 0922:04C8       loc_196E8
 0922:04C9       loc_196E9
 0922:04CD       sub_196ED
 0922:0508       sub_19728
 0922:051E       loc_1973E
 0922:052C       loc_1974C
 0922:053E       sub_1975E
 0922:053F       loc_1975F
 0922:056E       loc_1978E
 0922:0574       sub_19794
 0922:057A       loc_1979A
 0922:0590       loc_197B0
 0922:05AC       locret_197CC
 0922:05AD       sub_197CD
 0922:05AE       loc_197CE
 0922:05D0       loc_197F0
 0922:05DB       loc_197FB
 0922:05E0       loc_19800
 0922:05E4       sub_19804
 0922:05EA       loc_1980A
 0922:060A       loc_1982A
 0922:060C       loc_1982C
 0922:060F       loc_1982F
 0922:061E       sub_1983E
 0922:061F       loc_1983F
 0922:063A       loc_1985A
 0922:0640       loc_19860
 0922:0643       loc_19863
 0922:064F       loc_1986F
 0922:0653       sub_19873
 0922:065A       loc_1987A
 0922:0676       loc_19896
 0922:0689       loc_198A9
 0922:068E       sub_198AE
 0922:068F       loc_198AF
 0922:0698       loc_198B8
 0922:06A4       loc_198C4
 0922:06AE       loc_198CE
 0922:06C4       sub_198E4
 0922:06D1       loc_198F1
 0922:06D2       loc_198F2
 0922:06E0       loc_19900
 0922:06EB       loc_1990B
 0922:06EE       loc_1990E
 0922:06FD       sub_1991D
 0922:0700       loc_19920
 0922:0704       loc_19924
 0922:0706       loc_19926
 0922:070A       loc_1992A
 0922:070E       loc_1992E
 0922:071F       sub_1993F
 0922:0738       sub_19958
 0922:0761       loc_19981
 0922:0768       loc_19988
 0922:077E       loc_1999E
 0922:0790       loc_199B0
 0922:07A6       loc_199C6
 0922:07B9       loc_199D9
 0922:07BF       loc_199DF
 0922:07CF       loc_199EF
 0922:07D2       loc_199F2
 0922:07D5       loc_199F5
 0922:07DB       loc_199FB
 0922:07EB       loc_19A0B
 0922:07F4       loc_19A14
 0922:0800       loc_19A20
 0922:080A       loc_19A2A
 0922:081D       loc_19A3D
 0922:0820       loc_19A40
 0922:0826       loc_19A46
 0922:082C       loc_19A4C
 0922:0830       loc_19A50
 0922:0832       loc_19A52
 0922:0840       loc_19A60
 0922:0860       loc_19A80
 0922:0885       loc_19AA5
 0922:08BD       loc_19ADD
 0922:08E0       loc_19B00
 0922:08F3       loc_19B13
 0922:0902       loc_19B22
 0922:0909       loc_19B29
 0922:091D       loc_19B3D
 0922:0928       locret_19B48
 0922:0929       ILSe_display_text
 0922:0937       loc_19B57
 0922:093F       loc_19B5F
 0922:094F       loc_19B6F
 0922:095E       loc_19B7E
 0922:0963       loc_19B83
 0922:0965       loc_19B85
 0922:096D       loc_19B8D
 0922:0970       loc_19B90
 0922:0973       loc_19B93
 0922:0996       loc_19BB6
 0922:09A1       loc_19BC1
 0922:09A3       loc_19BC3
 0922:09A7       loc_19BC7
 0922:09AB       loc_19BCB
 0922:09AC       loc_19BCC
 0922:09BC       loc_19BDC
 0922:09CE       loc_19BEE
 0922:09D1       loc_19BF1
 0922:09DD       loc_19BFD
 0922:09EC       loc_19C0C
 0922:09F0       loc_19C10
 0922:09FB       loc_19C1B
 0922:09FE       loc_19C1E
 0922:0A04       loc_19C24
 0922:0A09       loc_19C29
 0922:0A0C       loc_19C2C
 0922:0A17       loc_19C37
 0922:0A1A       loc_19C3A
 0922:0A25       loc_19C45
 0922:0A28       loc_19C48
 0922:0A43       loc_19C63
 0922:0A5B       loc_19C7B
 0922:0A60       loc_19C80
 0922:0A79       loc_19C99
 0922:0A89       loc_19CA9
 0922:0AA8       loc_19CC8
 0922:0AAC       loc_19CCC
 0922:0AAF       loc_19CCF
 0922:0AB1       loc_19CD1
 0922:0AB4       loc_19CD4
 0922:0AB7       loc_19CD7
 0922:0ABA       loc_19CDA
 0922:0ABF       loc_19CDF
 0922:0AC4       loc_19CE4
 0922:0AC6       loc_19CE6
 0922:0ACD       word_19CED
 0922:0ADF       off_19CFF
 0922:0AF1       sub_19D11
 0922:0AFC       sub_19D1C
 0922:0B0A       sub_19D2A
 0922:0B11       loc_19D31
 0922:0B15       loc_19D35
 0922:0B21       loc_19D41
 0922:0B25       loc_19D45
 0922:0B28       loc_19D48
 0922:0B30       locret_19D50
 0922:0B31       sub_19D51
 0922:0B38       loc_19D58
 0922:0B4C       loc_19D6C
 0922:0B4F       loc_19D6F
 0922:0B50       loc_19D70
 0922:0B52       loc_19D72
 0922:0B58       sub_19D78
 0922:0B5F       loc_19D7F
 0922:0B73       loc_19D93
 0922:0B75       loc_19D95
 0922:0B86       loc_19DA6
 0922:0B95       loc_19DB5
 0922:0BAF       loc_19DCF
 0922:0BB1       sub_19DD1
 0922:0BB7       loc_19DD7
 0922:0BCA       loc_19DEA
 0922:0BCE       loc_19DEE
 0922:0BCF       loc_19DEF
 0922:0BF3       loc_19E13
 0922:0C14       loc_19E34
 0922:0C19       loc_19E39
 0922:0C21       loc_19E41
 0922:0C28       loc_19E48
 0922:0C35       loc_19E55
 0922:0C48       loc_19E68
 0922:0C4D       locret_19E6D
 0922:0C4E       sub_19E6E
 0922:0C4F       loc_19E6F
 0922:0C5F       loc_19E7F
 0922:0C70       loc_19E90
 0922:0C72       sub_19E92
 0922:0C73       loc_19E93
 0922:0C7A       loc_19E9A
 0922:0C83       loc_19EA3
 0922:0C89       loc_19EA9
 0922:0CAA       loc_19ECA
 0922:0CAC       sub_19ECC
 0922:0CBC       loc_19EDC
 0922:0CC0       loc_19EE0
 0922:0CCB       loc_19EEB
 0922:0CD0       loc_19EF0
 0922:0CDF       loc_19EFF
 0922:0CE5       loc_19F05
 0922:0CE9       sub_19F09
 0922:0CFD       loc_19F1D
 0922:0D10       loc_19F30
 0922:0D25       loc_19F45
 0922:0D29       sub_19F49
 0922:0D2C       loc_19F4C
 0922:0D3D       loc_19F5D
 0922:0D53       loc_19F73
 0922:0D5B       loc_19F7B
 0922:0D70       loc_19F90
 0922:0D74       sub_19F94
 0922:0D75       loc_19F95
 0922:0D8A       loc_19FAA
 0922:0D9A       loc_19FBA
 0922:0DA6       loc_19FC6
 0922:0DB2       loc_19FD2
 0922:0DB5       loc_19FD5
 0922:0DBC       loc_19FDC
 0922:0DBD       loc_19FDD
 0922:0DCE       loc_19FEE
 0922:0DEC       loc_1A00C
 0922:0DED       loc_1A00D
 0922:0DFA       loc_1A01A
 0922:0DFC       loc_1A01C
 0922:0E08       loc_1A028
 0922:0E10       loc_1A030
 0922:0E2C       loc_1A04C
 0922:0E44       loc_1A064
 0922:0E48       loc_1A068
 0922:0E4E       loc_1A06E
 0922:0E4F       loc_1A06F
 0922:0E53       loc_1A073
 0922:0E74       loc_1A094
 0922:0E79       loc_1A099
 0922:0E83       loc_1A0A3
 0922:0E86       loc_1A0A6
 0922:0E8C       loc_1A0AC
 0922:0E9B       loc_1A0BB
 0922:0EA6       loc_1A0C6
 0922:0EA9       loc_1A0C9
 0922:0EB6       loc_1A0D6
 0922:0EBC       sub_1A0DC
 0922:0ECA       loc_1A0EA
 0922:0ECE       loc_1A0EE
 0922:0ED2       loc_1A0F2
 0922:0ED9       loc_1A0F9
 0922:0EE0       loc_1A100
 0922:0EE5       loc_1A105
 0922:0EEC       loc_1A10C
 0922:0F02       loc_1A122
 0922:0F08       loc_1A128
 0922:0F0C       loc_1A12C
 0922:0F10       loc_1A130
 0922:0F11       loc_1A131
 0922:0F1E       loc_1A13E
 0922:0F2A       loc_1A14A
 0922:0F2C       loc_1A14C
 0922:0F2F       loc_1A14F
 0922:0F31       loc_1A151
 0922:0F34       loc_1A154
 0922:0F4A       loc_1A16A
 0922:0F4E       loc_1A16E
 0922:0F50       loc_1A170
 0922:0F54       loc_1A174
 0922:0F59       loc_1A179
 0922:0F60       loc_1A180
 0922:0F63       loc_1A183
 0922:0F6C       loc_1A18C
 0922:0F78       loc_1A198
 0922:0F7C       loc_1A19C
 0922:0F85       loc_1A1A5
 0922:0F8B       loc_1A1AB
 0922:0F92       loc_1A1B2
 0922:0F9E       loc_1A1BE
 0922:0FA6       loc_1A1C6
 0922:0FAC       loc_1A1CC
 0922:0FB2       loc_1A1D2
 0922:0FC6       loc_1A1E6
 0922:0FC7       loc_1A1E7
 0922:0FCA       loc_1A1EA
 0922:0FD0       loc_1A1F0
 0922:0FD3       loc_1A1F3
 0922:0FD8       loc_1A1F8
 0922:0FDA       loc_1A1FA
 0922:0FE0       loc_1A200
 0922:0FE8       loc_1A208
 0922:0FEC       loc_1A20C
 0922:0FF4       loc_1A214
 0922:0FFE       loc_1A21E
 0922:100A       loc_1A22A
 0922:101A       loc_1A23A
 0922:1029       loc_1A249
 0922:102C       loc_1A24C
 0922:102F       loc_1A24F
 0922:1035       loc_1A255
 0922:104A       loc_1A26A
 0922:104D       loc_1A26D
 0922:1052       loc_1A272
 0922:105F       loc_1A27F
 0922:1068       loc_1A288
 0922:1076       sub_1A296
 0922:1077       loc_1A297
 0922:107C       loc_1A29C
 0922:107D       loc_1A29D
 0922:108D       loc_1A2AD
 0922:1090       loc_1A2B0
 0922:1096       loc_1A2B6
 0922:10A5       loc_1A2C5
 0922:10AE       loc_1A2CE
 0922:10B0       loc_1A2D0
 0922:10B3       loc_1A2D3
 0922:10C1       loc_1A2E1
 0922:10C7       loc_1A2E7
 0922:10C9       loc_1A2E9
 0922:10CB       loc_1A2EB
 0922:10D4       loc_1A2F4
 0922:10D9       loc_1A2F9
 0922:10E0       loc_1A300
 0922:10E9       loc_1A309
 0922:10EB       loc_1A30B
 0922:10EE       loc_1A30E
 0922:10F7       loc_1A317
 0922:1106       loc_1A326
 0922:110A       loc_1A32A
 0922:1112       loc_1A332
 0922:1114       loc_1A334
 0922:111C       loc_1A33C
 0922:111E       loc_1A33E
 0922:1126       loc_1A346
 0922:1128       loc_1A348
 0922:1130       loc_1A350
 0922:1132       loc_1A352
 0922:1134       loc_1A354
 0922:114C       loc_1A36C
 0922:114F       loc_1A36F
 0922:115F       loc_1A37F
 0922:1165       loc_1A385
 0922:1167       loc_1A387
 0922:116B       word_1A38B
 0922:117D       off_1A39D
 0922:118F       sub_1A3AF
 0922:1190       loc_1A3B0
 0922:1196       loc_1A3B6
 0922:11A0       loc_1A3C0
 0922:11A6       loc_1A3C6
 0922:11AC       loc_1A3CC
 0922:11B2       loc_1A3D2
 0922:11B4       loc_1A3D4
 0922:11B7       loc_1A3D7
 0922:11BB       loc_1A3DB
 0922:11D5       loc_1A3F5
 0922:1201       loc_1A421
 0922:120A       loc_1A42A
 0922:120F       loc_1A42F
 0922:122D       loc_1A44D
 0922:1239       loc_1A459
 0922:123E       loc_1A45E
 0922:1243       loc_1A463
 0922:124F       loc_1A46F
 0922:125A       loc_1A47A
 0922:126C       loc_1A48C
 0922:126E       loc_1A48E
 0922:1273       loc_1A493
 0922:1286       loc_1A4A6
 0922:1289       loc_1A4A9
 0922:129B       loc_1A4BB
 0922:129D       loc_1A4BD
 0922:12A5       loc_1A4C5
 0922:12A8       loc_1A4C8
 0922:12AB       loc_1A4CB
 0922:12AC       loc_1A4CC
 0922:12AD       loc_1A4CD
 0922:12AF       loc_1A4CF
 0922:12B1       sub_1A4D1
 0922:12B4       loc_1A4D4
 0922:12C0       loc_1A4E0
 0922:12C6       sub_1A4E6
 0922:12D5       loc_1A4F5
 0922:12DB       sub_1A4FB
 0922:12DE       loc_1A4FE
 0922:12EA       loc_1A50A
 0922:12EC       loc_1A50C
 0922:12EF       locret_1A50F
 0922:12F0       sub_1A510
 0922:12F1       loc_1A511
 0922:12F6       loc_1A516
 0922:12F9       loc_1A519
 0922:1301       loc_1A521
 0922:1305       sub_1A525
 0922:1314       loc_1A534
 0922:1322       sub_1A542
 0922:1338       loc_1A558
 0922:133C       loc_1A55C
 0922:134A       loc_1A56A
 0922:134D       loc_1A56D
 0922:1350       loc_1A570
 0922:1356       sub_1A576
 0922:1366       loc_1A586
 0922:1368       loc_1A588
 0922:136B       loc_1A58B
 0922:1375       loc_1A595
 0922:1379       loc_1A599
 0922:1383       loc_1A5A3
 0922:138A       loc_1A5AA
 0922:1394       loc_1A5B4
 0922:1396       loc_1A5B6
 0922:139B       loc_1A5BB
 0922:139C       loc_1A5BC
 0922:139E       loc_1A5BE
 0922:13A3       loc_1A5C3
 0922:13AC       loc_1A5CC
 0922:13AF       loc_1A5CF
 0922:13B0       loc_1A5D0
 0922:13B5       sub_1A5D5
 0922:13D1       sub_1A5F1
 0922:13D2       loc_1A5F2
 0922:13DC       loc_1A5FC
 0922:13DF       loc_1A5FF
 0922:13EE       loc_1A60E
 0922:13FA       loc_1A61A
 0922:13FF       loc_1A61F
 0922:1401       loc_1A621
 0922:1411       loc_1A631
 0922:1417       loc_1A637
 0922:1423       loc_1A643
 0922:1429       loc_1A649
 0922:142C       loc_1A64C
 0922:1431       loc_1A651
 0922:1450       loc_1A670
 0922:1455       loc_1A675
 0922:1458       loc_1A678
 0922:1471       loc_1A691
 0922:14B5       loc_1A6D5
 0922:14CB       loc_1A6EB
 0922:14D7       loc_1A6F7
 0922:14F7       loc_1A717
 0922:150F       loc_1A72F
 0922:1527       loc_1A747
 0922:152A       loc_1A74A
 0922:1533       loc_1A753
 0922:1549       loc_1A769
 0922:155E       loc_1A77E
 0922:1568       loc_1A788
 0922:156B       loc_1A78B
 0922:156E       loc_1A78E
 0922:1571       loc_1A791
 0922:1575       loc_1A795
 0922:1595       loc_1A7B5
 0922:15AD       loc_1A7CD
 0922:15BA       loc_1A7DA
 0922:15BE       loc_1A7DE
 0922:15C2       loc_1A7E2
 0922:15CC       loc_1A7EC
 0922:15DF       sub_1A7FF
 0922:15ED       loc_1A80D
 0922:15F2       loc_1A812
 0922:15F5       loc_1A815
 0922:15FB       loc_1A81B
 0922:15FE       loc_1A81E
 0922:1600       loc_1A820
 0922:1605       loc_1A825
 0922:160F       loc_1A82F
 0922:161B       loc_1A83B
 0922:1626       loc_1A846
 0922:1629       loc_1A849
 0922:162F       loc_1A84F
 0922:1634       loc_1A854
 0922:163C       loc_1A85C
 0922:164F       loc_1A86F
 0922:1659       loc_1A879
 0922:1661       loc_1A881
 0922:1662       loc_1A882
 0922:1672       loc_1A892
 0922:167E       loc_1A89E
 0922:1684       loc_1A8A4
 0922:1687       loc_1A8A7
 0922:1693       loc_1A8B3
 0922:16A2       loc_1A8C2
 0922:16A6       loc_1A8C6
 0922:16B0       loc_1A8D0
 0922:16B3       loc_1A8D3
 0922:16B7       loc_1A8D7
 0922:16BD       loc_1A8DD
 0922:16C0       loc_1A8E0
 0922:16CA       loc_1A8EA
 0922:16CD       loc_1A8ED
 0922:16D7       loc_1A8F7
 0922:16D9       loc_1A8F9
 0922:16F4       loc_1A914
 0922:1703       loc_1A923
 0922:170C       loc_1A92C
 0922:1711       loc_1A931
 0922:172E       loc_1A94E
 0922:1747       loc_1A967
 0922:174A       loc_1A96A
 0922:174C       loc_1A96C
 0922:174F       loc_1A96F
 0922:1758       loc_1A978
 0922:175F       loc_1A97F
 0922:1761       loc_1A981
 0922:1768       word_1A988
 0922:1778       off_1A998
 0922:1788       sub_1A9A8
 0922:178E       loc_1A9AE
 0922:17BF       sub_1A9DF
 0922:17D0       loc_1A9F0
 0922:17D3       loc_1A9F3
 0922:17DA       loc_1A9FA
 0922:17DE       loc_1A9FE
 0922:17FC       sub_1AA1C
 0922:1809       loc_1AA29
 0922:1817       loc_1AA37
 0922:1820       sub_1AA40
 0922:1829       loc_1AA49
 0922:1842       loc_1AA62
 0922:184E       sub_1AA6E
 0922:1857       loc_1AA77
 0922:1869       loc_1AA89
 0922:187C       sub_1AA9C
 0922:1891       loc_1AAB1
 0922:189E       loc_1AABE
 0922:18AA       sub_1AACA
 0922:18B3       loc_1AAD3
 0922:18B6       loc_1AAD6
 0922:18BA       loc_1AADA
 0922:18C2       loc_1AAE2
 0922:18C5       loc_1AAE5
 0922:18C8       loc_1AAE8
 0922:18CC       loc_1AAEC
 0922:18CF       loc_1AAEF
 0922:18D2       loc_1AAF2
 0922:18D3       loc_1AAF3
 0922:18D6       loc_1AAF6
 0922:18D9       loc_1AAF9
 0922:18DA       locret_1AAFA
 0AAF:000C       word_1AAFC
 0AAF:000E       word_1AAFE
 0AAF:0010       word_1AB00
 0AAF:0012       word_1AB02
 0AAF:0014       word_1AB04
 0AAF:0016       word_1AB06
 0AAF:0018       word_1AB08
 0AAF:001A       word_1AB0A
 0AAF:001C       word_1AB0C
 0AAF:001E       word_1AB0E
 0AAF:0020       word_1AB10
 0AAF:0022       word_1AB12
 0AAF:0024       byte_1AB14
 0AAF:0074       idk_PalFnt_s1AB64
 0AAF:0089       loc_1AB79
 0AAF:0094       loc_1AB84
 0AAF:0097       loc_1AB87
 0AAF:00A5       loc_1AB95
 0AAF:01BA       sub_1ACAA
 0AAF:01D0       loc_1ACC0
 0AAF:01E5       loc_1ACD5
 0AAF:01FD       loc_1ACED
 0AAF:0220       loc_1AD10
 0AAF:0222       loc_1AD12
 0AAF:022E       sub_1AD1E
 0AAF:0238       loc_1AD28
 0AAF:0247       loc_1AD37
 0AAF:025F       loc_1AD4F
 0AAF:027C       loc_1AD6C
 0AAF:0296       loc_1AD86
 0AAF:02A2       sub_1AD92
 0AAF:02AC       loc_1AD9C
 0AAF:02B8       loc_1ADA8
 0AAF:02BC       loc_1ADAC
 0AAF:02C8       loc_1ADB8
 0AAF:02CA       loc_1ADBA
 0AAF:02CD       loc_1ADBD
 0AAF:02CF       loc_1ADBF
 0AAF:02D2       loc_1ADC2
 0AAF:02FD       loc_1ADED
 0AAF:0302       loc_1ADF2
 0AAF:0308       loc_1ADF8
 0AAF:030C       loc_1ADFC
 0AAF:0311       loc_1AE01
 0AAF:0321       loc_1AE11
 0AAF:0338       loc_1AE28
 0AAF:0345       loc_1AE35
 0AAF:0351       sub_1AE41
 0AAF:0360       loc_1AE50
 0AAF:036B       loc_1AE5B
 0AAF:036F       loc_1AE5F
 0AAF:0377       loc_1AE67
 0AAF:037A       loc_1AE6A
 0AAF:038F       loc_1AE7F
 0AAF:0397       loc_1AE87
 0AAF:03A5       loc_1AE95
 0AAF:03A9       loc_1AE99
 0AAF:03AD       loc_1AE9D
 0AAF:03AF       loc_1AE9F
 0AAF:03B3       loc_1AEA3
 0AAF:03BA       loc_1AEAA
 0AAF:03BF       loc_1AEAF
 0AAF:03C4       loc_1AEB4
 0AAF:03C5       loc_1AEB5
 0AAF:03C7       loc_1AEB7
 0AAF:03CE       locret_1AEBE
 0AAF:03CF       sub_1AEBF
 0AAF:03DA       loc_1AECA
 0AAF:03E0       loc_1AED0
 0AAF:03E5       loc_1AED5
 0AAF:03E7       loc_1AED7
 0AAF:03E9       loc_1AED9
 0AAF:03ED       loc_1AEDD
 0AAF:03F0       loc_1AEE0
 0AAF:03F5       loc_1AEE5
 0AAF:03F8       loc_1AEE8
 0AAF:040F       loc_1AEFF
 0AAF:0413       loc_1AF03
 0AAF:0417       loc_1AF07
 0AAF:041E       loc_1AF0E
 0AAF:0420       loc_1AF10
 0AAF:0428       loc_1AF18
 0AAF:042A       loc_1AF1A
 0AAF:042E       loc_1AF1E
 0AAF:0432       loc_1AF22
 0AAF:0438       loc_1AF28
 0AAF:043A       loc_1AF2A
 0AAF:0441       loc_1AF31
 0AAF:0443       loc_1AF33
 0AAF:0446       loc_1AF36
 0AAF:0449       loc_1AF39
 0AAF:044E       loc_1AF3E
 0AAF:0453       loc_1AF43
 0AAF:0456       sub_1AF46
 0AAF:0459       loc_1AF49
 0AAF:045D       loc_1AF4D
 0AAF:0460       loc_1AF50
 0AAF:046B       loc_1AF5B
 0AAF:046E       loc_1AF5E
 0AAF:0470       loc_1AF60
 0AAF:0472       loc_1AF62
 0AAF:0473       loc_1AF63
 0AAF:0481       loc_1AF71
 0AAF:0487       loc_1AF77
 0AAF:0493       loc_1AF83
 0AAF:0499       loc_1AF89
 0AAF:049D       loc_1AF8D
 0AAF:04A1       loc_1AF91
 0AAF:04A3       loc_1AF93
 0AAF:04AB       sub_1AF9B
 0AAF:04C7       loc_1AFB7
 0AAF:04CA       loc_1AFBA
 0AAF:04DA       loc_1AFCA
 0AAF:04E1       loc_1AFD1
 0AAF:04E2       loc_1AFD2
 0AAF:04FF       sub_1AFEF
 0AAF:0520       loc_1B010
 0AAF:0524       loc_1B014
 0AAF:052F       loc_1B01F
 0AAF:0533       loc_1B023
 0AAF:0538       loc_1B028
 0AAF:053B       loc_1B02B
 0AAF:0549       loc_1B039
 0AAF:054E       loc_1B03E
 0AAF:054F       loc_1B03F
 0AAF:055F       loc_1B04F
 0AAF:056A       loc_1B05A
 0AAF:0571       loc_1B061
 0AAF:0573       loc_1B063
 0AAF:057C       loc_1B06C
 0AAF:0586       loc_1B076
 0AAF:058E       loc_1B07E
 0AAF:0593       loc_1B083
 0AAF:0595       loc_1B085
 0AAF:0597       loc_1B087
 0AAF:059A       loc_1B08A
 0AAF:059C       loc_1B08C
 0AAF:059E       loc_1B08E
 0AAF:059F       loc_1B08F
 0AAF:05A2       loc_1B092
 0AAF:05A4       loc_1B094
 0AAF:05A5       loc_1B095
 0AAF:05A8       loc_1B098
 0AAF:05A9       loc_1B099
 0AAF:05AE       loc_1B09E
 0AAF:05B0       locret_1B0A0
 0AAF:05B1       loc_1B0A1
 0AAF:05B3       loc_1B0A3
 0AAF:05B5       loc_1B0A5
 0AAF:05B7       loc_1B0A7
 0AAF:05B9       loc_1B0A9
 0AAF:05BB       loc_1B0AB
 0B0A:000D       sub_1B0AD
 0B0A:000E       loc_1B0AE
 0B0A:0010       loc_1B0B0
 0B0A:0012       loc_1B0B2
 0B0A:0016       loc_1B0B6
 0B0A:0019       loc_1B0B9
 0B0A:001C       loc_1B0BC
 0B0A:001F       loc_1B0BF
 0B0A:0020       loc_1B0C0
 0B0A:0021       loc_1B0C1
 0B0A:0024       loc_1B0C4
 0B0A:0027       loc_1B0C7
 0B0A:0029       loc_1B0C9
 0B0A:002C       loc_1B0CC
 0B0A:002F       loc_1B0CF
 0B0A:0032       loc_1B0D2
 0B0A:0037       loc_1B0D7
 0B0A:0039       loc_1B0D9
 0B0A:003E       loc_1B0DE
 0B0A:0040       loc_1B0E0
 0B0A:0042       loc_1B0E2
 0B0A:0046       loc_1B0E6
 0B0A:0048       loc_1B0E8
 0B0A:004A       loc_1B0EA
 0B0A:004E       loc_1B0EE
 0B0A:0050       loc_1B0F0
 0B0A:0052       loc_1B0F2
 0B0A:0056       loc_1B0F6
 0B0A:0058       loc_1B0F8
 0B0A:005B       loc_1B0FB
 0B0A:005F       loc_1B0FF
 0B0A:0063       loc_1B103
 0B0A:0065       loc_1B105
 0B0A:0068       loc_1B108
 0B0A:0070       loc_1B110
 0B0A:0073       loc_1B113
 0B0A:007A       loc_1B11A
 0B0A:007E       loc_1B11E
 0B0A:0080       loc_1B120
 0B0A:0088       loc_1B128
 0B0A:008A       loc_1B12A
 0B0A:008E       loc_1B12E
 0B0A:0090       loc_1B130
 0B0A:0095       loc_1B135
 0B0A:0097       loc_1B137
 0B0A:009D       loc_1B13D
 0B0A:00A0       loc_1B140
 0B0A:00A7       loc_1B147
 0B0A:00AA       loc_1B14A
 0B0A:00AE       loc_1B14E
 0B0A:00B4       loc_1B154
 0B0A:00B9       loc_1B159
 0B0A:00BA       loc_1B15A
 0B0A:00BC       loc_1B15C
 0B0A:00BE       loc_1B15E
 0B0A:00C7       loc_1B167
 0B0A:00CB       loc_1B16B
 0B0A:00D6       loc_1B176
 0B0A:00DE       loc_1B17E
 0B0A:00E2       loc_1B182
 0B0A:00E4       loc_1B184
 0B0A:00E7       loc_1B187
 0B0A:00EC       loc_1B18C
 0B0A:00EF       loc_1B18F
 0B0A:00F2       loc_1B192
 0B0A:00F6       loc_1B196
 0B0A:00F8       loc_1B198
 0B0A:00FA       loc_1B19A
 0B0A:00FC       loc_1B19C
 0B0A:00FE       loc_1B19E
 0B0A:0125       loc_1B1C5
 0B0A:0127       loc_1B1C7
 0B0A:0136       loc_1B1D6
 0B0A:013F       loc_1B1DF
 0B0A:0147       loc_1B1E7
 0B0A:0149       loc_1B1E9
 0B0A:014B       loc_1B1EB
 0B0A:0159       loc_1B1F9
 0B0A:015B       loc_1B1FB
 0B0A:015D       loc_1B1FD
 0B0A:0163       loc_1B203
 0B0A:0166       loc_1B206
 0B0A:016A       loc_1B20A
 0B0A:0170       loc_1B210
 0B0A:017B       loc_1B21B
 0B0A:017D       loc_1B21D
 0B0A:017E       loc_1B21E
 0B0A:0184       loc_1B224
 0B0A:0187       loc_1B227
 0B0A:0199       off_1B239
 0B0A:01A1       sub_1B241
 0B0A:01B0       loc_1B250
 0B0A:01C0       loc_1B260
 0B0A:01CC       loc_1B26C
 0B0A:01D1       loc_1B271
 0B0A:01D4       loc_1B274
 0B0A:01E4       loc_1B284
 0B0A:01EE       loc_1B28E
 0B0A:01F5       loc_1B295
 0B0A:0208       loc_1B2A8
 0B0A:021F       loc_1B2BF
 0B0A:022A       loc_1B2CA
 0B0A:0230       loc_1B2D0
 0B0A:023C       loc_1B2DC
 0B0A:0247       loc_1B2E7
 0B0A:024F       loc_1B2EF
 0B0A:025E       loc_1B2FE
 0B0A:0264       loc_1B304
 0B0A:027C       loc_1B31C
 0B0A:0281       loc_1B321
 0B0A:0284       loc_1B324
 0B0A:0286       loc_1B326
 0B0A:0287       loc_1B327
 0B0A:0290       loc_1B330
 0B0A:0296       loc_1B336
 0B0A:0297       loc_1B337
 0B0A:02A1       sub_1B341
 0B0A:02BC       loc_1B35C
 0B0A:02CC       loc_1B36C
 0B0A:02CE       loc_1B36E
 0B0A:02FE       loc_1B39E
 0B0A:0301       loc_1B3A1
 0B0A:0309       loc_1B3A9
 0B0A:030E       loc_1B3AE
 0B0A:0328       loc_1B3C8
 0B0A:0330       loc_1B3D0
 0B0A:033B       loc_1B3DB
 0B0A:0346       loc_1B3E6
 0B0A:034D       loc_1B3ED
 0B0A:0351       loc_1B3F1
 0B0A:035A       loc_1B3FA
 0B0A:0360       loc_1B400
 0B0A:0364       loc_1B404
 0B0A:0370       loc_1B410
 0B0A:0372       loc_1B412
 0B0A:037C       loc_1B41C
 0B0A:0396       loc_1B436
 0B0A:03A3       loc_1B443
 0B0A:03B0       loc_1B450
 0B0A:03C3       loc_1B463
 0B0A:03CC       loc_1B46C
 0B0A:03D1       loc_1B471
 0B0A:03DA       loc_1B47A
 0B0A:03E8       loc_1B488
 0B0A:03F1       loc_1B491
 0B0A:03F8       loc_1B498
 0B0A:0405       loc_1B4A5
 0B0A:0406       loc_1B4A6
 0B0A:041A       loc_1B4BA
 0B0A:0429       loc_1B4C9
 0B0A:043D       loc_1B4DD
 0B0A:0448       loc_1B4E8
 0B0A:045B       loc_1B4FB
 0B0A:045F       loc_1B4FF
 0B0A:046C       loc_1B50C
 0B0A:046F       loc_1B50F
 0B0A:0471       loc_1B511
 0B0A:047E       loc_1B51E
 0B0A:048D       loc_1B52D
 0B0A:04AB       loc_1B54B
 0B0A:04AF       loc_1B54F
 0B0A:04B7       loc_1B557
 0B0A:04C3       loc_1B563
 0B0A:04C6       loc_1B566
 0B0A:04D2       loc_1B572
 0B0A:04DB       loc_1B57B
 0B0A:04FB       loc_1B59B
 0B0A:04FE       loc_1B59E
 0B0A:0501       loc_1B5A1
 0B0A:0504       loc_1B5A4
 0B0A:0510       loc_1B5B0
 0B0A:0516       loc_1B5B6
 0B0A:0522       loc_1B5C2
 0B0A:0537       loc_1B5D7
 0B0A:053B       loc_1B5DB
 0B0A:053E       loc_1B5DE
 0B0A:0541       loc_1B5E1
 0B0A:054B       loc_1B5EB
 0B0A:055B       loc_1B5FB
 0B0A:055F       loc_1B5FF
 0B0A:0570       loc_1B610
 0B0A:057F       loc_1B61F
 0B0A:058A       loc_1B62A
 0B0A:058E       loc_1B62E
 0B0A:0594       loc_1B634
 0B0A:059D       loc_1B63D
 0B0A:05A0       loc_1B640
 0B0A:05AC       off_1B64C
 0B0A:05B4       sub_1B654
 0B0A:0621       loc_1B6C1
 0B0A:063C       loc_1B6DC
 0B0A:063E       loc_1B6DE
 0B0A:0647       loc_1B6E7
 0B0A:064A       loc_1B6EA
 0B0A:0653       loc_1B6F3
 0B0A:0655       loc_1B6F5
 0B0A:0658       loc_1B6F8
 0B0A:065A       loc_1B6FA
 0B0A:065C       loc_1B6FC
 0B0A:0660       loc_1B700
 0B0A:0670       loc_1B710
 0B0A:0672       loc_1B712
 0B0A:067C       loc_1B71C
 0B0A:0684       loc_1B724
 0B0A:0689       loc_1B729
 0B0A:0690       loc_1B730
 0B0A:0692       loc_1B732
 0B0A:06B0       loc_1B750
 0B0A:06BD       loc_1B75D
 0B0A:06C7       loc_1B767
 0B0A:06C9       loc_1B769
 0B0A:06CB       loc_1B76B
 0B0A:06D3       loc_1B773
 0B0A:06E0       loc_1B780
 0B0A:06E1       loc_1B781
 0B0A:06F0       loc_1B790
 0B0A:06F9       loc_1B799
 0B0A:070F       loc_1B7AF
 0B0A:0716       loc_1B7B6
 0B0A:071E       loc_1B7BE
 0B0A:0728       loc_1B7C8
 0B0A:0748       loc_1B7E8
 0B0A:074B       loc_1B7EB
 0B0A:074E       loc_1B7EE
 0B0A:0754       loc_1B7F4
 0B0A:0757       loc_1B7F7
 0B0A:0759       loc_1B7F9
 0B0A:075F       loc_1B7FF
 0B0A:076B       loc_1B80B
 0B0A:076F       loc_1B80F
 0B0A:0771       loc_1B811
 0B0A:0777       loc_1B817
 0B0A:0780       loc_1B820
 0B0A:0786       loc_1B826
 0B0A:0787       loc_1B827
 0B0A:0791       loc_1B831
 0B0A:0798       loc_1B838
 0B0A:07A1       loc_1B841
 0B0A:07AC       loc_1B84C
 0B0A:07AF       loc_1B84F
 0B0A:07C0       loc_1B860
 0B0A:07CE       loc_1B86E
 0B0A:07D1       loc_1B871
 0B0A:07D4       loc_1B874
 0B0A:07D9       loc_1B879
 0B0A:07E9       loc_1B889
 0B0A:07FF       loc_1B89F
 0B0A:0802       loc_1B8A2
 0B0A:081C       loc_1B8BC
 0B0A:0852       loc_1B8F2
 0B0A:0857       loc_1B8F7
 0B0A:085C       loc_1B8FC
 0B0A:08AB       loc_1B94B
 0B0A:08B5       loc_1B955
 0B0A:08BF       loc_1B95F
 0B0A:08CA       loc_1B96A
 0B0A:08D0       loc_1B970
 0B0A:08DB       loc_1B97B
 0B0A:08DE       loc_1B97E
 0B0A:08E4       sub_1B984
 0B0A:0901       loc_1B9A1
 0B0A:0904       loc_1B9A4
 0B0A:091A       loc_1B9BA
 0B0A:091C       loc_1B9BC
 0B0A:092B       loc_1B9CB
 0B0A:0934       loc_1B9D4
 0B0A:093D       loc_1B9DD
 0B0A:0942       sub_1B9E2
 0B0A:0957       loc_1B9F7
 0B0A:095D       loc_1B9FD
 0B0A:096C       loc_1BA0C
 0B0A:097C       loc_1BA1C
 0B0A:097D       loc_1BA1D
 0B0A:0984       loc_1BA24
 0B0A:0987       loc_1BA27
 0B0A:098A       loc_1BA2A
 0B0A:098F       loc_1BA2F
 0B0A:0992       loc_1BA32
 0B0A:0999       loc_1BA39
 0B0A:09AB       loc_1BA4B
 0B0A:09B0       loc_1BA50
 0B0A:09B4       loc_1BA54
 0B0A:09B8       loc_1BA58
 0B0A:09BD       loc_1BA5D
 0B0A:09C0       loc_1BA60
 0B0A:09CA       loc_1BA6A
 0B0A:09CE       loc_1BA6E
 0B0A:09D4       loc_1BA74
 0B0A:09DB       loc_1BA7B
 0B0A:09DF       loc_1BA7F
 0B0A:09E1       loc_1BA81
 0B0A:09E5       loc_1BA85
 0B0A:09F0       loc_1BA90
 0B0A:09F9       loc_1BA99
 0B0A:0A0D       loc_1BAAD
 0B0A:0A0F       loc_1BAAF
 0B0A:0A15       loc_1BAB5
 0B0A:0A1C       loc_1BABC
 0B0A:0A29       loc_1BAC9
 0B0A:0A31       loc_1BAD1
 0B0A:0A39       loc_1BAD9
 0B0A:0A3F       loc_1BADF
 0B0A:0A40       loc_1BAE0
 0B0A:0A49       loc_1BAE9
 0B0A:0A4E       loc_1BAEE
 0B0A:0A52       loc_1BAF2
 0B0A:0A5F       loc_1BAFF
 0B0A:0A63       loc_1BB03
 0B0A:0A68       off_1BB08
 0B0A:0A70       sub_1BB10
 0B0A:0A71       loc_1BB11
 0B0A:0A7B       sub_1BB1B
 0B0A:0A7E       loc_1BB1E
 0B0A:0A8B       loc_1BB2B
 0B0A:0AB2       loc_1BB52
 0B0A:0ABD       loc_1BB5D
 0B0A:0ABF       sub_1BB5F
 0B0A:0ADD       loc_1BB7D
 0B0A:0AEE       loc_1BB8E
 0B0A:0B1D       loc_1BBBD
 0B0A:0B29       loc_1BBC9
 0B0A:0B2D       loc_1BBCD
 0B0A:0B2F       loc_1BBCF
 0B0A:0B33       sub_1BBD3
 0B0A:0B3D       loc_1BBDD
 0B0A:0B4D       loc_1BBED
 0B0A:0B4E       loc_1BBEE
 0B0A:0B59       sub_1BBF9
 0B0A:0B7A       sub_1BC1A
 0B0A:0B80       loc_1BC20
 0B0A:0B88       loc_1BC28
 0B0A:0B9C       loc_1BC3C
 0B0A:0BA4       loc_1BC44
 0B0A:0BA5       loc_1BC45
 0B0A:0BAE       loc_1BC4E
 0B0A:0BB2       loc_1BC52
 0B0A:0BC5       sub_1BC65
 0B0A:0BE3       loc_1BC83
 0B0A:0BEE       loc_1BC8E
 0B0A:0BF5       loc_1BC95
 0B0A:0BF8       loc_1BC98
 0B0A:0C10       loc_1BCB0
 0B0A:0C17       loc_1BCB7
 0B0A:0C2D       loc_1BCCD
 0B0A:0C35       loc_1BCD5
 0B0A:0C3B       loc_1BCDB
 0B0A:0C42       loc_1BCE2
 0B0A:0C5D       loc_1BCFD
 0B0A:0C64       loc_1BD04
 0B0A:0C6A       loc_1BD0A
 0B0A:0C6C       loc_1BD0C
 0B0A:0C7C       loc_1BD1C
 0B0A:0CAC       loc_1BD4C
 0B0A:0CB2       loc_1BD52
 0B0A:0CBF       loc_1BD5F
 0B0A:0CCE       loc_1BD6E
 0B0A:0CF5       loc_1BD95
 0B0A:0CF7       loc_1BD97
 0B0A:0D0C       loc_1BDAC
 0B0A:0D0F       loc_1BDAF
 0B0A:0D1B       loc_1BDBB
 0B0A:0D2C       loc_1BDCC
 0B0A:0D2E       loc_1BDCE
 0B0A:0D41       loc_1BDE1
 0B0A:0D43       loc_1BDE3
 0B0A:0D44       loc_1BDE4
 0B0A:0D4A       loc_1BDEA
 0B0A:0D4D       loc_1BDED
 0B0A:0D53       loc_1BDF3
 0B0A:0D5C       locret_1BDFC
 0B0A:0D5D       off_1BDFD
 0B0A:0D65       hrmLotsOfFarMallocStoreSW
 0B0A:0DC1       loc_1BE61
 0B0A:0DC6       loc_1BE66
 0B0A:0DC7       loc_1BE67
 0B0A:0DCA       loc_1BE6A
 0B0A:0DD0       loc_1BE70
 0B0A:0DD4       loc_1BE74
 0BE7:000A       ILSe_prepare_palette
 0BE7:0056       FULL_PALETTE
 0BE7:0062       PARTIAL_PALETTE
 0BE7:0072       loc_1BEE2
 0BE7:0095       loc_1BF05
 0BE7:009B       loc_1BF0B
 0BE7:009F       loc_1BF0F
 0BE7:00AA       loc_1BF1A
 0BE7:00B1       loc_1BF21
 0BE7:00B5       loc_1BF25
 0BE7:00B9       loc_1BF29
 0BE7:00D0       UPDATE_FULL_PALETTE
 0BE7:00D9       UPDATE_PARTIAL_PALETTE
 0BE7:00DF       loc_1BF4F
 0BE7:00EC       sub_1BF5C
 0BE7:00ED       loc_1BF5D
 0BE7:00EF       loc_1BF5F
 0BE7:00F6       loc_1BF66
 0BE7:00F9       loc_1BF69
 0BE7:00FB       loc_1BF6B
 0BE7:00FC       loc_1BF6C
 0BE7:00FE       loc_1BF6E
 0BE7:00FF       loc_1BF6F
 0BE7:0109       sub_1BF79
 0BE7:012B       loc_1BF9B
 0BE7:017E       loc_1BFEE
 0BE7:0186       locret_1BFF6
 0BE7:0187       sub_1BFF7
 0BE7:018F       loc_1BFFF
 0BE7:01A3       loc_1C013
 0BE7:01B0       loc_1C020
 0BE7:01C6       loc_1C036
 0BE7:01CB       loc_1C03B
 0BE7:01D1       loc_1C041
 0BE7:01E5       loc_1C055
 0BE7:01E7       loc_1C057
 0BE7:01FF       loc_1C06F
 0BE7:021E       loc_1C08E
 0BE7:0227       idk_Set_FontsLbx1_256arr_to_1
 0BE7:0230       LoadByteLoop
 0BE7:0242       loc_1C0B2
 0BE7:0247       loc_1C0B7
 0BE7:024A       idk_Set_FontsLbx1_256arr_to_0
 0BE7:024D       loc_1C0BD
 0BE7:024E       loc_1C0BE
 0BE7:0253       loc_1C0C3
 0BE7:0260       loc_1C0D0
 0BE7:0264       loc_1C0D4
 0BE7:026C       sub_1C0DC
 0BE7:0276       loc_1C0E6
 0BE7:027E       loc_1C0EE
 0BE7:02A1       idk_PAL_s1C111
 0BE7:02C0       sub_1C130
 0BE7:02EC       sub_1C15C
 0BE7:02EF       loc_1C15F
 0BE7:02FF       loc_1C16F
 0BE7:0301       loc_1C171
 0BE7:030A       loc_1C17A
 0BE7:030D       loc_1C17D
 0BE7:031E       loc_1C18E
 0BE7:0330       loc_1C1A0
 0BE7:0334       idk_Set_PalNbr__w3602C_to_neg1
 0BE7:033F       idk_SetDacReg_s1C1AF
 0BE7:036A       loc_1C1DA
 0BE7:0370       loc_1C1E0
 0BE7:0374       loc_1C1E4
 0BE7:037A       loc_1C1EA
 0BE7:0382       loc_1C1F2
 0BE7:039D       loc_1C20D
 0BE7:03AB       loc_1C21B
 0BE7:03C4       loc_1C234
 0BE7:03CB       loc_1C23B
 0BE7:03CE       loc_1C23E
 0BE7:03D3       loc_1C243
 0BE7:03D8       loc_1C248
 0BE7:03DD       loc_1C24D
 0BE7:03EE       loc_1C25E
 0BE7:03F1       loc_1C261
 0BE7:03F4       loc_1C264
 0BE7:03F7       loc_1C267
 0BE7:03FA       loc_1C26A
 0BE7:0400       loc_1C270
 0BE7:0407       loc_1C277
 0BE7:0409       loc_1C279
 0BE7:040C       loc_1C27C
 0BE7:0412       loc_1C282
 0BE7:041B       loc_1C28B
 0BE7:0422       loc_1C292
 0BE7:042D       loc_1C29D
 0BE7:0430       loc_1C2A0
 0BE7:0439       loc_1C2A9
 0BE7:044C       loc_1C2BC
 0BE7:0454       loc_1C2C4
 0BE7:0460       loc_1C2D0
 0BE7:046C       loc_1C2DC
 0BE7:0474       loc_1C2E4
 0BE7:047A       loc_1C2EA
 0BE7:0487       loc_1C2F7
 0BE7:049B       loc_1C30B
 0BE7:04B0       loc_1C320
 0BE7:04B3       loc_1C323
 0BE7:04B8       loc_1C328
 0BE7:04BF       loc_1C32F
 0BE7:04C7       loc_1C337
 0BE7:04CB       loc_1C33B
 0BE7:04CF       loc_1C33F
 0BE7:04D2       loc_1C342
 0BE7:04D8       loc_1C348
 0BE7:04DC       loc_1C34C
 0BE7:04E3       loc_1C353
 0BE7:04E5       loc_1C355
 0BE7:04E9       loc_1C359
 0BE7:04EC       loc_1C35C
 0BE7:04EE       loc_1C35E
 0BE7:050B       sub_1C37B
 0BE7:0513       loc_1C383
 0BE7:0516       loc_1C386
 0BE7:051B       loc_1C38B
 0BE7:052A       loc_1C39A
 0BE7:052C       loc_1C39C
 0BE7:0530       loc_1C3A0
 0BE7:0532       loc_1C3A2
 0BE7:0538       loc_1C3A8
 0BE7:053E       loc_1C3AE
 0BE7:0540       loc_1C3B0
 0BE7:0543       loc_1C3B3
 0BE7:0552       loc_1C3C2
 0BE7:0555       loc_1C3C5
 0BE7:055B       loc_1C3CB
 0BE7:055D       loc_1C3CD
 0BE7:0561       loc_1C3D1
 0BE7:056A       loc_1C3DA
 0BE7:056C       loc_1C3DC
 0BE7:057E       loc_1C3EE
 0BE7:0580       loc_1C3F0
 0BE7:0583       loc_1C3F3
 0BE7:058D       loc_1C3FD
 0BE7:0592       loc_1C402
 0BE7:059B       loc_1C40B
 0BE7:059F       sub_1C40F
 0BE7:05A0       loc_1C410
 0BE7:05AA       loc_1C41A
 0BE7:05B4       loc_1C424
 0BE7:05C2       loc_1C432
 0BE7:05D3       loc_1C443
 0BE7:05D6       loc_1C446
 0BE7:05DC       loc_1C44C
 0BE7:05DF       loc_1C44F
 0BE7:05EA       loc_1C45A
 0BE7:0612       loc_1C482
 0BE7:061B       loc_1C48B
 0BE7:0620       loc_1C490
 0BE7:0631       loc_1C4A1
 0BE7:0636       loc_1C4A6
 0BE7:063A       loc_1C4AA
 0BE7:063C       loc_1C4AC
 0BE7:063E       loc_1C4AE
 0BE7:0641       loc_1C4B1
 0BE7:0644       loc_1C4B4
 0BE7:0646       loc_1C4B6
 0BE7:0648       loc_1C4B8
 0BE7:064C       loc_1C4BC
 0BE7:064F       loc_1C4BF
 0BE7:0650       loc_1C4C0
 0BE7:0651       loc_1C4C1
 0BE7:0652       loc_1C4C2
 0BE7:0653       loc_1C4C3
 0BE7:0655       loc_1C4C5
 0BE7:0656       locret_1C4C6
 0C4C:0008       word_1C4C8
 0C4C:000A       word_1C4CA
 0C4C:000C       word_1C4CC
 0C4C:000E       word_1C4CE
 0C4C:0010       word_1C4D0
 0C4C:0012       word_1C4D2
 0C4C:0014       word_1C4D4
 0C4C:0016       word_1C4D6
 0C4C:0018       word_1C4D8
 0C4C:001A       word_1C4DA
 0C4C:001C       word_1C4DC
 0C4C:001E       word_1C4DE
 0C4C:0020       word_1C4E0
 0C4C:0022       word_1C4E2
 0C4C:0024       byte_1C4E4
 0C4C:0025       algn_1C4E5
 0C4C:0026       byte_1C4E6
 0C4C:0028       byte_1C4E8
 0C4C:002A       word_1C4EA
 0C4C:002C       word_1C4EC
 0C4C:002E       byte_1C4EE
 0C4C:002F       algn_1C4EF
 0C4C:0030       byte_1C4F0
 0C4C:0032       byte_1C4F2
 0C4C:0033       algn_1C4F3
 0C4C:0034       idk_SetPalette_s1C4F4
 0C4C:0049       LOOP_START
 0C4C:004E       loc_1C50E
 0C4C:0054       WaitForVsync
 0C4C:0059       WaitForNotVsync
 0C4C:005E       loc_1C51E
 0C4C:0066       OUTPUT_RGB_VALUES
 0C4C:0079       loc_1C539
 0C4C:0080       loc_1C540
 0C4C:0094       idk_VGA_PAL_s1C554
 0C4C:00A3       loc_1C563
 0C4C:00C5       loc_1C585
 0C4C:00D0       WaitForVsync_
 0C4C:00D5       WaitForNotVsync_
 0C4C:00DA       loc_1C59A
 0C4C:00E2       loc_1C5A2
 0C4C:0101       loc_1C5C1
 0C4C:0112       loc_1C5D2
 0C4C:011C       loc_1C5DC
 0C4C:012D       loc_1C5ED
 0C4C:0138       WaitForVsync
 0C4C:013D       WaitForNotVsync
 0C4C:0142       loc_1C602
 0C4C:014A       loc_1C60A
 0C4C:015C       loc_1C61C
 0C4C:0163       loc_1C623
 0C4C:0178       idk_VGA_PAL_s1C638
 0C4C:017F       loc_1C63F
 0C4C:0185       loc_1C645
 0C4C:018A       loc_1C64A
 0C4C:0192       loc_1C652
 0C4C:019C       loc_1C65C
 0C4C:01A0       loc_1C660
 0C4C:01AF       loc_1C66F
 0C4C:01D0       loc_1C690
 0C4C:01D2       loc_1C692
 0C4C:01D6       loc_1C696
 0C4C:01DE       loc_1C69E
 0C4C:01E0       loc_1C6A0
 0C4C:01E3       loc_1C6A3
 0C4C:01EB       loc_1C6AB
 0C4C:01F6       loc_1C6B6
 0C4C:01FB       loc_1C6BB
 0C4C:01FC       loc_1C6BC
 0C4C:0200       loc_1C6C0
 0C4C:0203       loc_1C6C3
 0C4C:0216       loc_1C6D6
 0C4C:021F       loc_1C6DF
 0C4C:022A       loc_1C6EA
 0C4C:022C       loc_1C6EC
 0C4C:0234       loc_1C6F4
 0C4C:0236       loc_1C6F6
 0C4C:023C       loc_1C6FC
 0C4C:0241       loc_1C701
 0C4C:0242       loc_1C702
 0C4C:0247       loc_1C707
 0C4C:0248       loc_1C708
 0C4C:024B       loc_1C70B
 0C4C:0259       loc_1C719
 0C4C:025C       loc_1C71C
 0C4C:025E       loc_1C71E
 0C4C:0264       loc_1C724
 0C4C:0265       loc_1C725
 0C4C:0269       loc_1C729
 0C4C:026A       loc_1C72A
 0C4C:026E       loc_1C72E
 0C4C:0279       loc_1C739
 0C4C:027C       loc_1C73C
 0C4C:027D       loc_1C73D
 0C4C:027F       loc_1C73F
 0C4C:0280       loc_1C740
 0C4C:0281       loc_1C741
 0C4C:0286       loc_1C746
 0C4C:0290       loc_1C750
 0C4C:0292       loc_1C752
 0C4C:0299       loc_1C759
 0C4C:02A3       loc_1C763
 0C4C:02AE       idk_VGA_PAL_s1C76E
 0C4C:02B2       loc_1C772
 0C4C:02B8       loc_1C778
 0C4C:02BB       loc_1C77B
 0C4C:02BE       loc_1C77E
 0C4C:02C0       loc_1C780
 0C4C:02C6       loc_1C786
 0C4C:02CB       loc_1C78B
 0C4C:02D1       loc_1C791
 0C4C:02E3       loc_1C7A3
 0C4C:02F7       loc_1C7B7
 0C4C:02FC       loc_1C7BC
 0C4C:0301       loc_1C7C1
 0C4C:0303       loc_1C7C3
 0C4C:0307       loc_1C7C7
 0C4C:030C       loc_1C7CC
 0C4C:0314       loc_1C7D4
 0C4C:0315       loc_1C7D5
 0C4C:0317       loc_1C7D7
 0C4C:0319       loc_1C7D9
 0C4C:031A       loc_1C7DA
 0C4C:0321       loc_1C7E1
 0C4C:0324       loc_1C7E4
 0C4C:032F       loc_1C7EF
 0C4C:0336       loc_1C7F6
 0C4C:033C       loc_1C7FC
 0C4C:034E       loc_1C80E
 0C4C:0353       loc_1C813
 0C4C:0356       loc_1C816
 0C4C:0358       loc_1C818
 0C4C:035B       loc_1C81B
 0C4C:0364       loc_1C824
 0C4C:036B       loc_1C82B
 0C4C:0380       idk_VGA_PAL_s1C840
 0C4C:0397       loc_1C857
 0C4C:03AC       loc_1C86C
 0C4C:03B4       loc_1C874
 0C4C:03B7       loc_1C877
 0C4C:03BC       loc_1C87C
 0C4C:03BF       loc_1C87F
 0C4C:03C4       loc_1C884
 0C4C:03CB       loc_1C88B
 0C4C:03DA       loc_1C89A
 0C4C:03DE       byte_1C89E
 0C4C:03DF       loc_1C89F
 0C4C:03E4       loc_1C8A4
 0C4C:03F0       loc_1C8B0
 0C4C:0407       loc_1C8C7
 0C4C:0410       loc_1C8D0
 0C4C:0415       idk_PAL_s1C8D5
 0C4C:043B       loc_1C8FB
 0C4C:043E       loc_1C8FE
 0C4C:0446       loc_1C906
 0C4C:0468       loc_1C928
 0C4C:046D       loc_1C92D
 0C4C:049F       loc_1C95F
 0C4C:04AD       loc_1C96D
 0C4C:04B0       loc_1C970
 0C4C:04FE       loc_1C9BE
 0C4C:0509       loc_1C9C9
 0C4C:0514       loc_1C9D4
 0C4C:0516       loc_1C9D6
 0C4C:052C       loc_1C9EC
 0C4C:053C       loc_1C9FC
 0C4C:053E       loc_1C9FE
 0C4C:0563       loc_1CA23
 0C4C:0566       loc_1CA26
 0C4C:0570       loc_1CA30
 0C4C:0581       loc_1CA41
 0C4C:0587       loc_1CA47
 0C4C:05A0       loc_1CA60
 0C4C:05AB       loc_1CA6B
 0C4C:05D9       loc_1CA99
 0C4C:05E1       loc_1CAA1
 0C4C:05E3       loc_1CAA3
 0C4C:05F9       loc_1CAB9
 0C4C:0609       loc_1CAC9
 0C4C:060B       loc_1CACB
 0C4C:0630       loc_1CAF0
 0C4C:0633       loc_1CAF3
 0C4C:0645       idk_Font_s1CB05
 0C4C:0648       loc_1CB08
 0C4C:0652       loc_1CB12
 0C4C:0658       loc_1CB18
 0C4C:065A       loc_1CB1A
 0C4C:0663       loc_1CB23
 0C4C:0666       loc_1CB26
 0C4C:0677       loc_1CB37
 0C4C:0688       loc_1CB48
 0C4C:069F       loc_1CB5F
 0C4C:06A5       loc_1CB65
 0C4C:06A6       loc_1CB66
 0C4C:06B5       loc_1CB75
 0C4C:06D3       loc_1CB93
 0C4C:06D5       loc_1CB95
 0C4C:06D8       loc_1CB98
 0C4C:06DA       loc_1CB9A
 0C4C:06DD       loc_1CB9D
 0C4C:06E1       loc_1CBA1
 0C4C:06E3       loc_1CBA3
 0C4C:06E5       loc_1CBA5
 0C4C:06E7       loc_1CBA7
 0C4C:06EB       loc_1CBAB
 0C4C:06EC       loc_1CBAC
 0C4C:06ED       loc_1CBAD
 0C4C:06F1       loc_1CBB1
 0C4C:06F2       loc_1CBB2
 0C4C:06F4       loc_1CBB4
 0C4C:06F5       loc_1CBB5
 0C4C:06F6       loc_1CBB6
 0C4C:06F7       loc_1CBB7
 0C4C:06F8       loc_1CBB8
 0C4C:06F9       locret_1CBB9
 0CBB:000A       sub_1CBBA
 0CBB:000B       loc_1CBBB
 0CBB:000D       loc_1CBBD
 0CBB:000F       loc_1CBBF
 0CBB:0012       loc_1CBC2
 0CBB:0014       loc_1CBC4
 0CBB:0016       sub_1CBC6
 0CBB:0017       loc_1CBC7
 0CBB:0019       loc_1CBC9
 0CBB:001B       loc_1CBCB
 0CBB:001E       locret_1CBCE
 0CBB:001F       sub_1CBCF
 0CBB:0020       loc_1CBD0
 0CBB:0027       loc_1CBD7
 0CBB:002B       loc_1CBDB
 0CBB:0030       loc_1CBE0
 0CBB:0032       locret_1CBE2
 0CBB:0033       sub_1CBE3
 0CBB:003B       loc_1CBEB
 0CBB:003D       loc_1CBED
 0CBB:003E       loc_1CBEE
 0CBB:0041       loc_1CBF1
 0CBB:0042       loc_1CBF2
 0CBB:0046       loc_1CBF6
 0CBB:0048       loc_1CBF8
 0CBB:0049       loc_1CBF9
 0CBB:004C       loc_1CBFC
 0CBB:0051       loc_1CC01
 0CBB:0054       loc_1CC04
 0CBB:005C       loc_1CC0C
 0CBB:005F       loc_1CC0F
 0CBB:0060       loc_1CC10
 0CBB:0064       loc_1CC14
 0CBB:0066       loc_1CC16
 0CBB:0067       loc_1CC17
 0CBB:0069       loc_1CC19
 0CBB:006A       loc_1CC1A
 0CBB:006F       loc_1CC1F
 0CBB:0072       loc_1CC22
 0CBB:0074       sub_1CC24
 0CBB:0085       sub_1CC35
 0CBB:0088       loc_1CC38
 0CBB:008B       loc_1CC3B
 0CBB:008E       loc_1CC3E
 0CBB:0090       loc_1CC40
 0CBB:0094       loc_1CC44
 0CBB:0097       loc_1CC47
 0CBB:009D       loc_1CC4D
 0CBB:00A0       loc_1CC50
 0CBB:00A3       loc_1CC53
 0CBB:00A9       ILSe_RndCopySeed_s1CC59
 0CBB:00D4       idk_Arg_0Fail_ElseMathyDiSi
 0CBB:00D7       loc_1CC87
 0CBB:00E0       loc_1CC90
 0CBB:00E2       loc_1CC92
 0CBB:00E5       loc_1CC95
 0CBB:00E6       loc_1CC96
 0CBB:00EB       loc_1CC9B
 0CBB:00EC       loc_1CC9C
 0CBB:00F1       loc_1CCA1
 0CBB:00F7       loc_1CCA7
 0CBB:00FB       loc_1CCAB
 0CBB:00FE       loc_1CCAE
 0CBB:0100       loc_1CCB0
 0CBB:0110       loc_1CCC0
 0CBB:0126       loc_1CCD6
 0CBB:0128       loc_1CCD8
 0CBB:013F       loc_1CCEF
 0CBB:0144       loc_1CCF4
 0CBB:015C       loc_1CD0C
 0CBB:015E       loc_1CD0E
 0CBB:015F       loc_1CD0F
 0CBB:0164       sub_1CD14
 0CBB:0165       loc_1CD15
 0CBB:016E       loc_1CD1E
 0CBB:0170       loc_1CD20
 0CBB:0180       loc_1CD30
 0CBB:0186       loc_1CD36
 0CBB:018E       loc_1CD3E
 0CBB:018F       loc_1CD3F
 0CBB:019A       sub_1CD4A
 0CBB:01A4       loc_1CD54
 0CBB:01B1       loc_1CD61
 0CBB:01C4       loc_1CD74
 0CBB:01C5       loc_1CD75
 0CBB:01C9       loc_1CD79
 0CBB:01D0       sub_1CD80
 0CBB:01D1       loc_1CD81
 0CBB:01D9       loc_1CD89
 0CBB:01DF       loc_1CD8F
 0CBB:01E4       loc_1CD94
 0CBB:01EC       loc_1CD9C
 0CBB:01F4       loc_1CDA4
 0CBB:01F8       sub_1CDA8
 0CBB:01FD       loc_1CDAD
 0CBB:0207       loc_1CDB7
 0CBB:0211       loc_1CDC1
 0CBB:0217       loc_1CDC7
 0CBB:021F       loc_1CDCF
 0CBB:0220       loc_1CDD0
 0CBB:0225       loc_1CDD5
 0CBB:0229       sub_1CDD9
 0CBB:0238       loc_1CDE8
 0CBB:023A       loc_1CDEA
 0CBB:0247       loc_1CDF7
 0CBB:024A       loc_1CDFA
 0CBB:024C       loc_1CDFC
 0CBB:0250       sub_1CE00
 0CBB:0254       loc_1CE04
 0CBB:025B       loc_1CE0B
 0CBB:025F       loc_1CE0F
 0CBB:0260       loc_1CE10
 0CBB:026F       loc_1CE1F
 0CBB:0274       loc_1CE24
 0CBB:0278       sub_1CE28
 0CBB:027B       loc_1CE2B
 0CBB:027E       loc_1CE2E
 0CBB:0283       loc_1CE33
 0CBB:0290       loc_1CE40
 0CBB:02A0       loc_1CE50
 0CBB:02B0       loc_1CE60
 0CBB:02BE       loc_1CE6E
 0CBB:02C0       loc_1CE70
 0CBB:02C7       loc_1CE77
 0CBB:02CE       loc_1CE7E
 0CBB:02D6       loc_1CE86
 0CBB:02E8       loc_1CE98
 0CBB:02EE       sub_1CE9E
 0CBB:02EF       loc_1CE9F
 0CBB:02FF       loc_1CEAF
 0CBB:0301       loc_1CEB1
 0CBB:0304       loc_1CEB4
 0CBB:030A       loc_1CEBA
 0CBB:0310       loc_1CEC0
 0CBB:031E       loc_1CECE
 0CBB:0334       loc_1CEE4
 0CBB:0339       loc_1CEE9
 0CBB:0341       loc_1CEF1
 0CBB:0349       loc_1CEF9
 0CBB:034F       sub_1CEFF
 0CBB:035E       loc_1CF0E
 0CBB:0366       loc_1CF16
 0CBB:0369       loc_1CF19
 0CBB:036D       loc_1CF1D
 0CBB:036F       loc_1CF1F
 0CBB:0371       loc_1CF21
 0CBB:0374       loc_1CF24
 0CBB:037B       loc_1CF2B
 0CBB:037E       loc_1CF2E
 0CBB:038B       loc_1CF3B
 0CBB:038F       loc_1CF3F
 0CBB:0393       loc_1CF43
 0CBB:0396       loc_1CF46
 0CBB:039A       loc_1CF4A
 0CBB:039C       loc_1CF4C
 0CBB:039E       sub_1CF4E
 0CBB:03AD       loc_1CF5D
 0CBB:03B8       loc_1CF68
 0CBB:03D1       loc_1CF81
 0CBB:03D5       sub_1CF85
 0CBB:03DA       loc_1CF8A
 0CBB:03E4       loc_1CF94
 0CBB:03E8       loc_1CF98
 0CBB:03EA       loc_1CF9A
 0CBB:03EF       loc_1CF9F
 0CBB:03F1       loc_1CFA1
 0CBB:0409       loc_1CFB9
 0CBB:040A       loc_1CFBA
 0CBB:040D       sub_1CFBD
 0CBB:042F       sub_1CFDF
 0CBB:0440       loc_1CFF0
 0CBB:0443       loc_1CFF3
 0CBB:0450       loc_1D000
 0CBB:045C       loc_1D00C
 0CBB:045E       loc_1D00E
 0CBB:0462       idk_Mov_Sb_Sw_or_0
 0CBB:046B       loc_1D01B
 0CBB:046D       BAIL
 0CBB:0471       loc_1D021
 0CBB:047C       loc_1D02C
 0CBB:0487       loc_1D037
 0CBB:048E       MOVSB
 0CBB:04AD       MOVSW
 0CBB:04CC       loc_1D07C
 0CBB:04D0       sub_1D080
 0CBB:04DC       loc_1D08C
 0CBB:04F5       loc_1D0A5
 0CBB:04F7       loc_1D0A7
 0CBB:04FB       loc_1D0AB
 0CBB:04FD       sub_1D0AD
 0CBB:052A       sub_1D0DA
 0CBB:0544       loc_1D0F4
 0CBB:054B       loc_1D0FB
 0CBB:055D       sub_1D10D
 0CBB:0565       loc_1D115
 0CBB:0575       loc_1D125
 0CBB:057F       loc_1D12F
 0CBB:0583       loc_1D133
 0CBB:0590       loc_1D140
 0CBB:0594       sub_1D144
 0CBB:0595       loc_1D145
 0CBB:05AB       loc_1D15B
 0CBB:05B2       loc_1D162
 0CBB:05B6       loc_1D166
 0CBB:05B8       loc_1D168
 0CBB:05BA       loc_1D16A
 0CBB:05BE       sub_1D16E
 0CBB:05C4       loc_1D174
 0CBB:05C7       loc_1D177
 0CBB:05D1       loc_1D181
 0CBB:05DC       loc_1D18C
 0CBB:05E0       loc_1D190
 0CBB:05E8       sub_1D198
 0CBB:05FA       loc_1D1AA
 0CBB:0605       sub_1D1B5
 0CBB:060D       loc_1D1BD
 0CBB:0610       loc_1D1C0
 0CBB:061A       loc_1D1CA
 0CBB:0624       loc_1D1D4
 0CBB:0631       loc_1D1E1
 0CBB:0638       loc_1D1E8
 0CBB:0642       loc_1D1F2
 0CBB:0645       loc_1D1F5
 0CBB:0648       loc_1D1F8
 0CBB:064B       loc_1D1FB
 0CBB:0650       loc_1D200
 0CBB:0652       loc_1D202
 0CBB:065C       loc_1D20C
 0CBB:065F       loc_1D20F
 0CBB:0666       loc_1D216
 0CBB:066B       loc_1D21B
 0CBB:066E       loc_1D21E
 0CBB:067C       loc_1D22C
 0CBB:0688       loc_1D238
 0CBB:0690       loc_1D240
 0CBB:06A4       loc_1D254
 0CBB:06BC       loc_1D26C
 0CBB:06C8       loc_1D278
 0CBB:06CC       loc_1D27C
 0CBB:06D4       loc_1D284
 0CBB:06E3       loc_1D293
 0CBB:06FB       loc_1D2AB
 0CBB:070C       loc_1D2BC
 0CBB:0714       loc_1D2C4
 0CBB:0718       loc_1D2C8
 0CBB:0720       loc_1D2D0
 0CBB:0731       loc_1D2E1
 0CBB:073D       loc_1D2ED
 0CBB:0740       loc_1D2F0
 0CBB:0748       loc_1D2F8
 0CBB:0749       loc_1D2F9
 0CBB:074C       loc_1D2FC
 0CBB:074D       loc_1D2FD
 0CBB:0751       loc_1D301
 0CBB:0756       loc_1D306
 0CBB:075C       loc_1D30C
 0CBB:0770       loc_1D320
 0CBB:0774       loc_1D324
 0CBB:0778       loc_1D328
 0CBB:078F       loc_1D33F
 0CBB:0797       loc_1D347
 0CBB:079C       loc_1D34C
 0CBB:07A3       loc_1D353
 0CBB:07AF       loc_1D35F
 0CBB:07B7       loc_1D367
 0CBB:07C2       loc_1D372
 0CBB:07C5       loc_1D375
 0CBB:07CE       loc_1D37E
 0CBB:07DE       loc_1D38E
 0CBB:07E6       loc_1D396
 0CBB:07EA       loc_1D39A
 0CBB:07F2       loc_1D3A2
 0CBB:07FD       loc_1D3AD
 0CBB:080C       loc_1D3BC
 0CBB:0811       loc_1D3C1
 0CBB:0819       loc_1D3C9
 0CBB:081D       loc_1D3CD
 0CBB:0822       loc_1D3D2
 0CBB:0828       loc_1D3D8
 0CBB:082C       loc_1D3DC
 0CBB:0830       loc_1D3E0
 0CBB:083B       loc_1D3EB
 0CBB:084E       loc_1D3FE
 0CBB:0857       loc_1D407
 0CBB:0858       loc_1D408
 0CBB:085D       sub_1D40D
 0CBB:0860       loc_1D410
 0CBB:0863       loc_1D413
 0CBB:0864       loc_1D414
 0CBB:086A       loc_1D41A
 0CBB:0871       loc_1D421
 0CBB:0878       loc_1D428
 0CBB:0890       loc_1D440
 0CBB:0895       loc_1D445
 0CBB:089F       loc_1D44F
 0CBB:08A2       loc_1D452
 0CBB:08A3       loc_1D453
 0CBB:08A7       loc_1D457
 0CBB:08AF       loc_1D45F
 0CBB:08B6       loc_1D466
 0CBB:08B9       loc_1D469
 0CBB:08CC       loc_1D47C
 0CBB:08CF       loc_1D47F
 0CBB:08D4       loc_1D484
 0CBB:0902       loc_1D4B2
 0CBB:0910       loc_1D4C0
 0CBB:0934       loc_1D4E4
 0CBB:0940       loc_1D4F0
 0CBB:0946       loc_1D4F6
 0CBB:095E       loc_1D50E
 0CBB:0964       loc_1D514
 0CBB:097D       loc_1D52D
 0CBB:0980       loc_1D530
 0CBB:0994       loc_1D544
 0CBB:09A3       loc_1D553
 0CBB:09A7       loc_1D557
 0CBB:09AA       loc_1D55A
 0CBB:09B9       loc_1D569
 0CBB:09BF       loc_1D56F
 0CBB:09C7       loc_1D577
 0CBB:09CC       loc_1D57C
 0CBB:09CF       loc_1D57F
 0CBB:09D6       loc_1D586
 0CBB:09D7       loc_1D587
 0CBB:09DF       loc_1D58F
 0CBB:09E1       loc_1D591
 0CBB:09E4       locret_1D594
 0CBB:09E5       sub_1D595
 0CBB:09EE       loc_1D59E
 0CBB:09F6       loc_1D5A6
 0CBB:09FB       loc_1D5AB
 0CBB:09FD       loc_1D5AD
 0CBB:0A03       loc_1D5B3
 0CBB:0A04       loc_1D5B4
 0CBB:0A06       loc_1D5B6
 0CBB:0A0A       loc_1D5BA
 0CBB:0A0B       loc_1D5BB
 0CBB:0A0E       loc_1D5BE
 0CBB:0A11       loc_1D5C1
 0CBB:0A12       loc_1D5C2
 0CBB:0A13       loc_1D5C3
 0CBB:0A16       loc_1D5C6
 0CBB:0A18       loc_1D5C8
 0CBB:0A19       loc_1D5C9
 0CBB:0A1B       loc_1D5CB
 0CBB:0A1E       loc_1D5CE
 0CBB:0A20       loc_1D5D0
 0CBB:0A22       loc_1D5D2
 0CBB:0A23       loc_1D5D3
 0CBB:0A24       loc_1D5D4
 0CBB:0A26       loc_1D5D6
 0CBB:0A27       loc_1D5D7
 0CBB:0A28       loc_1D5D8
 0CBB:0A29       loc_1D5D9
 0CBB:0A2A       loc_1D5DA
 0CBB:0A2B       loc_1D5DB
 0CBB:0A2C       loc_1D5DC
 0CBB:0A2D       locret_1D5DD
 0D5D:000E       sub_1D5DE
 0D5D:000F       loc_1D5DF
 0D5D:0011       loc_1D5E1
 0D5D:0014       loc_1D5E4
 0D5D:0016       loc_1D5E6
 0D5D:0019       loc_1D5E9
 0D5D:001C       loc_1D5EC
 0D5D:0020       loc_1D5F0
 0D5D:0022       loc_1D5F2
 0D5D:0024       loc_1D5F4
 0D5D:0027       loc_1D5F7
 0D5D:002B       loc_1D5FB
 0D5D:002E       loc_1D5FE
 0D5D:0030       loc_1D600
 0D5D:0032       loc_1D602
 0D5D:0035       loc_1D605
 0D5D:003A       loc_1D60A
 0D5D:003D       loc_1D60D
 0D5D:0040       loc_1D610
 0D5D:0042       loc_1D612
 0D5D:0045       loc_1D615
 0D5D:004E       loc_1D61E
 0D5D:0051       loc_1D621
 0D5D:0056       loc_1D626
 0D5D:005C       loc_1D62C
 0D5D:005F       loc_1D62F
 0D5D:0061       loc_1D631
 0D5D:0064       loc_1D634
 0D5D:0065       loc_1D635
 0D5D:0067       loc_1D637
 0D5D:0069       loc_1D639
 0D5D:006A       loc_1D63A
 0D5D:0070       loc_1D640
 0D5D:0072       loc_1D642
 0D5D:0073       loc_1D643
 0D5D:0075       loc_1D645
 0D5D:0078       loc_1D648
 0D5D:007B       loc_1D64B
 0D5D:0080       loc_1D650
 0D5D:0087       loc_1D657
 0D5D:008A       loc_1D65A
 0D5D:008C       loc_1D65C
 0D5D:008F       loc_1D65F
 0D5D:0092       loc_1D662
 0D5D:0099       loc_1D669
 0D5D:009D       loc_1D66D
 0D5D:00A0       loc_1D670
 0D5D:00A2       loc_1D672
 0D5D:00A7       loc_1D677
 0D5D:00A9       loc_1D679
 0D5D:00AC       loc_1D67C
 0D5D:00AF       loc_1D67F
 0D5D:00B4       loc_1D684
 0D5D:00B5       loc_1D685
 0D5D:00B8       loc_1D688
 0D5D:00BA       loc_1D68A
 0D5D:00BF       loc_1D68F
 0D5D:00C4       loc_1D694
 0D5D:00C6       loc_1D696
 0D5D:00CB       loc_1D69B
 0D5D:00CE       loc_1D69E
 0D5D:00D6       loc_1D6A6
 0D5D:00D7       loc_1D6A7
 0D5D:00DF       loc_1D6AF
 0D5D:00E1       loc_1D6B1
 0D5D:00E4       loc_1D6B4
 0D5D:00E6       loc_1D6B6
 0D5D:00E8       loc_1D6B8
 0D5D:00EB       loc_1D6BB
 0D5D:00EE       loc_1D6BE
 0D5D:00F4       loc_1D6C4
 0D5D:00F5       loc_1D6C5
 0D5D:00F7       loc_1D6C7
 0D5D:00F9       loc_1D6C9
 0D5D:00FC       loc_1D6CC
 0D5D:00FE       loc_1D6CE
 0D5D:0103       loc_1D6D3
 0D5D:0109       sub_1D6D9
 0D5D:0118       loc_1D6E8
 0D5D:011B       loc_1D6EB
 0D5D:0121       loc_1D6F1
 0D5D:0123       loc_1D6F3
 0D5D:0125       loc_1D6F5
 0D5D:0127       loc_1D6F7
 0D5D:0129       loc_1D6F9
 0D5D:0131       loc_1D701
 0D5D:013E       loc_1D70E
 0D5D:0140       loc_1D710
 0D5D:0143       loc_1D713
 0D5D:0149       loc_1D719
 0D5D:014F       loc_1D71F
 0D5D:0154       sub_1D724
 0D5D:0158       loc_1D728
 0D5D:0159       loc_1D729
 0D5D:015C       loc_1D72C
 0D5D:015F       loc_1D72F
 0D5D:0165       loc_1D735
 0D5D:0168       loc_1D738
 0D5D:016F       loc_1D73F
 0D5D:0175       loc_1D745
 0D5D:0177       loc_1D747
 0D5D:017F       loc_1D74F
 0D5D:0181       loc_1D751
 0D5D:0185       loc_1D755
 0D5D:018C       loc_1D75C
 0D5D:018E       loc_1D75E
 0D5D:0191       loc_1D761
 0D5D:0193       loc_1D763
 0D5D:0195       loc_1D765
 0D5D:019D       loc_1D76D
 0D5D:019F       loc_1D76F
 0D5D:01A5       loc_1D775
 0D5D:01AB       loc_1D77B
 0D5D:01AD       loc_1D77D
 0D5D:01AF       loc_1D77F
 0D5D:01B1       loc_1D781
 0D5D:01B5       sub_1D785
 0D5D:01BD       loc_1D78D
 0D5D:01D2       loc_1D7A2
 0D5D:01DB       loc_1D7AB
 0D5D:01E3       loc_1D7B3
 0D5D:01EA       loc_1D7BA
 0D5D:01EF       loc_1D7BF
 0D5D:01FA       loc_1D7CA
 0D5D:01FD       loc_1D7CD
 0D5D:0204       loc_1D7D4
 0D5D:0209       loc_1D7D9
 0D5D:0214       loc_1D7E4
 0D5D:021F       loc_1D7EF
 0D5D:022A       loc_1D7FA
 0D5D:023A       loc_1D80A
 0D5D:0246       loc_1D816
 0D5D:024B       loc_1D81B
 0D5D:025C       loc_1D82C
 0D5D:025D       loc_1D82D
 0D5D:0264       loc_1D834
 0D5D:0266       loc_1D836
 0D5D:026F       loc_1D83F
 0D5D:0277       loc_1D847
 0D5D:027C       loc_1D84C
 0D5D:0289       loc_1D859
 0D5D:028C       loc_1D85C
 0D5D:028E       loc_1D85E
 0D5D:0291       loc_1D861
 0D5D:0299       loc_1D869
 0D5D:029E       loc_1D86E
 0D5D:02B0       loc_1D880
 0D5D:02B4       loc_1D884
 0D5D:02BD       loc_1D88D
 0D5D:02C5       loc_1D895
 0D5D:02CA       loc_1D89A
 0D5D:02CD       loc_1D89D
 0D5D:02CF       loc_1D89F
 0D5D:02D7       loc_1D8A7
 0D5D:02DA       loc_1D8AA
 0D5D:02DE       loc_1D8AE
 0D5D:02E0       loc_1D8B0
 0D5D:02E9       loc_1D8B9
 0D5D:02EE       loc_1D8BE
 0D5D:02F1       loc_1D8C1
 0D5D:0300       loc_1D8D0
 0D5D:0302       loc_1D8D2
 0D5D:0303       loc_1D8D3
 0D5D:0306       loc_1D8D6
 0D5D:0308       loc_1D8D8
 0D5D:030A       loc_1D8DA
 0D5D:030C       loc_1D8DC
 0D5D:031F       loc_1D8EF
 0D5D:0324       loc_1D8F4
 0D5D:0327       loc_1D8F7
 0D5D:032A       loc_1D8FA
 0D5D:032C       loc_1D8FC
 0D5D:0330       loc_1D900
 0D5D:0332       loc_1D902
 0D5D:0336       sub_1D906
 0D5D:033C       loc_1D90C
 0D5D:033E       loc_1D90E
 0D5D:0348       loc_1D918
 0D5D:0356       loc_1D926
 0D5D:0364       loc_1D934
 0D5D:036A       loc_1D93A
 0D5D:0370       loc_1D940
 0D5D:037B       loc_1D94B
 0D5D:038D       loc_1D95D
 0D5D:0390       loc_1D960
 0D5D:0396       loc_1D966
 0D5D:039C       loc_1D96C
 0D5D:03A2       loc_1D972
 0D5D:03AE       loc_1D97E
 0D5D:03B3       loc_1D983
 0D5D:03B6       loc_1D986
 0D5D:03BD       loc_1D98D
 0D5D:03C2       loc_1D992
 0D5D:03CD       loc_1D99D
 0D5D:03D0       loc_1D9A0
 0D5D:03D7       loc_1D9A7
 0D5D:03DC       loc_1D9AC
 0D5D:03E7       loc_1D9B7
 0D5D:03F0       loc_1D9C0
 0D5D:0402       loc_1D9D2
 0D5D:0409       loc_1D9D9
 0D5D:040D       loc_1D9DD
 0D5D:0410       loc_1D9E0
 0D5D:041B       loc_1D9EB
 0D5D:041E       loc_1D9EE
 0D5D:0430       loc_1DA00
 0D5D:0436       loc_1DA06
 0D5D:043D       loc_1DA0D
 0D5D:043F       loc_1DA0F
 0D5D:044D       loc_1DA1D
 0D5D:0450       loc_1DA20
 0D5D:0468       loc_1DA38
 0D5D:046B       loc_1DA3B
 0D5D:046D       loc_1DA3D
 0D5D:0470       loc_1DA40
 0D5D:0486       loc_1DA56
 0D5D:048F       loc_1DA5F
 0D5D:0493       loc_1DA63
 0D5D:049F       loc_1DA6F
 0D5D:04A4       loc_1DA74
 0D5D:04AC       loc_1DA7C
 0D5D:04AF       loc_1DA7F
 0D5D:04BC       loc_1DA8C
 0D5D:04C3       loc_1DA93
 0D5D:04C5       loc_1DA95
 0D5D:04C8       loc_1DA98
 0D5D:04D6       loc_1DAA6
 0D5D:04E1       loc_1DAB1
 0D5D:04E3       loc_1DAB3
 0D5D:04E8       loc_1DAB8
 0D5D:04EE       loc_1DABE
 0D5D:04F3       loc_1DAC3
 0D5D:04F5       loc_1DAC5
 0D5D:04F7       loc_1DAC7
 0D5D:0508       loc_1DAD8
 0D5D:0518       loc_1DAE8
 0D5D:051D       loc_1DAED
 0D5D:051F       loc_1DAEF
 0D5D:0521       loc_1DAF1
 0D5D:0526       loc_1DAF6
 0D5D:052E       loc_1DAFE
 0D5D:0530       loc_1DB00
 0D5D:0532       loc_1DB02
 0D5D:053C       loc_1DB0C
 0D5D:053D       loc_1DB0D
 0D5D:0545       loc_1DB15
 0D5D:0552       loc_1DB22
 0D5D:0555       loc_1DB25
 0D5D:0557       loc_1DB27
 0D5D:0559       loc_1DB29
 0D5D:055C       loc_1DB2C
 0D5D:0561       loc_1DB31
 0D5D:0563       loc_1DB33
 0D5D:0564       loc_1DB34
 0D5D:0566       loc_1DB36
 0D5D:0568       loc_1DB38
 0D5D:056A       loc_1DB3A
 0D5D:056C       loc_1DB3C
 0D5D:056D       loc_1DB3D
 0D5D:056E       loc_1DB3E
 0D5D:0570       loc_1DB40
 0D5D:0571       locret_1DB41
 0DB4:0002       IfDebugExitWithMemDiag
 0DB4:0003       loc_1DB43
 0DB4:0005       loc_1DB45
 0DB4:000A       loc_1DB4A
 0DB4:000C       loc_1DB4C
 0DB4:000E       loc_1DB4E
 0DB4:0010       loc_1DB50
 0DB4:0015       loc_1DB55
 0DB4:0016       locret_1DB56
 0DB4:0017       ST_ScreenDump
 0DB4:0027       NOT_DEBUG_MODE
 0DB4:002C       DEBUG_MODE_SET
 0DB4:0031       loc_1DB71
 0DB4:004C       loc_1DB8C
 0DB4:004F       loc_1DB8F
 0DB4:0055       loc_1DB95
 0DB4:008C       loc_1DBCC
 0DB4:00A0       BUILD_FILENAME
 0DB4:00CF       loc_1DC0F
 0DB4:00E6       loc_1DC26
 0DB4:00E9       WRITE_SCRNDMP
 0DB4:01D9       ALL_ZEROES
 0DB4:01EF       LOOP_x55
 0DB4:02EC       LOOP_x4
 0DB4:0310       loc_1DE50
 0DB4:0352       LOOP_x200
 0DB4:0376       loc_1DEB6
 0DB4:0414       END_FUNC
 0DB4:041A       DOS_ReadBlockOfDacRegisters
 0DB4:0443       ST_Read_VGA_Buffer
 0DB4:0465       LOOP_x80
 0DB4:046C       loc_1DFAC
 0DB4:046E       loc_1DFAE
 0DB4:049E       ST_SetDebugModeTrue
 0DB4:04A9       fncCheckDebugMode
 0DB4:04AF       loc_1DFEF
 0DB4:04C0       loc_1E000
 0DB4:04C6       loc_1E006
 0DB4:04D9       loc_1E019
 0DB4:04DF       loc_1E01F
 0DB4:04E3       loc_1E023
 0DB4:0503       loc_1E043
 0DB4:050D       _idk_EGA_s1E04D
 0DB4:0518       loc_1E058
 0DB4:0565       loc_1E0A5
 0DB4:0574       loc_1E0B4
 0DB4:0576       loc_1E0B6
 0DB4:057E       loc_1E0BE
 0DB4:0583       loc_1E0C3
 0DB4:0586       loc_1E0C6
 0DB4:0587       loc_1E0C7
 0DB4:0589       loc_1E0C9
 0DB4:058A       loc_1E0CA
 0DB4:058C       loc_1E0CC
 0DB4:058E       loc_1E0CE
 0DB4:058F       loc_1E0CF
 0E0D:0004       idk_MemAndVid_w1E0D4
 0E0D:0006       word_1E0D6
 0E0D:0008       ST_LibMalloc_w31D10
 0E0D:000A       idk_MemAndVid_s1E0DA
 0E0D:000E       loc_1E0DE
 0E0D:0036       loc_1E106
 0E0D:0038       loc_1E108
 0E0D:003C       loc_1E10C
 0E0D:003D       loc_1E10D
 0E0D:003E       loc_1E10E
 0E0D:007D       loc_1E14D
 0E0D:0082       loc_1E152
 0E0D:0089       loc_1E159
 0E0D:008B       loc_1E15B
 0E0D:008D       loc_1E15D
 0E0D:008F       loc_1E15F
 0E0D:0091       loc_1E161
 0E0D:0095       loc_1E165
 0E0D:009C       loc_1E16C
 0E0D:00AB       loc_1E17B
 0E0D:00AE       loc_1E17E
 0E0D:00B0       loc_1E180
 0E0D:00B3       loc_1E183
 0E0D:00B5       loc_1E185
 0E0D:00B9       loc_1E189
 0E0D:00BF       loc_1E18F
 0E0D:00C0       loc_1E190
 0E0D:00C7       loc_1E197
 0E0D:00C8       loc_1E198
 0E0D:00CD       loc_1E19D
 0E0D:00D7       loc_1E1A7
 0E0D:00DF       loc_1E1AF
 0E0D:00E3       loc_1E1B3
 0E0D:00E7       loc_1E1B7
 0E0D:00E9       loc_1E1B9
 0E0D:00EC       loc_1E1BC
 0E0D:00F0       loc_1E1C0
 0E0D:00F7       loc_1E1C7
 0E0D:00FA       loc_1E1CA
 0E0D:00FC       loc_1E1CC
 0E0D:00FE       loc_1E1CE
 0E0D:0109       loc_1E1D9
 0E0D:0113       loc_1E1E3
 0E0D:0126       loc_1E1F6
 0E0D:0128       loc_1E1F8
 0E0D:012F       loc_1E1FF
 0E0D:0135       loc_1E205
 0E0D:013E       loc_1E20E
 0E0D:0140       loc_1E210
 0E0D:014C       loc_1E21C
 0E0D:0150       loc_1E220
 0E0D:0157       loc_1E227
 0E0D:0159       loc_1E229
 0E0D:015B       loc_1E22B
 0E0D:015D       loc_1E22D
 0E0D:0165       loc_1E235
 0E0D:0167       loc_1E237
 0E0D:016B       loc_1E23B
 0E0D:017F       loc_1E24F
 0E0D:0181       loc_1E251
 0E0D:0186       loc_1E256
 0E0D:018F       loc_1E25F
 0E0D:0190       loc_1E260
 0E0D:01A1       loc_1E271
 0E0D:01A3       loc_1E273
 0E0D:01AB       loc_1E27B
 0E0D:01B1       loc_1E281
 0E0D:01B8       loc_1E288
 0E0D:01C8       loc_1E298
 0E0D:01CB       loc_1E29B
 0E0D:01D0       locret_1E2A0
 0E0D:01D1       sub_1E2A1
 0E0D:01D2       loc_1E2A2
 0E0D:01D9       loc_1E2A9
 0E0D:01E1       loc_1E2B1
 0E0D:01E8       loc_1E2B8
 0E0D:01F8       loc_1E2C8
 0E0D:0200       idk_VidLib_s1E2D0
 0E0D:0247       loc_1E317
 0E0D:0251       loc_1E321
 0E0D:025C       loc_1E32C
 0E0D:0260       loc_1E330
 0E0D:0266       loc_1E336
 0E0D:0270       loc_1E340
 0E0D:0276       loc_1E346
 0E0D:0279       loc_1E349
 0E0D:027E       loc_1E34E
 0E0D:0281       loc_1E351
 0E0D:028C       loc_1E35C
 0E0D:02A1       loc_1E371
 0E0D:02A2       loc_1E372
 0E0D:02A5       loc_1E375
 0E0D:02B3       loc_1E383
 0E0D:02B5       loc_1E385
 0E0D:02BE       loc_1E38E
 0E0D:02D0       loc_1E3A0
 0E0D:02D5       loc_1E3A5
 0E0D:02D7       loc_1E3A7
 0E0D:02E0       loc_1E3B0
 0E0D:02EC       loc_1E3BC
 0E0D:02F7       loc_1E3C7
 0E0D:02FE       loc_1E3CE
 0E0D:0300       loc_1E3D0
 0E0D:0301       loc_1E3D1
 0E0D:0304       loc_1E3D4
 0E0D:0306       loc_1E3D6
 0E0D:0309       loc_1E3D9
 0E0D:030E       loc_1E3DE
 0E0D:0312       loc_1E3E2
 0E0D:031B       loc_1E3EB
 0E0D:032F       loc_1E3FF
 0E0D:0336       loc_1E406
 0E0D:033B       loc_1E40B
 0E0D:0343       loc_1E413
 0E0D:034A       loc_1E41A
 0E0D:034F       loc_1E41F
 0E0D:0353       loc_1E423
 0E0D:0358       loc_1E428
 0E0D:035E       loc_1E42E
 0E0D:0360       loc_1E430
 0E0D:0364       loc_1E434
 0E0D:0366       loc_1E436
 0E0D:0371       loc_1E441
 0E0D:0376       loc_1E446
 0E0D:0378       loc_1E448
 0E0D:0379       loc_1E449
 0E0D:0386       loc_1E456
 0E0D:038B       loc_1E45B
 0E0D:0394       loc_1E464
 0E0D:039E       loc_1E46E
 0E0D:03A1       loc_1E471
 0E0D:03A6       loc_1E476
 0E0D:03A9       loc_1E479
 0E0D:03AD       loc_1E47D
 0E0D:03B0       loc_1E480
 0E0D:03C0       loc_1E490
 0E0D:03C4       loc_1E494
 0E0D:03C6       loc_1E496
 0E0D:03C9       loc_1E499
 0E0D:03CB       loc_1E49B
 0E0D:03D0       loc_1E4A0
 0E0D:03D3       loc_1E4A3
 0E0D:03D6       loc_1E4A6
 0E0D:03D8       loc_1E4A8
 0E0D:03D9       loc_1E4A9
 0E0D:03DA       loc_1E4AA
 0E0D:03DC       loc_1E4AC
 0E0D:03DF       loc_1E4AF
 0E0D:03E2       loc_1E4B2
 0E0D:03E4       loc_1E4B4
 0E0D:03E7       loc_1E4B7
 0E0D:03E8       locret_1E4B8
 0E4B:000A       idk_VGA_s1E4BA
 0E4B:001C       VGA_MathThenSetVarToVgaLoc
 0E4B:001F       loc_1E4CF
 0E4B:0023       loc_1E4D3
 0E4B:0025       loc_1E4D5
 0E4B:0027       loc_1E4D7
 0E4B:002B       loc_1E4DB
 0E4B:0032       sub_1E4E2
 0E4B:003A       loc_1E4EA
 0E4B:003E       loc_1E4EE
 0E4B:0041       idk_VGA_CRTR_s1E4F1
 0E4B:0075       sub_1E525
 0E4B:008D       loc_1E53D
 0E4B:0096       locret_1E546
 0E4B:0097       sub_1E547
 0E4B:0098       loc_1E548
 0E4B:009E       loc_1E54E
 0E4B:009F       loc_1E54F
 0E4B:00A0       loc_1E550
 0E4B:00AB       loc_1E55B
 0E4B:00B3       loc_1E563
 0E4B:00B8       loc_1E568
 0E4B:00BB       loc_1E56B
 0E4B:00BE       loc_1E56E
 0E4B:00C0       loc_1E570
 0E4B:00C6       loc_1E576
 0E4B:00CB       loc_1E57B
 0E4B:00D7       loc_1E587
 0E4B:00DD       loc_1E58D
 0E4B:00E0       loc_1E590
 0E4B:00E3       loc_1E593
 0E4B:00E4       loc_1E594
 0E4B:00E7       loc_1E597
 0E4B:00EA       loc_1E59A
 0E4B:00ED       loc_1E59D
 0E4B:00EF       loc_1E59F
 0E4B:00F1       loc_1E5A1
 0E4B:00F7       loc_1E5A7
 0E4B:00F9       loc_1E5A9
 0E4B:00FA       loc_1E5AA
 0E4B:00FD       loc_1E5AD
 0E4B:00FF       loc_1E5AF
 0E4B:010A       loc_1E5BA
 0E4B:011B       loc_1E5CB
 0E4B:011C       loc_1E5CC
 0E4B:0126       loc_1E5D6
 0E4B:0130       loc_1E5E0
 0E4B:013A       loc_1E5EA
 0E4B:013D       loc_1E5ED
 0E4B:0140       loc_1E5F0
 0E4B:0150       loc_1E600
 0E4B:015C       locret_1E60C
 0E4B:015D       sub_1E60D
 0E4B:015E       loc_1E60E
 0E4B:015F       loc_1E60F
 0E4B:0161       loc_1E611
 0E4B:0166       loc_1E616
 0E4B:017F       loc_1E62F
 0E4B:0186       loc_1E636
 0E4B:018A       loc_1E63A
 0E4B:019D       loc_1E64D
 0E4B:01AC       sub_1E65C
 0E4B:01B0       loc_1E660
 0E4B:01BF       loc_1E66F
 0E4B:01C9       loc_1E679
 0E4B:01D2       loc_1E682
 0E4B:01E5       loc_1E695
 0E4B:01EF       sub_1E69F
 0E4B:01F6       loc_1E6A6
 0E4B:01FC       loc_1E6AC
 0E4B:0200       loc_1E6B0
 0E4B:020A       loc_1E6BA
 0E4B:020E       loc_1E6BE
 0E4B:0220       loc_1E6D0
 0E4B:0222       loc_1E6D2
 0E4B:022A       loc_1E6DA
 0E4B:0230       loc_1E6E0
 0E4B:0232       sub_1E6E2
 0E4B:0239       loc_1E6E9
 0E4B:023F       loc_1E6EF
 0E4B:0245       loc_1E6F5
 0E4B:024F       loc_1E6FF
 0E4B:0264       loc_1E714
 0E4B:0278       loc_1E728
 0E4B:027C       loc_1E72C
 0E4B:0288       loc_1E738
 0E4B:0292       loc_1E742
 0E4B:029C       loc_1E74C
 0E4B:02A3       loc_1E753
 0E4B:02A8       loc_1E758
 0E4B:02AE       loc_1E75E
 0E4B:02B0       loc_1E760
 0E4B:02B2       loc_1E762
 0E4B:02BE       loc_1E76E
 0E4B:02C2       loc_1E772
 0E4B:02C4       loc_1E774
 0E4B:02CC       loc_1E77C
 0E4B:02CF       loc_1E77F
 0E4B:02D3       loc_1E783
 0E4B:02D6       loc_1E786
 0E4B:02D8       loc_1E788
 0E4B:02DA       loc_1E78A
 0E4B:02DB       loc_1E78B
 0E4B:02DD       loc_1E78D
 0E4B:02E0       loc_1E790
 0E4B:02E2       loc_1E792
 0E4B:02E4       loc_1E794
 0E4B:02E5       loc_1E795
 0E4B:02E7       loc_1E797
 0E4B:02EA       loc_1E79A
 0E4B:02EC       loc_1E79C
 0E4B:02EE       loc_1E79E
 0E4B:02EF       loc_1E79F
 0E4B:02F1       loc_1E7A1
 0E4B:02F4       loc_1E7A4
 0E4B:02F6       loc_1E7A6
 0E4B:02F7       loc_1E7A7
 0E4B:02F8       loc_1E7A8
 0E4B:02F9       loc_1E7A9
 0E4B:02FA       loc_1E7AA
 0E4B:02FB       locret_1E7AB
 0E7A:000C       sub_1E7AC
 0E7A:000D       loc_1E7AD
 0E7A:000F       loc_1E7AF
 0E7A:0010       loc_1E7B0
 0E7A:0012       loc_1E7B2
 0E7A:0013       loc_1E7B3
 0E7A:0016       loc_1E7B6
 0E7A:0018       loc_1E7B8
 0E7A:0019       loc_1E7B9
 0E7A:001C       loc_1E7BC
 0E7A:001E       loc_1E7BE
 0E7A:0020       loc_1E7C0
 0E7A:0022       loc_1E7C2
 0E7A:0024       loc_1E7C4
 0E7A:0028       loc_1E7C8
 0E7A:002A       loc_1E7CA
 0E7A:002D       loc_1E7CD
 0E7A:002F       loc_1E7CF
 0E7A:0031       loc_1E7D1
 0E7A:0033       loc_1E7D3
 0E7A:0035       loc_1E7D5
 0E7A:0038       loc_1E7D8
 0E7A:003B       loc_1E7DB
 0E7A:003D       loc_1E7DD
 0E7A:003E       loc_1E7DE
 0E7A:0040       loc_1E7E0
 0E7A:0043       loc_1E7E3
 0E7A:0046       loc_1E7E6
 0E7A:0049       loc_1E7E9
 0E7A:004B       loc_1E7EB
 0E7A:004D       loc_1E7ED
 0E7A:004E       loc_1E7EE
 0E7A:0051       loc_1E7F1
 0E7A:0054       loc_1E7F4
 0E7A:0057       loc_1E7F7
 0E7A:005C       loc_1E7FC
 0E7A:005E       loc_1E7FE
 0E7A:0061       loc_1E801
 0E7A:0063       loc_1E803
 0E7A:0066       loc_1E806
 0E7A:0068       loc_1E808
 0E7A:006C       loc_1E80C
 0E7A:0070       loc_1E810
 0E7A:0073       loc_1E813
 0E7A:0075       loc_1E815
 0E7A:0079       loc_1E819
 0E7A:007B       loc_1E81B
 0E7A:007E       loc_1E81E
 0E7A:0080       loc_1E820
 0E7A:0087       loc_1E827
 0E7A:0088       loc_1E828
 0E7A:008B       loc_1E82B
 0E7A:008D       loc_1E82D
 0E7A:0090       loc_1E830
 0E7A:0092       loc_1E832
 0E7A:0096       loc_1E836
 0E7A:0098       loc_1E838
 0E7A:009B       loc_1E83B
 0E7A:009D       loc_1E83D
 0E7A:009F       loc_1E83F
 0E7A:00A0       loc_1E840
 0E7A:00A2       loc_1E842
 0E7A:00A6       loc_1E846
 0E7A:00AB       loc_1E84B
 0E7A:00AD       loc_1E84D
 0E7A:00AF       loc_1E84F
 0E7A:00B3       loc_1E853
 0E7A:00B8       loc_1E858
 0E7A:00BA       loc_1E85A
 0E7A:00BE       loc_1E85E
 0E7A:00C0       loc_1E860
 0E7A:00C7       loc_1E867
 0E7A:00C8       loc_1E868
 0E7A:00CA       loc_1E86A
 0E7A:00CB       loc_1E86B
 0E7A:00CD       loc_1E86D
 0E7A:00CF       loc_1E86F
 0E7A:00D0       loc_1E870
 0E7A:00D3       loc_1E873
 0E7A:00D5       loc_1E875
 0E7A:00DC       loc_1E87C
 0E7A:00DE       loc_1E87E
 0E7A:00E0       loc_1E880
 0E7A:00E3       loc_1E883
 0E7A:00E5       loc_1E885
 0E7A:00E6       loc_1E886
 0E7A:00E7       loc_1E887
 0E7A:00EA       loc_1E88A
 0E7A:00ED       loc_1E88D
 0E7A:00F0       loc_1E890
 0E7A:00F3       loc_1E893
 0E7A:00F7       loc_1E897
 0E7A:00F9       loc_1E899
 0E7A:00FB       loc_1E89B
 0E7A:00FE       loc_1E89E
 0E7A:0100       loc_1E8A0
 0E7A:0103       loc_1E8A3
 0E7A:0106       loc_1E8A6
 0E7A:010C       sub_1E8AC
 0E7A:0110       loc_1E8B0
 0E7A:0118       loc_1E8B8
 0E7A:011C       loc_1E8BC
 0E7A:011E       loc_1E8BE
 0E7A:0124       loc_1E8C4
 0E7A:0127       loc_1E8C7
 0E7A:0129       loc_1E8C9
 0E7A:012D       loc_1E8CD
 0E7A:012F       loc_1E8CF
 0E7A:013F       loc_1E8DF
 0E7A:014C       loc_1E8EC
 0E7A:0153       loc_1E8F3
 0E7A:0154       loc_1E8F4
 0E7A:015B       loc_1E8FB
 0E7A:015D       loc_1E8FD
 0E7A:015F       loc_1E8FF
 0E7A:0165       loc_1E905
 0E7A:0166       loc_1E906
 0E7A:016F       loc_1E90F
 0E7A:0171       loc_1E911
 0E7A:0173       loc_1E913
 0E7A:017C       loc_1E91C
 0E7A:017F       loc_1E91F
 0E7A:0181       loc_1E921
 0E7A:0184       loc_1E924
 0E7A:018B       loc_1E92B
 0E7A:019C       loc_1E93C
 0E7A:01A4       loc_1E944
 0E7A:01A8       loc_1E948
 0E7A:01B1       loc_1E951
 0E7A:01B8       loc_1E958
 0E7A:01BC       loc_1E95C
 0E7A:01BE       loc_1E95E
 0E7A:01C9       loc_1E969
 0E7A:01D0       loc_1E970
 0E7A:01D2       loc_1E972
 0E7A:01D3       loc_1E973
 0E7A:01D8       loc_1E978
 0E7A:01DE       loc_1E97E
 0E7A:01E0       loc_1E980
 0E7A:01E5       loc_1E985
 0E7A:01ED       loc_1E98D
 0E7A:01F3       loc_1E993
 0E7A:01FE       loc_1E99E
 0E7A:0200       loc_1E9A0
 0E7A:0215       loc_1E9B5
 0E7A:0219       loc_1E9B9
 0E7A:0220       loc_1E9C0
 0E7A:022D       loc_1E9CD
 0E7A:0231       loc_1E9D1
 0E7A:0236       loc_1E9D6
 0E7A:023D       loc_1E9DD
 0E7A:0240       loc_1E9E0
 0E7A:0247       loc_1E9E7
 0E7A:024C       loc_1E9EC
 0E7A:024F       loc_1E9EF
 0E7A:0255       loc_1E9F5
 0E7A:025A       loc_1E9FA
 0E7A:025E       loc_1E9FE
 0E7A:0275       loc_1EA15
 0E7A:027C       loc_1EA1C
 0E7A:0284       loc_1EA24
 0E7A:028E       loc_1EA2E
 0E7A:0291       loc_1EA31
 0E7A:029A       loc_1EA3A
 0E7A:029F       loc_1EA3F
 0E7A:02A7       loc_1EA47
 0E7A:02A9       loc_1EA49
 0E7A:02B1       loc_1EA51
 0E7A:02B4       loc_1EA54
 0E7A:02BD       loc_1EA5D
 0E7A:02D1       loc_1EA71
 0E7A:02D6       loc_1EA76
 0E7A:02DE       loc_1EA7E
 0E7A:02EA       loc_1EA8A
 0E7A:02EF       loc_1EA8F
 0E7A:02F8       word_1EA98
 0E7A:02FA       word_1EA9A
 0E7A:02FC       word_1EA9C
 0E7A:02FE       sub_1EA9E
 0E7A:02FF       loc_1EA9F
 0E7A:0302       loc_1EAA2
 0E7A:030A       loc_1EAAA
 0E7A:033D       loc_1EADD
 0E7A:0348       loc_1EAE8
 0E7A:034D       loc_1EAED
 0E7A:034F       loc_1EAEF
 0E7A:035E       loc_1EAFE
 0E7A:0370       loc_1EB10
 0E7A:0373       loc_1EB13
 0E7A:037E       loc_1EB1E
 0E7A:0384       loc_1EB24
 0E7A:0386       loc_1EB26
 0E7A:038D       loc_1EB2D
 0E7A:039F       loc_1EB3F
 0E7A:03AC       loc_1EB4C
 0E7A:03BC       locret_1EB5C
 0E7A:03BD       loc_1EB5D
 0E7A:03C2       loc_1EB62
 0E7A:03C5       loc_1EB65
 0E7A:03CD       loc_1EB6D
 0E7A:03CF       loc_1EB6F
 0E7A:03D1       loc_1EB71
 0E7A:03D9       loc_1EB79
 0E7A:03E7       loc_1EB87
 0E7A:03EC       loc_1EB8C
 0E7A:03EE       loc_1EB8E
 0E7A:03F4       loc_1EB94
 0E7A:03F9       loc_1EB99
 0E7A:03FA       loc_1EB9A
 0E7A:0400       loc_1EBA0
 0E7A:0403       loc_1EBA3
 0E7A:0410       loc_1EBB0
 0E7A:0418       loc_1EBB8
 0E7A:041D       loc_1EBBD
 0E7A:0421       loc_1EBC1
 0E7A:0423       loc_1EBC3
 0E7A:042A       loc_1EBCA
 0E7A:042C       loc_1EBCC
 0E7A:042E       loc_1EBCE
 0E7A:0430       loc_1EBD0
 0E7A:0433       loc_1EBD3
 0E7A:0435       loc_1EBD5
 0E7A:043C       loc_1EBDC
 0E7A:0447       loc_1EBE7
 0E7A:0454       loc_1EBF4
 0E7A:0455       loc_1EBF5
 0E7A:0457       loc_1EBF7
 0E7A:045B       loc_1EBFB
 0E7A:0464       loc_1EC04
 0E7A:046B       loc_1EC0B
 0E7A:046D       loc_1EC0D
 0E7A:0471       loc_1EC11
 0E7A:0478       loc_1EC18
 0E7A:047D       loc_1EC1D
 0E7A:047F       loc_1EC1F
 0E7A:0480       loc_1EC20
 0E7A:0484       loc_1EC24
 0E7A:0485       loc_1EC25
 0E7A:048A       loc_1EC2A
 0E7A:048D       loc_1EC2D
 0E7A:048F       loc_1EC2F
 0E7A:0491       loc_1EC31
 0E7A:049B       loc_1EC3B
 0E7A:04A5       loc_1EC45
 0E7A:04B0       loc_1EC50
 0E7A:04B8       loc_1EC58
 0E7A:04BB       loc_1EC5B
 0E7A:04BC       loc_1EC5C
 0E7A:04C1       sub_1EC61
 0E7A:04C4       loc_1EC64
 0E7A:04CA       loc_1EC6A
 0E7A:04CC       loc_1EC6C
 0E7A:04D1       loc_1EC71
 0E7A:04E0       loc_1EC80
 0E7A:04E8       sub_1EC88
 0E7A:04EB       loc_1EC8B
 0E7A:04FB       loc_1EC9B
 0E7A:04FF       loc_1EC9F
 0E7A:050A       loc_1ECAA
 0E7A:050F       loc_1ECAF
 0E7A:051C       loc_1ECBC
 0E7A:051E       loc_1ECBE
 0E7A:052A       loc_1ECCA
 0E7A:052F       loc_1ECCF
 0E7A:0539       loc_1ECD9
 0E7A:0546       loc_1ECE6
 0E7A:0556       loc_1ECF6
 0E7A:0558       loc_1ECF8
 0E7A:0564       loc_1ED04
 0E7A:0569       loc_1ED09
 0E7A:057D       loc_1ED1D
 0E7A:0583       loc_1ED23
 0E7A:058D       loc_1ED2D
 0E7A:0590       loc_1ED30
 0E7A:0596       loc_1ED36
 0E7A:0598       loc_1ED38
 0E7A:059D       loc_1ED3D
 0E7A:05AC       loc_1ED4C
 0E7A:05B8       loc_1ED58
 0E7A:05BD       loc_1ED5D
 0E7A:05BF       loc_1ED5F
 0E7A:05C3       loc_1ED63
 0E7A:05C8       loc_1ED68
 0E7A:05D0       loc_1ED70
 0E7A:05D2       loc_1ED72
 0E7A:05DC       loc_1ED7C
 0E7A:05DF       loc_1ED7F
 0E7A:05F1       loc_1ED91
 0E7A:05F6       loc_1ED96
 0E7A:05FA       loc_1ED9A
 0E7A:05FD       loc_1ED9D
 0E7A:05FF       loc_1ED9F
 0E7A:0601       loc_1EDA1
 0E7A:0603       loc_1EDA3
 0E7A:0607       loc_1EDA7
 0E7A:060E       loc_1EDAE
 0E7A:0610       loc_1EDB0
 0E7A:0612       loc_1EDB2
 0E7A:0617       loc_1EDB7
 0E7A:061E       loc_1EDBE
 0E7A:0623       loc_1EDC3
 0E7A:0625       loc_1EDC5
 0E7A:0637       loc_1EDD7
 0E7A:0642       loc_1EDE2
 0E7A:0652       loc_1EDF2
 0E7A:0657       loc_1EDF7
 0E7A:0660       loc_1EE00
 0E7A:0669       loc_1EE09
 0E7A:066E       loc_1EE0E
 0E7A:0670       loc_1EE10
 0E7A:067A       loc_1EE1A
 0E7A:067C       loc_1EE1C
 0E7A:0686       loc_1EE26
 0E7A:0689       loc_1EE29
 0E7A:068B       loc_1EE2B
 0E7A:068E       loc_1EE2E
 0E7A:0691       loc_1EE31
 0E7A:069A       loc_1EE3A
 0E7A:069C       loc_1EE3C
 0E7A:06A0       loc_1EE40
 0E7A:06A2       loc_1EE42
 0E7A:06A8       loc_1EE48
 0E7A:06AC       loc_1EE4C
 0E7A:06AE       loc_1EE4E
 0E7A:06B3       loc_1EE53
 0E7A:06B8       loc_1EE58
 0E7A:06BB       loc_1EE5B
 0E7A:06BE       loc_1EE5E
 0E7A:06C2       loc_1EE62
 0E7A:06C4       loc_1EE64
 0E7A:06C7       loc_1EE67
 0E7A:06CA       loc_1EE6A
 0E7A:06CC       loc_1EE6C
 0E7A:06CF       loc_1EE6F
 0E7A:06D0       locret_1EE70
 0EE7:0001       sub_1EE71
 0EE7:0002       loc_1EE72
 0EE7:0004       loc_1EE74
 0EE7:0007       loc_1EE77
 0EE7:0008       loc_1EE78
 0EE7:000B       loc_1EE7B
 0EE7:000D       loc_1EE7D
 0EE7:000E       loc_1EE7E
 0EE7:000F       loc_1EE7F
 0EE7:0014       loc_1EE84
 0EE7:0016       loc_1EE86
 0EE7:0017       loc_1EE87
 0EE7:001A       loc_1EE8A
 0EE7:001B       loc_1EE8B
 0EE7:001C       loc_1EE8C
 0EE7:0022       loc_1EE92
 0EE7:0023       loc_1EE93
 0EE7:0025       loc_1EE95
 0EE7:0026       loc_1EE96
 0EE7:0028       loc_1EE98
 0EE7:002B       loc_1EE9B
 0EE7:002E       loc_1EE9E
 0EE7:0032       loc_1EEA2
 0EE7:0035       loc_1EEA5
 0EE7:003A       loc_1EEAA
 0EE7:003B       loc_1EEAB
 0EE7:0040       loc_1EEB0
 0EE7:0044       loc_1EEB4
 0EE7:0046       loc_1EEB6
 0EE7:0048       hrmStoreSWSB
 0EE7:0049       loc_1EEB9
 0EE7:004B       loc_1EEBB
 0EE7:004E       loc_1EEBE
 0EE7:004F       loc_1EEBF
 0EE7:0050       loc_1EEC0
 0EE7:005A       loc_1EECA
 0EE7:005F       loc_1EECF
 0EE7:0062       loc_1EED2
 0EE7:0065       loc_1EED5
 0EE7:0068       loc_1EED8
 0EE7:0069       loc_1EED9
 0EE7:006C       loc_1EEDC
 0EE7:0089       loc_1EEF9
 0EE7:008E       loc_1EEFE
 0EE7:0091       loc_1EF01
 0EE7:009C       loc_1EF0C
 0EE7:00B0       loc_1EF20
 0EE7:00B4       loc_1EF24
 0EE7:00B5       loc_1EF25
 0EE7:00B8       loc_1EF28
 0EE7:00BA       loc_1EF2A
 0EE7:00BD       loc_1EF2D
 0EE7:00C7       loc_1EF37
 0EE7:00C8       loc_1EF38
 0EE7:00CC       sub_1EF3C
 0EE7:00CD       loc_1EF3D
 0EE7:00D7       loc_1EF47
 0EE7:00E0       loc_1EF50
 0EE7:00E1       loc_1EF51
 0EE7:00E4       loc_1EF54
 0EE7:00E7       loc_1EF57
 0EE7:00E8       loc_1EF58
 0EE7:00EB       loc_1EF5B
 0EE7:00F0       loc_1EF60
 0EE7:00F1       loc_1EF61
 0EE7:00F5       loc_1EF65
 0EE7:00F9       loc_1EF69
 0EE7:00FB       loc_1EF6B
 0EE7:0100       loc_1EF70
 0EE7:0103       loc_1EF73
 0EE7:010B       loc_1EF7B
 0EE7:010E       loc_1EF7E
 0EE7:011A       loc_1EF8A
 0EE7:0125       loc_1EF95
 0EE7:0128       loc_1EF98
 0EE7:012D       loc_1EF9D
 0EE7:0134       loc_1EFA4
 0EE7:013F       loc_1EFAF
 0EE7:0140       loc_1EFB0
 0EE7:0149       loc_1EFB9
 0EE7:014F       loc_1EFBF
 0EE7:0154       loc_1EFC4
 0EE7:0159       loc_1EFC9
 0EE7:015E       loc_1EFCE
 0EE7:0160       loc_1EFD0
 0EE7:0163       loc_1EFD3
 0EE7:0166       loc_1EFD6
 0EE7:0169       loc_1EFD9
 0EE7:0180       loc_1EFF0
 0EE7:0185       loc_1EFF5
 0EE7:0188       loc_1EFF8
 0EE7:018B       loc_1EFFB
 0EE7:018E       loc_1EFFE
 0EE7:0190       loc_1F000
 0EE7:019C       loc_1F00C
 0EE7:01AA       loc_1F01A
 0EE7:01AD       loc_1F01D
 0EE7:01AF       loc_1F01F
 0EE7:01CB       loc_1F03B
 0EE7:01CF       loc_1F03F
 0EE7:01D1       loc_1F041
 0EE7:01D4       loc_1F044
 0EE7:01D7       loc_1F047
 0EE7:01DA       loc_1F04A
 0EE7:01E0       loc_1F050
 0EE7:01E4       loc_1F054
 0EE7:01FA       loc_1F06A
 0EE7:01FF       loc_1F06F
 0EE7:0208       loc_1F078
 0EE7:020C       loc_1F07C
 0EE7:0217       loc_1F087
 0EE7:021E       loc_1F08E
 0EE7:0228       loc_1F098
 0EE7:022D       loc_1F09D
 0EE7:0232       loc_1F0A2
 0EE7:0239       loc_1F0A9
 0EE7:023B       loc_1F0AB
 0EE7:023D       loc_1F0AD
 0EE7:0246       loc_1F0B6
 0EE7:0256       loc_1F0C6
 0EE7:0260       loc_1F0D0
 0EE7:0266       loc_1F0D6
 0EE7:026C       loc_1F0DC
 0EE7:0275       loc_1F0E5
 0EE7:0279       loc_1F0E9
 0EE7:027D       loc_1F0ED
 0EE7:0288       loc_1F0F8
 0EE7:028B       loc_1F0FB
 0EE7:028F       loc_1F0FF
 0EE7:0299       loc_1F109
 0EE7:029E       loc_1F10E
 0EE7:02A3       loc_1F113
 0EE7:02AC       loc_1F11C
 0EE7:02B2       loc_1F122
 0EE7:02BB       loc_1F12B
 0EE7:02BE       loc_1F12E
 0EE7:02C9       loc_1F139
 0EE7:02CB       loc_1F13B
 0EE7:02CF       sub_1F13F
 0EE7:02D2       loc_1F142
 0EE7:02FD       loc_1F16D
 0EE7:0302       loc_1F172
 0EE7:0309       loc_1F179
 0EE7:030B       loc_1F17B
 0EE7:0310       loc_1F180
 0EE7:0313       loc_1F183
 0EE7:0316       loc_1F186
 0EE7:0328       loc_1F198
 0EE7:0334       loc_1F1A4
 0EE7:033F       loc_1F1AF
 0EE7:0341       loc_1F1B1
 0EE7:034E       loc_1F1BE
 0EE7:0357       loc_1F1C7
 0EE7:0359       loc_1F1C9
 0EE7:035C       loc_1F1CC
 0EE7:0365       loc_1F1D5
 0EE7:036C       loc_1F1DC
 0EE7:0374       loc_1F1E4
 0EE7:037B       loc_1F1EB
 0EE7:0385       loc_1F1F5
 0EE7:038F       loc_1F1FF
 0EE7:0398       loc_1F208
 0EE7:039A       loc_1F20A
 0EE7:03A7       loc_1F217
 0EE7:03A9       loc_1F219
 0EE7:03B3       loc_1F223
 0EE7:03BB       loc_1F22B
 0EE7:03C3       loc_1F233
 0EE7:03C5       loc_1F235
 0EE7:03C9       loc_1F239
 0EE7:03CB       loc_1F23B
 0EE7:03CE       loc_1F23E
 0EE7:03D6       loc_1F246
 0EE7:03DA       loc_1F24A
 0EE7:03E5       loc_1F255
 0EE7:03E8       loc_1F258
 0EE7:03EA       loc_1F25A
 0EE7:03EC       loc_1F25C
 0EE7:03F0       loc_1F260
 0EE7:03F6       loc_1F266
 0EE7:03FB       loc_1F26B
 0EE7:0400       loc_1F270
 0EE7:0409       loc_1F279
 0EE7:040F       loc_1F27F
 0EE7:041A       loc_1F28A
 0EE7:0420       sub_1F290
 0EE7:0448       loc_1F2B8
 0EE7:045E       loc_1F2CE
 0EE7:046B       loc_1F2DB
 0EE7:046E       loc_1F2DE
 0EE7:0476       loc_1F2E6
 0EE7:048B       loc_1F2FB
 0EE7:04A3       loc_1F313
 0EE7:04A5       loc_1F315
 0EE7:04BC       loc_1F32C
 0EE7:04C6       loc_1F336
 0EE7:04CF       loc_1F33F
 0EE7:04DE       loc_1F34E
 0EE7:04E0       loc_1F350
 0EE7:04E7       loc_1F357
 0EE7:04F2       loc_1F362
 0EE7:04FD       loc_1F36D
 0EE7:0502       loc_1F372
 0EE7:0504       loc_1F374
 0EE7:051E       loc_1F38E
 0EE7:052A       loc_1F39A
 0EE7:052F       loc_1F39F
 0EE7:053F       loc_1F3AF
 0EE7:0541       loc_1F3B1
 0EE7:0548       loc_1F3B8
 0EE7:054A       loc_1F3BA
 0EE7:0555       loc_1F3C5
 0EE7:055A       loc_1F3CA
 0EE7:055C       loc_1F3CC
 0EE7:0560       loc_1F3D0
 0EE7:0565       loc_1F3D5
 0EE7:0567       loc_1F3D7
 0EE7:056A       loc_1F3DA
 0EE7:056C       loc_1F3DC
 0EE7:0572       loc_1F3E2
 0EE7:0575       loc_1F3E5
 0EE7:0577       loc_1F3E7
 0EE7:057A       loc_1F3EA
 0EE7:057F       loc_1F3EF
 0EE7:0582       loc_1F3F2
 0EE7:0588       idk_WriteImageHeader_s1F3F8
 0EE7:060D       sub_1F47D
 0EE7:0610       loc_1F480
 0EE7:0622       loc_1F492
 0EE7:0629       loc_1F499
 0EE7:062C       loc_1F49C
 0EE7:0631       loc_1F4A1
 0EE7:0640       loc_1F4B0
 0EE7:065E       loc_1F4CE
 0EE7:0670       loc_1F4E0
 0EE7:0672       loc_1F4E2
 0EE7:067B       loc_1F4EB
 0EE7:0689       loc_1F4F9
 0EE7:068B       loc_1F4FB
 0EE7:068D       loc_1F4FD
 0EE7:068F       loc_1F4FF
 0EE7:0697       loc_1F507
 0EE7:0698       loc_1F508
 0EE7:069A       loc_1F50A
 0EE7:06A2       loc_1F512
 0EE7:06A9       loc_1F519
 0EE7:06AB       sub_1F51B
 0EE7:06AC       loc_1F51C
 0EE7:06B2       loc_1F522
 0EE7:06C0       loc_1F530
 0EE7:06EA       loc_1F55A
 0EE7:06ED       loc_1F55D
 0EE7:06F3       loc_1F563
 0EE7:0708       loc_1F578
 0EE7:070D       loc_1F57D
 0EE7:0725       loc_1F595
 0EE7:0729       loc_1F599
 0EE7:072E       loc_1F59E
 0EE7:0735       loc_1F5A5
 0EE7:0737       loc_1F5A7
 0EE7:073F       loc_1F5AF
 0EE7:074F       sub_1F5BF
 0EE7:077E       loc_1F5EE
 0EE7:0790       loc_1F600
 0EE7:0798       loc_1F608
 0EE7:07A2       loc_1F612
 0EE7:07A6       loc_1F616
 0EE7:07A8       loc_1F618
 0EE7:07AE       sub_1F61E
 0EE7:07CF       loc_1F63F
 0EE7:07D7       loc_1F647
 0EE7:07D9       loc_1F649
 0EE7:07E0       loc_1F650
 0EE7:07E5       sub_1F655
 0EE7:07EC       loc_1F65C
 0EE7:07F3       loc_1F663
 0EE7:07F6       loc_1F666
 0EE7:07FC       loc_1F66C
 0EE7:0800       loc_1F670
 0EE7:0804       loc_1F674
 0EE7:080F       loc_1F67F
 0EE7:0820       loc_1F690
 0EE7:0822       loc_1F692
 0EE7:0825       loc_1F695
 0EE7:0838       loc_1F6A8
 0EE7:0840       loc_1F6B0
 0EE7:0847       loc_1F6B7
 0EE7:0856       loc_1F6C6
 0EE7:085F       loc_1F6CF
 0EE7:0868       loc_1F6D8
 0EE7:0881       loc_1F6F1
 0EE7:0890       loc_1F700
 0EE7:089C       loc_1F70C
 0EE7:08A8       loc_1F718
 0EE7:08AE       loc_1F71E
 0EE7:08B8       loc_1F728
 0EE7:08BD       loc_1F72D
 0EE7:08CD       loc_1F73D
 0EE7:08D3       idk_VidLib_s1F743
 0EE7:08E4       SET_AX_ZERO_AND_RETURN
 0EE7:08E9       loc_1F759
 0EE7:08F4       loc_1F764
 0EE7:0920       loc_1F790
 0EE7:0922       loc_1F792
 0EE7:0937       loc_1F7A7
 0EE7:0940       loc_1F7B0
 0EE7:094A       loc_1F7BA
 0EE7:0957       loc_1F7C7
 0EE7:0960       loc_1F7D0
 0EE7:096A       loc_1F7DA
 0EE7:0977       loc_1F7E7
 0EE7:0980       loc_1F7F0
 0EE7:0985       loc_1F7F5
 0EE7:0988       loc_1F7F8
 0EE7:099C       loc_1F80C
 0EE7:099F       loc_1F80F
 0EE7:09BB       loc_1F82B
 0EE7:09BE       loc_1F82E
 0EE7:09E0       loc_1F850
 0EE7:09E9       loc_1F859
 0EE7:0A32       loc_1F8A2
 0EE7:0A4D       loc_1F8BD
 0EE7:0A66       loc_1F8D6
 0EE7:0A6B       loc_1F8DB
 0EE7:0A87       loc_1F8F7
 0EE7:0A8D       sub_1F8FD
 0EE7:0AA1       loc_1F911
 0EE7:0AB4       loc_1F924
 0EE7:0AC1       loc_1F931
 0EE7:0AC4       loc_1F934
 0EE7:0AC8       loc_1F938
 0EE7:0AE4       loc_1F954
 0EE7:0AE5       loc_1F955
 0EE7:0AF9       loc_1F969
 0EE7:0AFC       loc_1F96C
 0EE7:0B00       loc_1F970
 0EE7:0B08       loc_1F978
 0EE7:0B0D       loc_1F97D
 0EE7:0B17       loc_1F987
 0EE7:0B19       loc_1F989
 0EE7:0B21       loc_1F991
 0EE7:0B4F       loc_1F9BF
 0EE7:0B72       loc_1F9E2
 0EE7:0B78       loc_1F9E8
 0EE7:0B80       loc_1F9F0
 0EE7:0B82       loc_1F9F2
 0EE7:0B96       loc_1FA06
 0EE7:0BA8       loc_1FA18
 0EE7:0BAE       loc_1FA1E
 0EE7:0BD2       loc_1FA42
 0EE7:0BD4       loc_1FA44
 0EE7:0BDC       loc_1FA4C
 0EE7:0BEA       loc_1FA5A
 0EE7:0BF0       loc_1FA60
 0EE7:0BF8       loc_1FA68
 0EE7:0BFE       sub_1FA6E
 0EE7:0BFF       loc_1FA6F
 0EE7:0C0E       loc_1FA7E
 0EE7:0C27       loc_1FA97
 0EE7:0C2E       loc_1FA9E
 0EE7:0C34       loc_1FAA4
 0EE7:0C50       loc_1FAC0
 0EE7:0C60       loc_1FAD0
 0EE7:0C64       sub_1FAD4
 0EE7:0C7B       sub_1FAEB
 0EE7:0CA5       sub_1FB15
 0EE7:0CAE       loc_1FB1E
 0EE7:0CB9       sub_1FB29
 0EE7:0CC3       loc_1FB33
 0EE7:0CC9       loc_1FB39
 0EE7:0CD1       loc_1FB41
 0EE7:0CFD       loc_1FB6D
 0EE7:0D00       loc_1FB70
 0EE7:0D01       loc_1FB71
 0EE7:0D09       loc_1FB79
 0EE7:0D0D       loc_1FB7D
 0EE7:0D19       loc_1FB89
 0EE7:0D1E       loc_1FB8E
 0EE7:0D21       loc_1FB91
 0EE7:0D24       loc_1FB94
 0EE7:0D46       loc_1FBB6
 0EE7:0D4F       idk_VidLib_s1FBBF
 0EE7:0D5A       loc_1FBCA
 0EE7:0D5E       loc_1FBCE
 0EE7:0D7A       loc_1FBEA
 0EE7:0D89       loc_1FBF9
 0EE7:0D98       loc_1FC08
 0EE7:0D9B       loc_1FC0B
 0EE7:0DA0       loc_1FC10
 0EE7:0DC1       loc_1FC31
 0EE7:0DDE       loc_1FC4E
 0EE7:0DE1       loc_1FC51
 0EE7:0DFE       loc_1FC6E
 0EE7:0E01       loc_1FC71
 0EE7:0E08       loc_1FC78
 0EE7:0E10       loc_1FC80
 0EE7:0E14       loc_1FC84
 0EE7:0E1E       loc_1FC8E
 0EE7:0E4A       loc_1FCBA
 0EE7:0E5F       loc_1FCCF
 0EE7:0E6C       loc_1FCDC
 0EE7:0E72       loc_1FCE2
 0EE7:0E79       loc_1FCE9
 0EE7:0E7C       loc_1FCEC
 0EE7:0E85       loc_1FCF5
 0EE7:0E8E       loc_1FCFE
 0EE7:0E95       loc_1FD05
 0EE7:0E97       loc_1FD07
 0EE7:0EA3       loc_1FD13
 0EE7:0EB0       loc_1FD20
 0EE7:0EB2       loc_1FD22
 0EE7:0EB7       loc_1FD27
 0EE7:0EC2       loc_1FD32
 0EE7:0EC8       loc_1FD38
 0EE7:0ED1       loc_1FD41
 0EE7:0ED2       loc_1FD42
 0EE7:0ED9       loc_1FD49
 0EE7:0EDD       loc_1FD4D
 0EE7:0EE0       loc_1FD50
 0EE7:0EEF       loc_1FD5F
 0EE7:0EF0       loc_1FD60
 0EE7:0EF7       loc_1FD67
 0EE7:0F03       loc_1FD73
 0EE7:0F09       loc_1FD79
 0EE7:0F0D       loc_1FD7D
 0EE7:0F12       loc_1FD82
 0EE7:0F21       loc_1FD91
 0EE7:0F2B       loc_1FD9B
 0EE7:0F2E       loc_1FD9E
 0EE7:0F2F       loc_1FD9F
 0EE7:0F37       loc_1FDA7
 0EE7:0F3E       loc_1FDAE
 0EE7:0F43       loc_1FDB3
 0EE7:0F58       loc_1FDC8
 0EE7:0F5D       loc_1FDCD
 0EE7:0F5F       loc_1FDCF
 0EE7:0F66       loc_1FDD6
 0EE7:0F7B       loc_1FDEB
 0EE7:0F7F       loc_1FDEF
 0EE7:0F96       loc_1FE06
 0EE7:0F99       loc_1FE09
 0EE7:0F9F       loc_1FE0F
 0EE7:0FAB       loc_1FE1B
 0EE7:0FC3       loc_1FE33
 0EE7:0FCD       loc_1FE3D
 0EE7:0FD8       loc_1FE48
 0EE7:0FD9       loc_1FE49
 0EE7:0FE2       loc_1FE52
 0EE7:0FE4       loc_1FE54
 0EE7:0FEB       loc_1FE5B
 0EE7:0FF0       loc_1FE60
 0EE7:0FF6       loc_1FE66
 0EE7:0FFF       loc_1FE6F
 0EE7:100E       loc_1FE7E
 0EE7:101D       loc_1FE8D
 0EE7:1029       loc_1FE99
 0EE7:102C       loc_1FE9C
 0EE7:102E       loc_1FE9E
 0EE7:1036       loc_1FEA6
 0EE7:103D       loc_1FEAD
 0EE7:1044       loc_1FEB4
 0EE7:1049       loc_1FEB9
 0EE7:104B       loc_1FEBB
 0EE7:1050       loc_1FEC0
 0EE7:1055       loc_1FEC5
 0EE7:105B       loc_1FECB
 0EE7:105E       loc_1FECE
 0EE7:108B       loc_1FEFB
 0EE7:1090       loc_1FF00
 0EE7:1093       loc_1FF03
 0EE7:1096       loc_1FF06
 0EE7:109B       loc_1FF0B
 0EE7:10A3       loc_1FF13
 0EE7:10AF       loc_1FF1F
 0EE7:10B9       loc_1FF29
 0EE7:10D8       loc_1FF48
 0EE7:10DB       loc_1FF4B
 0EE7:10E0       loc_1FF50
 0EE7:10E5       loc_1FF55
 0EE7:10EE       loc_1FF5E
 0EE7:10FF       loc_1FF6F
 0EE7:1102       loc_1FF72
 0EE7:1110       loc_1FF80
 0EE7:1118       loc_1FF88
 0EE7:1124       loc_1FF94
 0EE7:1127       loc_1FF97
 0EE7:112D       loc_1FF9D
 0EE7:1130       loc_1FFA0
 0EE7:113C       loc_1FFAC
 0EE7:114E       loc_1FFBE
 0EE7:1151       loc_1FFC1
 0EE7:1155       loc_1FFC5
 0EE7:1158       loc_1FFC8
 0EE7:115E       loc_1FFCE
 0EE7:1174       loc_1FFE4
 0EE7:1177       loc_1FFE7
 0EE7:117A       loc_1FFEA
 0EE7:1180       loc_1FFF0
 0EE7:1183       loc_1FFF3
 0EE7:1189       loc_1FFF9
 0EE7:118C       loc_1FFFC
 0EE7:118D       loc_1FFFD
 0EE7:119B       loc_2000B
 0EE7:11B7       loc_20027
 0EE7:11BA       loc_2002A
 0EE7:11C0       loc_20030
 0EE7:11CA       loc_2003A
 0EE7:1200       loc_20070
 0EE7:120E       loc_2007E
 0EE7:1211       loc_20081
 0EE7:1214       loc_20084
 0EE7:121A       loc_2008A
 0EE7:123B       loc_200AB
 0EE7:1240       loc_200B0
 0EE7:1246       loc_200B6
 0EE7:1248       loc_200B8
 0EE7:124D       loc_200BD
 0EE7:1250       loc_200C0
 0EE7:1254       loc_200C4
 0EE7:125F       loc_200CF
 0EE7:1261       loc_200D1
 0EE7:1264       loc_200D4
 0EE7:126F       loc_200DF
 0EE7:1283       loc_200F3
 0EE7:128C       loc_200FC
 0EE7:129D       loc_2010D
 0EE7:12B4       loc_20124
 0EE7:12B9       loc_20129
 0EE7:12BF       loc_2012F
 0EE7:12C6       loc_20136
 0EE7:12C9       loc_20139
 0EE7:12CD       loc_2013D
 0EE7:12D7       loc_20147
 0EE7:12DC       loc_2014C
 0EE7:12DE       loc_2014E
 0EE7:12EF       loc_2015F
 0EE7:12F8       loc_20168
 0EE7:12FB       loc_2016B
 0EE7:12FF       loc_2016F
 0EE7:130A       loc_2017A
 0EE7:1310       loc_20180
 0EE7:1312       loc_20182
 0EE7:1319       loc_20189
 0EE7:1320       loc_20190
 0EE7:133A       loc_201AA
 0EE7:134A       loc_201BA
 0EE7:1350       loc_201C0
 0EE7:1357       loc_201C7
 0EE7:135B       loc_201CB
 0EE7:1362       loc_201D2
 0EE7:136A       loc_201DA
 0EE7:1370       loc_201E0
 0EE7:1373       loc_201E3
 0EE7:1374       loc_201E4
 0EE7:1384       loc_201F4
 0EE7:13B0       loc_20220
 0EE7:13B2       loc_20222
 0EE7:13C0       loc_20230
 0EE7:13CA       loc_2023A
 0EE7:13CD       loc_2023D
 0EE7:13EF       loc_2025F
 0EE7:13FC       loc_2026C
 0EE7:1400       loc_20270
 0EE7:140F       loc_2027F
 0EE7:142B       loc_2029B
 0EE7:142D       loc_2029D
 0EE7:1483       loc_202F3
 0EE7:148A       loc_202FA
 0EE7:148D       loc_202FD
 0EE7:1490       loc_20300
 0EE7:1499       loc_20309
 0EE7:14A0       loc_20310
 0EE7:14BB       loc_2032B
 0EE7:14C3       loc_20333
 0EE7:14C8       loc_20338
 0EE7:14CB       loc_2033B
 0EE7:14CE       loc_2033E
 0EE7:14DA       loc_2034A
 0EE7:14EC       loc_2035C
 0EE7:14F5       loc_20365
 0EE7:1506       loc_20376
 0EE7:1508       loc_20378
 0EE7:150D       loc_2037D
 0EE7:151F       loc_2038F
 0EE7:1522       loc_20392
 0EE7:152C       loc_2039C
 0EE7:1530       loc_203A0
 0EE7:153C       loc_203AC
 0EE7:153E       loc_203AE
 0EE7:1541       loc_203B1
 0EE7:154A       loc_203BA
 0EE7:1553       loc_203C3
 0EE7:156D       loc_203DD
 0EE7:1570       loc_203E0
 0EE7:1575       loc_203E5
 0EE7:157F       loc_203EF
 0EE7:158E       loc_203FE
 0EE7:1590       loc_20400
 0EE7:1596       loc_20406
 0EE7:159E       loc_2040E
 0EE7:15A6       loc_20416
 0EE7:15B3       loc_20423
 0EE7:15B8       loc_20428
 0EE7:15BB       loc_2042B
 0EE7:15BE       loc_2042E
 0EE7:15C0       loc_20430
 0EE7:15C1       loc_20431
 0EE7:15C2       loc_20432
 0EE7:15D9       loc_20449
 0EE7:15EF       loc_2045F
 0EE7:15FC       loc_2046C
 0EE7:1601       loc_20471
 0EE7:1603       loc_20473
 0EE7:160F       loc_2047F
 0EE7:161E       loc_2048E
 0EE7:1645       loc_204B5
 0EE7:164F       loc_204BF
 0EE7:1667       loc_204D7
 0EE7:1673       loc_204E3
 0EE7:167F       loc_204EF
 0EE7:1682       loc_204F2
 0EE7:1685       loc_204F5
 0EE7:1686       loc_204F6
 0EE7:168C       loc_204FC
 0EE7:1694       loc_20504
 0EE7:169B       loc_2050B
 0EE7:16AB       loc_2051B
 0EE7:16B7       loc_20527
 0EE7:16BA       loc_2052A
 0EE7:16C3       loc_20533
 0EE7:16CC       loc_2053C
 0EE7:16DB       loc_2054B
 0EE7:16EA       loc_2055A
 0EE7:16F0       loc_20560
 0EE7:16F3       loc_20563
 0EE7:16FA       loc_2056A
 0EE7:1729       loc_20599
 0EE7:172C       loc_2059C
 0EE7:172F       loc_2059F
 0EE7:1731       loc_205A1
 0EE7:1734       loc_205A4
 0EE7:1751       loc_205C1
 0EE7:1754       loc_205C4
 0EE7:1760       loc_205D0
 0EE7:1777       loc_205E7
 0EE7:177D       loc_205ED
 0EE7:178C       loc_205FC
 0EE7:17A0       loc_20610
 0EE7:17A5       loc_20615
 0EE7:17A7       loc_20617
 0EE7:17AA       loc_2061A
 0EE7:17B8       loc_20628
 0EE7:17BB       loc_2062B
 0EE7:17C1       loc_20631
 0EE7:17C4       loc_20634
 0EE7:17C6       loc_20636
 0EE7:17C9       loc_20639
 0EE7:17CC       loc_2063C
 0EE7:17D4       loc_20644
 0EE7:17DE       loc_2064E
 0EE7:17E6       loc_20656
 0EE7:17EA       loc_2065A
 0EE7:17EF       loc_2065F
 0EE7:17F2       loc_20662
 0EE7:17F9       loc_20669
 0EE7:17FC       loc_2066C
 0EE7:180A       loc_2067A
 0EE7:181C       loc_2068C
 0EE7:181E       loc_2068E
 0EE7:1824       loc_20694
 0EE7:182E       loc_2069E
 0EE7:183C       loc_206AC
 0EE7:184D       loc_206BD
 0EE7:1850       loc_206C0
 0EE7:186C       loc_206DC
 0EE7:187A       loc_206EA
 0EE7:187D       loc_206ED
 0EE7:188F       loc_206FF
 0EE7:1896       loc_20706
 0EE7:189E       loc_2070E
 0EE7:18A7       loc_20717
 0EE7:18AA       loc_2071A
 0EE7:18AD       loc_2071D
 0EE7:18B0       loc_20720
 0EE7:18B5       loc_20725
 0EE7:18B8       loc_20728
 0EE7:18CA       loc_2073A
 0EE7:18D5       loc_20745
 0EE7:18DF       loc_2074F
 0EE7:18E8       loc_20758
 0EE7:18F2       loc_20762
 0EE7:18FC       loc_2076C
 0EE7:1908       loc_20778
 0EE7:190A       loc_2077A
 0EE7:1910       loc_20780
 0EE7:191F       loc_2078F
 0EE7:1929       loc_20799
 0EE7:1930       loc_207A0
 0EE7:1933       loc_207A3
 0EE7:193F       loc_207AF
 0EE7:195B       loc_207CB
 0EE7:195D       loc_207CD
 0EE7:1988       loc_207F8
 0EE7:199E       loc_2080E
 0EE7:19A7       loc_20817
 0EE7:19AA       loc_2081A
 0EE7:19AD       loc_2081D
 0EE7:19B6       loc_20826
 0EE7:19C2       loc_20832
 0EE7:19D4       loc_20844
 0EE7:19DE       loc_2084E
 0EE7:1A00       loc_20870
 0EE7:1A03       loc_20873
 0EE7:1A09       loc_20879
 0EE7:1A0F       loc_2087F
 0EE7:1A30       loc_208A0
 0EE7:1A3D       loc_208AD
 0EE7:1A40       loc_208B0
 0EE7:1A41       loc_208B1
 0EE7:1A4F       loc_208BF
 0EE7:1A50       loc_208C0
 0EE7:1A56       loc_208C6
 0EE7:1A5F       loc_208CF
 0EE7:1A62       loc_208D2
 0EE7:1A65       loc_208D5
 0EE7:1A68       loc_208D8
 0EE7:1A6F       loc_208DF
 0EE7:1A94       loc_20904
 0EE7:1A97       loc_20907
 0EE7:1AB9       loc_20929
 0EE7:1AC2       loc_20932
 0EE7:1AC7       loc_20937
 0EE7:1AD0       loc_20940
 0EE7:1ADA       loc_2094A
 0EE7:1ADF       loc_2094F
 0EE7:1AE1       loc_20951
 0EE7:1AE6       loc_20956
 0EE7:1AFE       loc_2096E
 0EE7:1B16       loc_20986
 0EE7:1B1F       loc_2098F
 0EE7:1B30       loc_209A0
 0EE7:1B33       loc_209A3
 0EE7:1B3C       loc_209AC
 0EE7:1B3F       loc_209AF
 0EE7:1B41       loc_209B1
 0EE7:1B46       loc_209B6
 0EE7:1B49       loc_209B9
 0EE7:1B4E       loc_209BE
 0EE7:1B51       loc_209C1
 0EE7:1B54       loc_209C4
 0EE7:1B56       loc_209C6
 0EE7:1B63       loc_209D3
 0EE7:1B6C       loc_209DC
 0EE7:1B7B       loc_209EB
 0EE7:1B80       loc_209F0
 0EE7:1B86       loc_209F6
 0EE7:1B89       loc_209F9
 0EE7:1B90       loc_20A00
 0EE7:1B91       loc_20A01
 0EE7:1B93       loc_20A03
 0EE7:1B9D       loc_20A0D
 0EE7:1B9F       loc_20A0F
 0EE7:1BA1       loc_20A11
 0EE7:1BA4       loc_20A14
 0EE7:1BAC       loc_20A1C
 0EE7:1BB2       loc_20A22
 0EE7:1BB4       loc_20A24
 0EE7:1BBC       loc_20A2C
 0EE7:1BC4       loc_20A34
 0EE7:1BCB       loc_20A3B
 0EE7:1BDC       loc_20A4C
 0EE7:1BDF       loc_20A4F
 0EE7:1BE1       loc_20A51
 0EE7:1BF0       loc_20A60
 0EE7:1BF2       loc_20A62
 0EE7:1BFC       loc_20A6C
 0EE7:1C01       loc_20A71
 0EE7:1C04       loc_20A74
 0EE7:1C07       loc_20A77
 0EE7:1C0C       loc_20A7C
 0EE7:1C0F       loc_20A7F
 0EE7:1C1B       loc_20A8B
 0EE7:1C2F       loc_20A9F
 0EE7:1C34       loc_20AA4
 0EE7:1C39       loc_20AA9
 0EE7:1C3C       loc_20AAC
 0EE7:1C44       loc_20AB4
 0EE7:1C49       loc_20AB9
 0EE7:1C4E       loc_20ABE
 0EE7:1C57       loc_20AC7
 0EE7:1C59       loc_20AC9
 0EE7:1C64       loc_20AD4
 0EE7:1C79       loc_20AE9
 0EE7:1C8C       loc_20AFC
 0EE7:1C97       loc_20B07
 0EE7:1C9C       loc_20B0C
 0EE7:1CA3       loc_20B13
 0EE7:1CA8       loc_20B18
 0EE7:1CAA       loc_20B1A
 0EE7:1CAD       loc_20B1D
 0EE7:1CD5       loc_20B45
 0EE7:1CDF       loc_20B4F
 0EE7:1CEB       loc_20B5B
 0EE7:1CF1       loc_20B61
 0EE7:1CF7       loc_20B67
 0EE7:1D03       loc_20B73
 0EE7:1D0F       loc_20B7F
 0EE7:1D19       loc_20B89
 0EE7:1D1C       loc_20B8C
 0EE7:1D28       loc_20B98
 0EE7:1D2B       loc_20B9B
 0EE7:1D31       loc_20BA1
 0EE7:1D3E       loc_20BAE
 0EE7:1D4A       loc_20BBA
 0EE7:1D74       loc_20BE4
 0EE7:1D8A       loc_20BFA
 0EE7:1D8E       loc_20BFE
 0EE7:1D9C       loc_20C0C
 0EE7:1DA0       loc_20C10
 0EE7:1DA6       loc_20C16
 0EE7:1DB2       loc_20C22
 0EE7:1DB8       loc_20C28
 0EE7:1DB9       loc_20C29
 0EE7:1DCA       loc_20C3A
 0EE7:1DDC       loc_20C4C
 0EE7:1DE1       loc_20C51
 0EE7:1DE4       loc_20C54
 0EE7:1DEA       off_20C5A
 0EE7:1DF2       off_20C62
 0EE7:1DFA       off_20C6A
 0EE7:1E02       off_20C72
 0EE7:1E0A       sub_20C7A
 0EE7:1E15       loc_20C85
 0EE7:1E18       loc_20C88
 0EE7:1E21       loc_20C91
 0EE7:1E25       loc_20C95
 0EE7:1E28       loc_20C98
 0EE7:1E2C       loc_20C9C
 0EE7:1E3C       loc_20CAC
 0EE7:1E43       loc_20CB3
 0EE7:1E49       loc_20CB9
 0EE7:1E57       loc_20CC7
 0EE7:1E67       loc_20CD7
 0EE7:1E6D       loc_20CDD
 0EE7:1E76       loc_20CE6
 0EE7:1E7B       loc_20CEB
 0EE7:1E7F       loc_20CEF
 0EE7:1E87       loc_20CF7
 0EE7:1E97       loc_20D07
 0EE7:1EA1       loc_20D11
 0EE7:1EA4       loc_20D14
 0EE7:1EB0       loc_20D20
 0EE7:1EB6       loc_20D26
 0EE7:1EB8       loc_20D28
 0EE7:1EBE       loc_20D2E
 0EE7:1EC1       loc_20D31
 0EE7:1ECE       loc_20D3E
 0EE7:1EDA       loc_20D4A
 0EE7:1EF4       loc_20D64
 0EE7:1EFA       loc_20D6A
 0EE7:1EFF       loc_20D6F
 0EE7:1F0C       loc_20D7C
 0EE7:1F12       loc_20D82
 0EE7:1F22       loc_20D92
 0EE7:1F28       loc_20D98
 0EE7:1F2E       loc_20D9E
 0EE7:1F31       loc_20DA1
 0EE7:1F45       sub_20DB5
 0EE7:1F50       loc_20DC0
 0EE7:1F5D       loc_20DCD
 0EE7:1F5F       loc_20DCF
 0EE7:1F62       loc_20DD2
 0EE7:1F6D       loc_20DDD
 0EE7:1F71       loc_20DE1
 0EE7:1F7F       loc_20DEF
 0EE7:1F84       loc_20DF4
 0EE7:1F94       loc_20E04
 0EE7:1FA0       loc_20E10
 0EE7:1FB1       loc_20E21
 0EE7:1FB5       loc_20E25
 0EE7:1FBC       loc_20E2C
 0EE7:1FC3       loc_20E33
 0EE7:1FD3       loc_20E43
 0EE7:1FDF       loc_20E4F
 0EE7:1FEF       loc_20E5F
 0EE7:1FFB       loc_20E6B
 0EE7:2002       loc_20E72
 0EE7:2008       loc_20E78
 0EE7:202F       loc_20E9F
 0EE7:203C       loc_20EAC
 0EE7:2077       loc_20EE7
 0EE7:208A       loc_20EFA
 0EE7:2090       loc_20F00
 0EE7:2098       loc_20F08
 0EE7:209C       loc_20F0C
 0EE7:209F       loc_20F0F
 0EE7:20A6       loc_20F16
 0EE7:20AE       loc_20F1E
 0EE7:20C5       loc_20F35
 0EE7:20DF       loc_20F4F
 0EE7:20E4       loc_20F54
 0EE7:20F2       loc_20F62
 0EE7:20FA       loc_20F6A
 0EE7:212F       loc_20F9F
 0EE7:213A       loc_20FAA
 0EE7:2140       loc_20FB0
 0EE7:2165       loc_20FD5
 0EE7:2168       loc_20FD8
 0EE7:216E       loc_20FDE
 0EE7:2193       loc_21003
 0EE7:21A0       loc_21010
 0EE7:21A4       sub_21014
 0EE7:21A8       loc_21018
 0EE7:21AE       loc_2101E
 0EE7:21CC       loc_2103C
 0EE7:21DD       idk_VidLib_s2104D
 0EE7:21E0       loc_21050
 0EE7:21EF       loc_2105F
 0EE7:21F1       loc_21061
 0EE7:21F6       loc_21066
 0EE7:21FC       loc_2106C
 0EE7:21FE       loc_2106E
 0EE7:2200       loc_21070
 0EE7:2201       loc_21071
 0EE7:2212       loc_21082
 0EE7:2215       loc_21085
 0EE7:221C       loc_2108C
 0EE7:2221       loc_21091
 0EE7:222F       loc_2109F
 0EE7:2233       loc_210A3
 0EE7:2247       loc_210B7
 0EE7:2257       loc_210C7
 0EE7:225A       loc_210CA
 0EE7:225F       loc_210CF
 0EE7:2262       loc_210D2
 0EE7:2265       loc_210D5
 0EE7:2275       loc_210E5
 0EE7:2283       loc_210F3
 0EE7:2291       loc_21101
 0EE7:2294       loc_21104
 0EE7:22A9       loc_21119
 0EE7:22AC       loc_2111C
 0EE7:22B7       loc_21127
 0EE7:22BA       loc_2112A
 0EE7:22BD       loc_2112D
 0EE7:22C1       loc_21131
 0EE7:22C4       loc_21134
 0EE7:22CF       loc_2113F
 0EE7:22DE       loc_2114E
 0EE7:22FC       loc_2116C
 0EE7:2304       loc_21174
 0EE7:230A       sub_2117A
 0EE7:231E       loc_2118E
 0EE7:233B       loc_211AB
 0EE7:2340       loc_211B0
 0EE7:234A       loc_211BA
 0EE7:2360       loc_211D0
 0EE7:2368       loc_211D8
 0EE7:237C       loc_211EC
 0EE7:237F       loc_211EF
 0EE7:2387       loc_211F7
 0EE7:239A       loc_2120A
 0EE7:23A7       loc_21217
 0EE7:23AD       loc_2121D
 0EE7:23B5       loc_21225
 0EE7:23B8       loc_21228
 0EE7:23BA       loc_2122A
 0EE7:23C7       loc_21237
 0EE7:23D7       loc_21247
 0EE7:23D9       loc_21249
 0EE7:23DF       loc_2124F
 0EE7:23E2       loc_21252
 0EE7:23E8       loc_21258
 0EE7:23EA       loc_2125A
 0EE7:23F0       loc_21260
 0EE7:23F8       loc_21268
 0EE7:23FD       loc_2126D
 0EE7:2400       loc_21270
 0EE7:2403       loc_21273
 0EE7:2408       loc_21278
 0EE7:240A       loc_2127A
 0EE7:240C       loc_2127C
 0EE7:2411       loc_21281
 0EE7:2414       loc_21284
 0EE7:2424       loc_21294
 0EE7:2428       loc_21298
 0EE7:242F       loc_2129F
 0EE7:2432       loc_212A2
 0EE7:245B       loc_212CB
 0EE7:245E       loc_212CE
 0EE7:2461       loc_212D1
 0EE7:246C       loc_212DC
 0EE7:246E       loc_212DE
 0EE7:2472       sub_212E2
 0EE7:2486       loc_212F6
 0EE7:24A3       loc_21313
 0EE7:24A8       loc_21318
 0EE7:24B2       loc_21322
 0EE7:24D0       loc_21340
 0EE7:24D7       loc_21347
 0EE7:24EF       loc_2135F
 0EE7:2502       loc_21372
 0EE7:250F       loc_2137F
 0EE7:251D       loc_2138D
 0EE7:2520       loc_21390
 0EE7:2522       loc_21392
 0EE7:2525       loc_21395
 0EE7:252F       loc_2139F
 0EE7:2541       loc_213B1
 0EE7:2544       loc_213B4
 0EE7:2547       loc_213B7
 0EE7:2550       loc_213C0
 0EE7:2552       loc_213C2
 0EE7:2558       loc_213C8
 0EE7:2565       loc_213D5
 0EE7:2568       loc_213D8
 0EE7:2574       loc_213E4
 0EE7:257F       loc_213EF
 0EE7:25AA       loc_2141A
 0EE7:25B0       loc_21420
 0EE7:25CC       loc_2143C
 0EE7:25D4       loc_21444
 0EE7:25DA       sub_2144A
 0EE7:261F       loc_2148F
 0EE7:2626       loc_21496
 0EE7:262F       loc_2149F
 0EE7:2633       loc_214A3
 0EE7:263C       loc_214AC
 0EE7:2640       sub_214B0
 0EE7:264E       loc_214BE
 0EE7:2662       loc_214D2
 0EE7:2682       loc_214F2
 0EE7:2684       loc_214F4
 0EE7:2688       loc_214F8
 0EE7:2699       loc_21509
 0EE7:269C       loc_2150C
 0EE7:26A2       loc_21512
 0EE7:26A7       loc_21517
 0EE7:26B2       loc_21522
 0EE7:26B8       loc_21528
 0EE7:26C0       loc_21530
 0EE7:26CE       loc_2153E
 0EE7:26DA       loc_2154A
 0EE7:26E9       loc_21559
 0EE7:26EF       loc_2155F
 0EE7:26FA       loc_2156A
 0EE7:26FE       loc_2156E
 0EE7:2706       loc_21576
 0EE7:270B       loc_2157B
 0EE7:2714       loc_21584
 0EE7:2717       loc_21587
 0EE7:2720       loc_21590
 0EE7:2723       loc_21593
 0EE7:272F       loc_2159F
 0EE7:2737       loc_215A7
 0EE7:273A       loc_215AA
 0EE7:274C       loc_215BC
 0EE7:275F       loc_215CF
 0EE7:2762       loc_215D2
 0EE7:2768       sub_215D8
 0EE7:2773       loc_215E3
 0EE7:2787       loc_215F7
 0EE7:278E       loc_215FE
 0EE7:2794       loc_21604
 0EE7:2797       loc_21607
 0EE7:279C       loc_2160C
 0EE7:27AD       loc_2161D
 0EE7:27B0       loc_21620
 0EE7:27BB       loc_2162B
 0EE7:27C8       loc_21638
 0EE7:27CE       loc_2163E
 0EE7:27D3       loc_21643
 0EE7:27DE       loc_2164E
 0EE7:27EB       loc_2165B
 0EE7:27EE       loc_2165E
 0EE7:27F1       loc_21661
 0EE7:27FB       loc_2166B
 0EE7:27FE       loc_2166E
 0EE7:2804       loc_21674
 0EE7:2808       loc_21678
 0EE7:2811       loc_21681
 0EE7:2814       loc_21684
 0EE7:281A       loc_2168A
 0EE7:282F       loc_2169F
 0EE7:2835       loc_216A5
 0EE7:2839       loc_216A9
 0EE7:283B       loc_216AB
 0EE7:283D       loc_216AD
 0EE7:283F       loc_216AF
 0EE7:2841       loc_216B1
 0EE7:2846       loc_216B6
 0EE7:2848       loc_216B8
 0EE7:284C       loc_216BC
 0EE7:284E       sub_216BE
 0EE7:2863       loc_216D3
 0EE7:2864       loc_216D4
 0EE7:286E       sub_216DE
 0EE7:286F       loc_216DF
 0EE7:2879       loc_216E9
 0EE7:287F       loc_216EF
 0EE7:2887       loc_216F7
 0EE7:288A       loc_216FA
 0EE7:288D       loc_216FD
 0EE7:28A1       sub_21711
 0EE7:28AA       loc_2171A
 0EE7:28AD       loc_2171D
 0EE7:28B5       loc_21725
 0EE7:28B8       loc_21728
 0EE7:28BD       loc_2172D
 0EE7:28CF       loc_2173F
 0EE7:28D1       loc_21741
 0EE7:28D3       loc_21743
 0EE7:28DA       loc_2174A
 0EE7:28E3       loc_21753
 0EE7:28E7       loc_21757
 0EE7:28EA       loc_2175A
 0EE7:28EE       loc_2175E
 0EE7:28F1       loc_21761
 0EE7:28FA       loc_2176A
 0EE7:28FB       loc_2176B
 0EE7:2916       loc_21786
 0EE7:291A       loc_2178A
 0EE7:291F       loc_2178F
 0EE7:292C       loc_2179C
 0EE7:2930       loc_217A0
 0EE7:2932       loc_217A2
 0EE7:2950       loc_217C0
 0EE7:2968       loc_217D8
 0EE7:296D       loc_217DD
 0EE7:296E       loc_217DE
 0EE7:2976       loc_217E6
 0EE7:2978       loc_217E8
 0EE7:297A       loc_217EA
 0EE7:2987       loc_217F7
 0EE7:2988       loc_217F8
 0EE7:298C       loc_217FC
 0EE7:298E       loc_217FE
 0EE7:2992       loc_21802
 0EE7:2999       loc_21809
 0EE7:29A0       loc_21810
 0EE7:29A1       loc_21811
 0EE7:29A4       loc_21814
 0EE7:29AC       loc_2181C
 0EE7:29AD       loc_2181D
 0EE7:29B3       loc_21823
 0EE7:29B9       sub_21829
 0EE7:29CD       loc_2183D
 0EE7:29D2       loc_21842
 0EE7:29DE       loc_2184E
 0EE7:29EE       loc_2185E
 0EE7:29F3       loc_21863
 0EE7:29F5       loc_21865
 0EE7:2A00       loc_21870
 0EE7:2A03       loc_21873
 0EE7:2A05       loc_21875
 0EE7:2A0E       loc_2187E
 0EE7:2A10       loc_21880
 0EE7:2A22       loc_21892
 0EE7:2A30       loc_218A0
 0EE7:2A35       loc_218A5
 0EE7:2A42       loc_218B2
 0EE7:2A4A       loc_218BA
 0EE7:2A4C       loc_218BC
 0EE7:2A4D       loc_218BD
 0EE7:2A59       loc_218C9
 0EE7:2A64       loc_218D4
 0EE7:2A6A       loc_218DA
 0EE7:2A6F       loc_218DF
 0EE7:2A73       loc_218E3
 0EE7:2A7B       loc_218EB
 0EE7:2A84       loc_218F4
 0EE7:2A8C       loc_218FC
 0EE7:2A92       LBX_Intro_MemAndReadAndMem
 0EE7:2B07       LBX_Load_IntroLbx_s21977
 0EE7:2B4A       loc_219BA
 0EE7:2B4B       loc_219BB
 0EE7:2B7A       loc_219EA
 0EE7:2BE0       loc_21A50
 0EE7:2BF4       loc_21A64
 0EE7:2C75       LBX_MemAndRead
 0EE7:2C97       EMM_OK
 0EE7:2CDA       loc_21B4A
 0EE7:2CEE       loc_21B5E
 0EE7:2D00       loc_21B70
 0EE7:2D0C       loc_21B7C
 0EE7:2D1F       FAILURE_DOS_SEEK
 0EE7:2D33       loc_21BA3
 0EE7:2D5E       AddOneToCaptureRemainder
 0EE7:2D61       loc_21BD1
 0EE7:2D7F       loc_21BEF
 0EE7:2DA4       loc_21C14
 0EE7:2DAA       loc_21C1A
 0EE7:2DAC       loc_21C1C
 0EE7:2DB3       loc_21C23
 0EE7:2DBF       loc_21C2F
 0EE7:2DC1       loc_21C31
 0EE7:2DE2       loc_21C52
 0EE7:2DE8       sub_21C58
 0EE7:2DF8       loc_21C68
 0EE7:2DFD       locret_21C6D
 0EE7:2E16       sub_21C86
 0EE7:2E1E       loc_21C8E
 0EE7:2E26       loc_21C96
 0EE7:2E47       loc_21CB7
 0EE7:2E49       loc_21CB9
 0EE7:2E54       loc_21CC4
 0EE7:2E60       loc_21CD0
 0EE7:2E6C       loc_21CDC
 0EE7:2E7E       loc_21CEE
 0EE7:2E8A       loc_21CFA
 0EE7:2E93       loc_21D03
 0EE7:2E9B       loc_21D0B
 0EE7:2EA6       sub_21D16
 0EE7:2EB9       loc_21D29
 0EE7:2EBE       sub_21D2E
 0EE7:2EBF       loc_21D2F
 0EE7:2EC1       loc_21D31
 0EE7:2EF0       loc_21D60
 0EE7:2F0A       loc_21D7A
 0EE7:2F0D       loc_21D7D
 0EE7:2F10       loc_21D80
 0EE7:2F16       loc_21D86
 0EE7:2F1E       loc_21D8E
 0EE7:2F20       loc_21D90
 0EE7:2F24       loc_21D94
 0EE7:2F29       loc_21D99
 0EE7:2F2C       loc_21D9C
 0EE7:2F30       loc_21DA0
 0EE7:2F31       loc_21DA1
 0EE7:2F39       loc_21DA9
 0EE7:2F3C       loc_21DAC
 0EE7:2F40       loc_21DB0
 0EE7:2F5A       loc_21DCA
 0EE7:2F5D       loc_21DCD
 0EE7:2F5F       loc_21DCF
 0EE7:2F61       loc_21DD1
 0EE7:2F6F       loc_21DDF
 0EE7:2F75       loc_21DE5
 0EE7:2F7D       loc_21DED
 0EE7:2F81       loc_21DF1
 0EE7:2F82       loc_21DF2
 0EE7:2F86       loc_21DF6
 0EE7:2F8A       loc_21DFA
 0EE7:2F8D       loc_21DFD
 0EE7:2F98       sub_21E08
 0EE7:2F99       loc_21E09
 0EE7:2FA0       loc_21E10
 0EE7:2FD3       loc_21E43
 0EE7:2FDB       loc_21E4B
 0EE7:2FE7       loc_21E57
 0EE7:2FEC       loc_21E5C
 0EE7:2FFC       loc_21E6C
 0EE7:3002       loc_21E72
 0EE7:3005       loc_21E75
 0EE7:300A       loc_21E7A
 0EE7:300E       loc_21E7E
 0EE7:3017       loc_21E87
 0EE7:301F       loc_21E8F
 0EE7:3027       loc_21E97
 0EE7:302C       loc_21E9C
 0EE7:302F       loc_21E9F
 0EE7:3030       loc_21EA0
 0EE7:3035       loc_21EA5
 0EE7:3038       loc_21EA8
 0EE7:303F       loc_21EAF
 0EE7:3048       loc_21EB8
 0EE7:304A       loc_21EBA
 0EE7:3051       loc_21EC1
 0EE7:3053       loc_21EC3
 0EE7:3055       loc_21EC5
 0EE7:3057       loc_21EC7
 0EE7:305A       loc_21ECA
 0EE7:305C       loc_21ECC
 0EE7:305F       loc_21ECF
 0EE7:3061       loc_21ED1
 0EE7:3063       loc_21ED3
 0EE7:306F       loc_21EDF
 0EE7:307A       sub_21EEA
 0EE7:3082       loc_21EF2
 0EE7:3099       loc_21F09
 0EE7:30BE       loc_21F2E
 0EE7:30C0       loc_21F30
 0EE7:30C6       loc_21F36
 0EE7:30CB       loc_21F3B
 0EE7:30CF       loc_21F3F
 0EE7:30D2       loc_21F42
 0EE7:30E9       sub_21F59
 0EE7:3118       loc_21F88
 0EE7:311E       loc_21F8E
 0EE7:313D       loc_21FAD
 0EE7:3140       loc_21FB0
 0EE7:3154       loc_21FC4
 0EE7:3157       loc_21FC7
 0EE7:315C       loc_21FCC
 0EE7:315D       loc_21FCD
 0EE7:3165       loc_21FD5
 0EE7:3167       loc_21FD7
 0EE7:316E       loc_21FDE
 0EE7:317A       loc_21FEA
 0EE7:3181       loc_21FF1
 0EE7:3184       loc_21FF4
 0EE7:3186       loc_21FF6
 0EE7:3188       loc_21FF8
 0EE7:31A4       loc_22014
 0EE7:31A5       loc_22015
 0EE7:31A8       loc_22018
 0EE7:31AF       loc_2201F
 0EE7:31B2       loc_22022
 0EE7:31B7       loc_22027
 0EE7:31BD       loc_2202D
 0EE7:31C2       loc_22032
 0EE7:31D0       loc_22040
 0EE7:31D3       loc_22043
 0EE7:31E1       loc_22051
 0EE7:31E2       loc_22052
 0EE7:31EC       loc_2205C
 0EE7:31FF       loc_2206F
 0EE7:3206       loc_22076
 0EE7:320B       loc_2207B
 0EE7:320D       loc_2207D
 0EE7:320F       loc_2207F
 0EE7:3229       loc_22099
 0EE7:322A       loc_2209A
 0EE7:3234       loc_220A4
 0EE7:323A       sub_220AA
 0EE7:3240       loc_220B0
 0EE7:325F       loc_220CF
 0EE7:326C       loc_220DC
 0EE7:3275       loc_220E5
 0EE7:3281       loc_220F1
 0EE7:3293       loc_22103
 0EE7:3298       loc_22108
 0EE7:329F       loc_2210F
 0EE7:32A6       loc_22116
 0EE7:32A9       loc_22119
 0EE7:32BC       loc_2212C
 0EE7:32BE       loc_2212E
 0EE7:32CA       loc_2213A
 0EE7:32D2       loc_22142
 0EE7:32D8       loc_22148
 0EE7:32DE       loc_2214E
 0EE7:32E6       loc_22156
 0EE7:32E9       loc_22159
 0EE7:32EC       loc_2215C
 0EE7:32F4       loc_22164
 0EE7:32F7       loc_22167
 0EE7:32FA       loc_2216A
 0EE7:32FD       loc_2216D
 0EE7:32FF       loc_2216F
 0EE7:3302       loc_22172
 0EE7:3304       loc_22174
 0EE7:3305       loc_22175
 0EE7:3308       loc_22178
 0EE7:330A       loc_2217A
 0EE7:330D       loc_2217D
 0EE7:330F       loc_2217F
 0EE7:3310       loc_22180
 0EE7:3313       loc_22183
 0EE7:3315       loc_22185
 0EE7:3316       loc_22186
 0EE7:3317       loc_22187
 0EE7:3319       loc_22189
 0EE7:331A       locret_2218A
 1218:000C       word_2218C
 1218:000E       algn_2218E
 1218:0010       word_22190
 1218:0012       word_22192
 1218:0014       idk_VGA_ScIndexMapMask_s22194
 1218:0070       loc_221F0
 1218:0072       MAYBE_2D_LOOP
 1218:0077       loc_221F7
 1218:0080       loc_22200
 1218:0083       loc_22203
 1218:0086       loc_22206
 1218:0088       loc_22208
 1218:008F       loc_2220F
 1218:009B       loc_2221B
 1218:00A6       loc_22226
 1218:00B3       loc_22233
 1218:00BA       loc_2223A
 1218:00BF       loc_2223F
 1218:00C7       loc_22247
 1218:00C9       loc_22249
 1218:00CD       loc_2224D
 1218:00D6       loc_22256
 1218:00D9       loc_22259
 1218:00DE       loc_2225E
 1218:00E3       loc_22263
 1218:00E5       loc_22265
 1218:00E7       loc_22267
 1218:00EB       loc_2226B
 1218:00ED       loc_2226D
 1218:00F0       loc_22270
 1218:00F6       loc_22276
 1218:00F8       loc_22278
 1218:00FA       loc_2227A
 1218:00FB       loc_2227B
 1218:00FD       loc_2227D
 1218:00FF       loc_2227F
 1218:0100       loc_22280
 1218:0104       loc_22284
 1218:0108       loc_22288
 1218:0112       loc_22292
 1218:0124       loc_222A4
 1218:0127       loc_222A7
 1218:012D       loc_222AD
 1218:0136       loc_222B6
 1218:013F       loc_222BF
 1218:0141       loc_222C1
 1218:0155       loc_222D5
 1218:0160       loc_222E0
 1218:0165       loc_222E5
 1218:016C       loc_222EC
 1218:0174       loc_222F4
 1218:017E       loc_222FE
 1218:0185       loc_22305
 1218:0190       byte_22310
 1218:0191       loc_22311
 1218:01A0       loc_22320
 1218:01A8       loc_22328
 1218:01B4       loc_22334
 1218:01C3       loc_22343
 1218:01C8       loc_22348
 1218:01CD       loc_2234D
 1218:01EE       loc_2236E
 1218:01F6       loc_22376
 1218:01FF       loc_2237F
 1218:0201       loc_22381
 1218:0204       loc_22384
 1218:020F       loc_2238F
 1218:021F       loc_2239F
 1218:0230       loc_223B0
 1218:0233       loc_223B3
 1218:0236       loc_223B6
 1218:023C       loc_223BC
 1218:023F       loc_223BF
 1218:0246       loc_223C6
 1218:0249       sub_223C9
 1218:0250       loc_223D0
 1218:0255       loc_223D5
 1218:0259       loc_223D9
 1218:027E       loc_223FE
 1218:0286       loc_22406
 1218:029E       loc_2241E
 1218:02A6       loc_22426
 1218:02AD       loc_2242D
 1218:02AE       loc_2242E
 1218:02B0       loc_22430
 1218:02B4       loc_22434
 1218:02BE       loc_2243E
 1218:02C1       loc_22441
 1218:02C3       loc_22443
 1218:02CF       loc_2244F
 1218:02D6       loc_22456
 1218:02DC       loc_2245C
 1218:02DF       loc_2245F
 1218:02E2       loc_22462
 1218:02E8       loc_22468
 1218:02EA       loc_2246A
 1218:02F0       loc_22470
 1218:02F4       loc_22474
 1218:02FF       loc_2247F
 1218:0302       loc_22482
 1218:0309       loc_22489
 1218:030C       loc_2248C
 1218:0318       loc_22498
 1218:031D       loc_2249D
 1218:031F       loc_2249F
 1218:0322       loc_224A2
 1218:032E       loc_224AE
 1218:0330       loc_224B0
 1218:033E       loc_224BE
 1218:0343       loc_224C3
 1218:0346       loc_224C6
 1218:0348       loc_224C8
 1218:0350       loc_224D0
 1218:0366       loc_224E6
 1218:0369       loc_224E9
 1218:0372       loc_224F2
 1218:037C       loc_224FC
 1218:038C       loc_2250C
 1218:039B       loc_2251B
 1218:03A0       loc_22520
 1218:03A9       loc_22529
 1218:03BB       loc_2253B
 1218:03BD       loc_2253D
 1218:03C0       loc_22540
 1218:03C3       loc_22543
 1218:03C5       loc_22545
 1218:03CA       loc_2254A
 1218:03CC       loc_2254C
 1218:03CE       loc_2254E
 1218:03D4       loc_22554
 1218:03DA       loc_2255A
 1218:03E5       loc_22565
 1218:03EE       loc_2256E
 1218:03F9       loc_22579
 1218:040A       loc_2258A
 1218:040B       loc_2258B
 1218:040D       loc_2258D
 1218:040E       loc_2258E
 1218:0410       loc_22590
 1218:0415       loc_22595
 1218:041F       loc_2259F
 1218:042B       loc_225AB
 1218:0430       loc_225B0
 1218:0432       loc_225B2
 1218:0435       loc_225B5
 1218:043D       loc_225BD
 1218:0442       loc_225C2
 1218:0446       loc_225C6
 1218:044E       loc_225CE
 1218:0450       loc_225D0
 1218:0455       loc_225D5
 1218:045D       loc_225DD
 1218:0462       loc_225E2
 1218:0467       loc_225E7
 1218:046B       loc_225EB
 1218:046D       loc_225ED
 1218:047C       loc_225FC
 1218:0486       loc_22606
 1218:0488       loc_22608
 1218:048C       loc_2260C
 1218:0490       loc_22610
 1218:0495       loc_22615
 1218:04A2       loc_22622
 1218:04A4       loc_22624
 1218:04A7       loc_22627
 1218:04A9       loc_22629
 1218:04AD       loc_2262D
 1218:04B1       loc_22631
 1218:04B4       loc_22634
 1218:04B8       loc_22638
 1218:04BA       loc_2263A
 1218:04C6       loc_22646
 1218:04C8       loc_22648
 1218:04CA       loc_2264A
 1218:04CB       loc_2264B
 1218:04D5       loc_22655
 1218:04D9       loc_22659
 1218:04DE       loc_2265E
 1218:04E0       loc_22660
 1218:04EA       loc_2266A
 1218:04F2       loc_22672
 1218:04FC       loc_2267C
 1218:04FD       loc_2267D
 1218:04FE       loc_2267E
 1218:0500       loc_22680
 1218:050B       loc_2268B
 1218:0513       loc_22693
 1218:0515       loc_22695
 1218:0517       loc_22697
 1218:051B       loc_2269B
 1218:051D       loc_2269D
 1218:051E       loc_2269E
 1218:0520       loc_226A0
 1218:0523       loc_226A3
 1218:0525       loc_226A5
 1218:0529       loc_226A9
 1218:052A       loc_226AA
 1218:052D       loc_226AD
 1218:052F       loc_226AF
 1218:0530       loc_226B0
 1218:0531       loc_226B1
 126B:0004       word_226B4
 126B:0006       algn_226B6
 126B:0008       word_226B8
 126B:000A       word_226BA
 126B:000C       word_226BC
 126B:000E       word_226BE
 126B:0010       word_226C0
 126B:0012       sub_226C2
 126B:0013       loc_226C3
 126B:0015       loc_226C5
 126B:0016       loc_226C6
 126B:0017       loc_226C7
 126B:0018       loc_226C8
 126B:0019       loc_226C9
 126B:001C       loc_226CC
 126B:001E       loc_226CE
 126B:0020       loc_226D0
 126B:0023       loc_226D3
 126B:0027       loc_226D7
 126B:002B       loc_226DB
 126B:002D       loc_226DD
 126B:002F       loc_226DF
 126B:0030       loc_226E0
 126B:0032       loc_226E2
 126B:0037       loc_226E7
 126B:003A       loc_226EA
 126B:003B       loc_226EB
 126B:0040       loc_226F0
 126B:0043       loc_226F3
 126B:0046       loc_226F6
 126B:0048       loc_226F8
 126B:004B       loc_226FB
 126B:004D       loc_226FD
 126B:004F       loc_226FF
 126B:0051       loc_22701
 126B:0054       loc_22704
 126B:0057       loc_22707
 126B:005C       loc_2270C
 126B:005E       loc_2270E
 126B:0061       loc_22711
 126B:0063       loc_22713
 126B:0065       loc_22715
 126B:0067       loc_22717
 126B:0069       loc_22719
 126B:006B       loc_2271B
 126B:006D       loc_2271D
 126B:0072       loc_22722
 126B:0075       loc_22725
 126B:007A       loc_2272A
 126B:007E       loc_2272E
 126B:0080       loc_22730
 126B:0087       loc_22737
 126B:008B       loc_2273B
 126B:008E       loc_2273E
 126B:0090       loc_22740
 126B:0092       loc_22742
 126B:0096       loc_22746
 126B:0098       loc_22748
 126B:009A       loc_2274A
 126B:009F       loc_2274F
 126B:00A1       loc_22751
 126B:00A8       loc_22758
 126B:00AD       loc_2275D
 126B:00B3       loc_22763
 126B:00B5       loc_22765
 126B:00B8       loc_22768
 126B:00BB       loc_2276B
 126B:00BE       loc_2276E
 126B:00C7       loc_22777
 126B:00C8       loc_22778
 126B:00CC       loc_2277C
 126B:00D5       loc_22785
 126B:00E0       loc_22790
 126B:00E3       loc_22793
 126B:00E5       loc_22795
 126B:00E7       loc_22797
 126B:00EB       loc_2279B
 126B:00EF       loc_2279F
 126B:00F1       loc_227A1
 126B:00F6       loc_227A6
 126B:00F8       loc_227A8
 126B:00FA       loc_227AA
 126B:00FC       loc_227AC
 126B:00FF       loc_227AF
 126B:0119       loc_227C9
 126B:0125       loc_227D5
 126B:0127       loc_227D7
 126B:012E       loc_227DE
 126B:013A       loc_227EA
 126B:013E       loc_227EE
 126B:0140       loc_227F0
 126B:0145       loc_227F5
 126B:014C       byte_227FC
 126B:014D       loc_227FD
 126B:0150       loc_22800
 126B:0152       loc_22802
 126B:0157       loc_22807
 126B:015C       loc_2280C
 126B:015F       loc_2280F
 126B:0165       loc_22815
 126B:0174       loc_22824
 126B:0179       loc_22829
 126B:017B       loc_2282B
 126B:0180       loc_22830
 126B:0185       loc_22835
 126B:018C       loc_2283C
 126B:0193       loc_22843
 126B:019A       loc_2284A
 126B:019F       loc_2284F
 126B:01A4       loc_22854
 126B:01B1       loc_22861
 126B:01B3       loc_22863
 126B:01BE       loc_2286E
 126B:01C5       loc_22875
 126B:01C9       loc_22879
 126B:01CC       loc_2287C
 126B:01CE       loc_2287E
 126B:01D1       loc_22881
 126B:01D3       loc_22883
 126B:01D4       loc_22884
 126B:01E5       loc_22895
 126B:01E8       loc_22898
 126B:01EC       loc_2289C
 126B:01EE       loc_2289E
 126B:01F3       loc_228A3
 126B:01F7       loc_228A7
 126B:0200       loc_228B0
 126B:0202       loc_228B2
 126B:0216       loc_228C6
 126B:021A       loc_228CA
 126B:021F       loc_228CF
 126B:0221       loc_228D1
 126B:0235       loc_228E5
 126B:0238       loc_228E8
 126B:0242       loc_228F2
 126B:0246       loc_228F6
 126B:0248       loc_228F8
 126B:0252       loc_22902
 126B:0266       loc_22916
 126B:0269       loc_22919
 126B:026D       loc_2291D
 126B:0274       byte_22924
 126B:0275       loc_22925
 126B:027C       loc_2292C
 126B:0284       loc_22934
 126B:0289       loc_22939
 126B:028C       loc_2293C
 126B:028E       loc_2293E
 126B:029F       loc_2294F
 126B:02AA       loc_2295A
 126B:02AF       loc_2295F
 126B:02B7       loc_22967
 126B:02BB       loc_2296B
 126B:02BD       loc_2296D
 126B:02C0       loc_22970
 126B:02C5       loc_22975
 126B:02D0       loc_22980
 126B:02F4       loc_229A4
 126B:02F7       loc_229A7
 126B:02FD       loc_229AD
 126B:0300       loc_229B0
 126B:0302       loc_229B2
 126B:030A       sub_229BA
 126B:032D       loc_229DD
 126B:0336       sub_229E6
 126B:0340       loc_229F0
 126B:035E       loc_22A0E
 126B:0384       loc_22A34
 126B:03A1       loc_22A51
 126B:03AB       loc_22A5B
 126B:03B2       loc_22A62
 126B:03B5       loc_22A65
 126B:03B7       loc_22A67
 126B:03BF       loc_22A6F
 126B:03C3       loc_22A73
 126B:03C5       loc_22A75
 126B:03CD       loc_22A7D
 126B:03D0       loc_22A80
 126B:03D1       loc_22A81
 126B:03DA       loc_22A8A
 126B:03E8       loc_22A98
 126B:03F1       loc_22AA1
 126B:0400       loc_22AB0
 126B:040C       loc_22ABC
 126B:0413       loc_22AC3
 126B:042A       loc_22ADA
 126B:042F       loc_22ADF
 126B:0432       loc_22AE2
 126B:0437       loc_22AE7
 126B:043C       loc_22AEC
 126B:043E       loc_22AEE
 126B:0440       loc_22AF0
 126B:0446       loc_22AF6
 126B:044D       loc_22AFD
 126B:044F       loc_22AFF
 126B:0456       loc_22B06
 126B:045D       loc_22B0D
 126B:0466       loc_22B16
 126B:046B       loc_22B1B
 126B:046E       loc_22B1E
 126B:0470       loc_22B20
 126B:0476       loc_22B26
 126B:0483       loc_22B33
 126B:0488       loc_22B38
 126B:048F       loc_22B3F
 126B:0491       loc_22B41
 126B:0494       loc_22B44
 126B:049D       loc_22B4D
 126B:04A2       loc_22B52
 126B:04B1       loc_22B61
 126B:04B7       loc_22B67
 126B:04BA       loc_22B6A
 126B:04BB       loc_22B6B
 126B:04C0       loc_22B70
 126B:04C2       loc_22B72
 126B:04C8       loc_22B78
 126B:04CC       loc_22B7C
 126B:04CE       loc_22B7E
 126B:04DF       loc_22B8F
 126B:04E2       loc_22B92
 126B:04E6       loc_22B96
 126B:04ED       loc_22B9D
 126B:04F0       loc_22BA0
 126B:0501       loc_22BB1
 126B:0513       loc_22BC3
 126B:051A       loc_22BCA
 126B:051F       loc_22BCF
 126B:0529       loc_22BD9
 126B:0536       loc_22BE6
 126B:053A       loc_22BEA
 126B:0542       loc_22BF2
 126B:0551       loc_22C01
 126B:0556       loc_22C06
 126B:055B       loc_22C0B
 126B:0563       loc_22C13
 126B:0568       loc_22C18
 126B:056A       loc_22C1A
 126B:056E       loc_22C1E
 126B:0570       loc_22C20
 126B:057C       loc_22C2C
 126B:0584       loc_22C34
 126B:0589       loc_22C39
 126B:0593       loc_22C43
 126B:0596       loc_22C46
 126B:05A1       loc_22C51
 126B:05A5       loc_22C55
 126B:05A8       loc_22C58
 126B:05AC       loc_22C5C
 126B:05AE       loc_22C5E
 126B:05BA       loc_22C6A
 126B:05BC       loc_22C6C
 126B:05BF       loc_22C6F
 126B:05C9       loc_22C79
 126B:05DC       loc_22C8C
 126B:05E0       loc_22C90
 126B:05EB       loc_22C9B
 126B:05F4       loc_22CA4
 126B:05FF       loc_22CAF
 126B:0603       loc_22CB3
 126B:0605       loc_22CB5
 126B:0607       loc_22CB7
 126B:0609       loc_22CB9
 126B:060B       loc_22CBB
 126B:060F       loc_22CBF
 126B:0611       loc_22CC1
 126B:0612       loc_22CC2
 126B:0614       loc_22CC4
 126B:0617       loc_22CC7
 126B:0619       loc_22CC9
 126B:061D       loc_22CCD
 126B:061E       loc_22CCE
 126B:0621       loc_22CD1
 126B:0623       loc_22CD3
 126B:0624       loc_22CD4
 126B:0625       loc_22CD5
 12CD:0008       sub_22CD8
 12CD:0009       loc_22CD9
 12CD:000B       loc_22CDB
 12CD:000C       loc_22CDC
 12CD:000D       loc_22CDD
 12CD:000E       loc_22CDE
 12CD:000F       loc_22CDF
 12CD:0012       loc_22CE2
 12CD:0015       loc_22CE5
 12CD:0018       loc_22CE8
 12CD:001A       loc_22CEA
 12CD:001C       loc_22CEC
 12CD:001F       loc_22CEF
 12CD:0022       loc_22CF2
 12CD:0023       loc_22CF3
 12CD:0024       loc_22CF4
 12CD:0028       loc_22CF8
 12CD:002B       loc_22CFB
 12CD:002E       loc_22CFE
 12CD:002F       loc_22CFF
 12CD:0032       loc_22D02
 12CD:0036       loc_22D06
 12CD:0039       loc_22D09
 12CD:003B       loc_22D0B
 12CD:003D       loc_22D0D
 12CD:003E       loc_22D0E
 12CD:0040       loc_22D10
 12CD:0044       loc_22D14
 12CD:0046       loc_22D16
 12CD:0048       loc_22D18
 12CD:004A       word_22D1A
 12CD:004C       sub_22D1C
 12CD:004D       loc_22D1D
 12CD:004F       loc_22D1F
 12CD:0050       loc_22D20
 12CD:0052       loc_22D22
 12CD:0056       loc_22D26
 12CD:0058       loc_22D28
 12CD:005B       loc_22D2B
 12CD:005E       loc_22D2E
 12CD:0061       loc_22D31
 12CD:0063       loc_22D33
 12CD:0067       loc_22D37
 12CD:006B       loc_22D3B
 12CD:006C       loc_22D3C
 12CD:006F       loc_22D3F
 12CD:0071       loc_22D41
 12CD:0074       loc_22D44
 12CD:0079       loc_22D49
 12CD:007B       loc_22D4B
 12CD:007E       loc_22D4E
 12CD:0080       loc_22D50
 12CD:0088       loc_22D58
 12CD:008A       loc_22D5A
 12CD:008C       loc_22D5C
 12CD:008F       loc_22D5F
 12CD:0091       loc_22D61
 12CD:0092       loc_22D62
 12CD:0097       loc_22D67
 12CD:009E       loc_22D6E
 12CD:009F       loc_22D6F
 12CD:00A0       loc_22D70
 12CD:00A4       loc_22D74
 12CD:00A8       loc_22D78
 12CD:00AB       loc_22D7B
 12CD:00AD       loc_22D7D
 12CD:00B4       loc_22D84
 12CD:00B5       loc_22D85
 12CD:00B7       loc_22D87
 12CD:00B8       loc_22D88
 12CD:00BA       loc_22D8A
 12CD:00BF       loc_22D8F
 12CD:00C5       loc_22D95
 12CD:00CA       loc_22D9A
 12CD:00CF       loc_22D9F
 12CD:00D7       loc_22DA7
 12CD:00DF       loc_22DAF
 12CD:00E2       loc_22DB2
 12CD:00E4       loc_22DB4
 12CD:00E7       loc_22DB7
 12CD:00E9       loc_22DB9
 12CD:00EC       loc_22DBC
 12CD:00F0       word_22DC0
 12CD:00F2       word_22DC2
 12CD:00F4       word_22DC4
 12CD:00F6       sub_22DC6
 12CD:00F7       loc_22DC7
 12CD:00F9       loc_22DC9
 12CD:00FA       loc_22DCA
 12CD:00FB       loc_22DCB
 12CD:00FD       loc_22DCD
 12CD:0100       loc_22DD0
 12CD:0104       loc_22DD4
 12CD:011B       loc_22DEB
 12CD:0124       loc_22DF4
 12CD:0127       loc_22DF7
 12CD:012C       loc_22DFC
 12CD:0135       loc_22E05
 12CD:013E       loc_22E0E
 12CD:0140       loc_22E10
 12CD:0149       loc_22E19
 12CD:014B       loc_22E1B
 12CD:014F       loc_22E1F
 12CD:0159       loc_22E29
 12CD:015E       loc_22E2E
 12CD:0164       loc_22E34
 12CD:016B       loc_22E3B
 12CD:016F       loc_22E3F
 12CD:0178       loc_22E48
 12CD:0180       loc_22E50
 12CD:0181       loc_22E51
 12CD:0186       loc_22E56
 12CD:0193       loc_22E63
 12CD:019C       loc_22E6C
 12CD:019D       loc_22E6D
 12CD:01A6       loc_22E76
 12CD:01A7       loc_22E77
 12CD:01B0       loc_22E80
 12CD:01B3       loc_22E83
 12CD:01B5       loc_22E85
 12CD:01B8       loc_22E88
 12CD:01BA       loc_22E8A
 12CD:01BC       loc_22E8C
 12CD:01C0       loc_22E90
 12CD:01CB       loc_22E9B
 12CD:01CC       loc_22E9C
 12CD:01D1       loc_22EA1
 12CD:01D6       loc_22EA6
 12CD:01DE       loc_22EAE
 12CD:01E2       loc_22EB2
 12CD:01E5       loc_22EB5
 12CD:01F1       loc_22EC1
 12CD:01F7       loc_22EC7
 12CD:01FC       loc_22ECC
 12CD:01FF       loc_22ECF
 12CD:020C       loc_22EDC
 12CD:0211       loc_22EE1
 12CD:0220       loc_22EF0
 12CD:0226       loc_22EF6
 12CD:022A       sub_22EFA
 12CD:022B       loc_22EFB
 12CD:023B       loc_22F0B
 12CD:0240       loc_22F10
 12CD:0243       loc_22F13
 12CD:0247       loc_22F17
 12CD:024F       word_22F1F
 12CD:0251       word_22F21
 12CD:0253       word_22F23
 12CD:0255       sub_22F25
 12CD:0258       loc_22F28
 12CD:027A       loc_22F4A
 12CD:027C       loc_22F4C
 12CD:027E       loc_22F4E
 12CD:0281       loc_22F51
 12CD:0285       loc_22F55
 12CD:028E       loc_22F5E
 12CD:0298       loc_22F68
 12CD:02A0       loc_22F70
 12CD:02B0       loc_22F80
 12CD:02B7       loc_22F87
 12CD:02BE       loc_22F8E
 12CD:02C0       loc_22F90
 12CD:02C3       loc_22F93
 12CD:02C7       loc_22F97
 12CD:02CA       loc_22F9A
 12CD:02CF       loc_22F9F
 12CD:02E2       loc_22FB2
 12CD:02EA       loc_22FBA
 12CD:02F3       loc_22FC3
 12CD:02F6       loc_22FC6
 12CD:0300       loc_22FD0
 12CD:0303       loc_22FD3
 12CD:0305       loc_22FD5
 12CD:0308       loc_22FD8
 12CD:0309       loc_22FD9
 12CD:030E       loc_22FDE
 12CD:0311       sub_22FE1
 12CD:0317       loc_22FE7
 12CD:0319       loc_22FE9
 12CD:031F       loc_22FEF
 12CD:0324       loc_22FF4
 12CD:032D       loc_22FFD
 12CD:0330       loc_23000
 12CD:0335       loc_23005
 12CD:033C       loc_2300C
 12CD:033E       loc_2300E
 12CD:033F       loc_2300F
 12CD:034D       loc_2301D
 12CD:035A       loc_2302A
 12CD:035F       loc_2302F
 12CD:0364       loc_23034
 12CD:0368       locret_23038
 12CD:0369       loc_23039
 12CD:036C       loc_2303C
 12CD:036E       loc_2303E
 12CD:0374       loc_23044
 12CD:0378       loc_23048
 12CD:037C       loc_2304C
 12CD:0381       loc_23051
 12CD:03B0       loc_23080
 12CD:03B8       loc_23088
 12CD:03C0       loc_23090
 12CD:03C4       loc_23094
 12CD:03C7       loc_23097
 12CD:03CC       sub_2309C
 12CD:03CD       loc_2309D
 12CD:03CF       loc_2309F
 12CD:03D0       loc_230A0
 12CD:03D9       loc_230A9
 12CD:03DF       loc_230AF
 12CD:03E6       loc_230B6
 12CD:03ED       loc_230BD
 12CD:03F0       loc_230C0
 12CD:03F7       loc_230C7
 12CD:03FC       loc_230CC
 12CD:0404       loc_230D4
 12CD:0417       sub_230E7
 12CD:041A       loc_230EA
 12CD:043E       loc_2310E
 12CD:0440       loc_23110
 12CD:0459       sub_23129
 12CD:046B       loc_2313B
 12CD:046D       loc_2313D
 12CD:0476       loc_23146
 12CD:047E       loc_2314E
 12CD:0488       loc_23158
 12CD:048A       loc_2315A
 12CD:0490       sub_23160
 12CD:0499       loc_23169
 12CD:04AF       loc_2317F
 12CD:04BC       loc_2318C
 12CD:04BF       loc_2318F
 12CD:04C8       loc_23198
 12CD:04DA       loc_231AA
 12CD:04DC       loc_231AC
 12CD:04DF       loc_231AF
 12CD:04EE       loc_231BE
 12CD:04F8       loc_231C8
 12CD:04FA       loc_231CA
 12CD:04FB       loc_231CB
 12CD:04FE       loc_231CE
 12CD:0506       sub_231D6
 12CD:050D       loc_231DD
 12CD:0523       loc_231F3
 12CD:0527       loc_231F7
 12CD:0531       loc_23201
 12CD:0536       loc_23206
 12CD:053E       loc_2320E
 12CD:0550       locret_23220
 12CD:0551       sub_23221
 12CD:0552       loc_23222
 12CD:055E       loc_2322E
 12CD:056D       word_2323D
 12CD:056F       word_2323F
 12CD:0571       word_23241
 12CD:0573       sub_23243
 12CD:0586       loc_23256
 12CD:0590       loc_23260
 12CD:0597       loc_23267
 12CD:059B       loc_2326B
 12CD:059F       loc_2326F
 12CD:05C0       loc_23290
 12CD:05C3       loc_23293
 12CD:05CB       loc_2329B
 12CD:05DC       loc_232AC
 12CD:05DE       loc_232AE
 12CD:05DF       loc_232AF
 12CD:05E6       loc_232B6
 12CD:05EC       loc_232BC
 12CD:05F4       loc_232C4
 12CD:05FA       loc_232CA
 12CD:0615       loc_232E5
 12CD:061D       sub_232ED
 12CD:0620       loc_232F0
 12CD:0637       loc_23307
 12CD:0659       loc_23329
 12CD:065D       loc_2332D
 12CD:0688       loc_23358
 12CD:0694       loc_23364
 12CD:06A2       loc_23372
 12CD:06AA       loc_2337A
 12CD:06AC       loc_2337C
 12CD:06AE       loc_2337E
 12CD:06B0       loc_23380
 12CD:06C5       loc_23395
 12CD:06CF       loc_2339F
 12CD:06D1       loc_233A1
 12CD:06D6       loc_233A6
 12CD:06E0       loc_233B0
 12CD:06E5       word_233B5
 12CD:06E7       byte_233B7
 12CD:07E7       sub_234B7
 12CD:07E8       loc_234B8
 12CD:07EC       loc_234BC
 12CD:07EE       loc_234BE
 12CD:07FE       loc_234CE
 12CD:0815       loc_234E5
 12CD:081E       loc_234EE
 12CD:0822       loc_234F2
 12CD:0833       loc_23503
 12CD:0839       loc_23509
 12CD:083F       loc_2350F
 12CD:0857       sub_23527
 12CD:086A       loc_2353A
 12CD:0872       loc_23542
 12CD:0875       loc_23545
 12CD:0877       loc_23547
 12CD:087A       loc_2354A
 12CD:087E       loc_2354E
 12CD:0881       loc_23551
 12CD:0883       loc_23553
 12CD:0888       loc_23558
 12CD:088A       loc_2355A
 12CD:0890       loc_23560
 12CD:08B0       loc_23580
 12CD:08BC       loc_2358C
 12CD:08BE       loc_2358E
 12CD:08CF       loc_2359F
 12CD:08D3       loc_235A3
 12CD:08D9       sub_235A9
 12CD:08E7       loc_235B7
 12CD:08F9       loc_235C9
 12CD:0902       loc_235D2
 12CD:090A       loc_235DA
 12CD:091D       loc_235ED
 12CD:0944       loc_23614
 12CD:0955       loc_23625
 12CD:0959       loc_23629
 12CD:095F       sub_2362F
 12CD:0960       loc_23630
 12CD:097F       loc_2364F
 12CD:098F       loc_2365F
 12CD:099C       loc_2366C
 12CD:099E       loc_2366E
 12CD:09AB       loc_2367B
 12CD:09BE       loc_2368E
 12CD:09C3       loc_23693
 12CD:09CA       loc_2369A
 12CD:09DB       loc_236AB
 12CD:09DC       loc_236AC
 12CD:09DF       loc_236AF
 12CD:09E0       loc_236B0
 12CD:09E4       locret_236B4
 12CD:09E5       word_236B5
 12CD:09E7       word_236B7
 12CD:09E9       sub_236B9
 12CD:09F7       loc_236C7
 12CD:09FE       loc_236CE
 12CD:0A08       loc_236D8
 12CD:0A0D       loc_236DD
 12CD:0A10       loc_236E0
 12CD:0A32       loc_23702
 12CD:0A3A       loc_2370A
 12CD:0A3E       loc_2370E
 12CD:0A4E       loc_2371E
 12CD:0A53       loc_23723
 12CD:0A56       loc_23726
 12CD:0A5B       loc_2372B
 12CD:0A62       loc_23732
 12CD:0A65       loc_23735
 12CD:0A68       loc_23738
 12CD:0A6A       loc_2373A
 12CD:0A6D       loc_2373D
 12CD:0A6F       loc_2373F
 12CD:0A70       loc_23740
 12CD:0A71       loc_23741
 12CD:0A72       loc_23742
 12CD:0A73       loc_23743
 12CD:0A75       loc_23745
 12CD:0A76       locret_23746
 1374:0008       byte_23748
 1374:01F7       sub_23937
 1374:01FE       loc_2393E
 1374:0213       loc_23953
 1374:0216       loc_23956
 1374:0220       loc_23960
 1374:0229       loc_23969
 1374:022C       loc_2396C
 1374:0230       loc_23970
 1374:023E       loc_2397E
 1374:0240       loc_23980
 1374:0246       loc_23986
 1374:0250       sub_23990
 1374:025C       loc_2399C
 1374:0269       loc_239A9
 1374:027D       loc_239BD
 1374:0280       loc_239C0
 1374:028B       loc_239CB
 1374:0293       loc_239D3
 1374:029C       loc_239DC
 1374:02A7       loc_239E7
 1374:02AF       loc_239EF
 1374:02B5       loc_239F5
 1374:02B8       loc_239F8
 1374:02BE       loc_239FE
 1374:02BF       loc_239FF
 1374:02C6       loc_23A06
 1374:02CE       loc_23A0E
 1374:02D9       loc_23A19
 1374:02DC       loc_23A1C
 1374:02E2       loc_23A22
 1374:02EA       loc_23A2A
 1374:02F2       loc_23A32
 1374:02F3       loc_23A33
 1374:02FD       sub_23A3D
 1374:0300       loc_23A40
 1374:0302       loc_23A42
 1374:030A       loc_23A4A
 1374:0310       loc_23A50
 1374:0326       loc_23A66
 1374:032F       loc_23A6F
 1374:0336       loc_23A76
 1374:033C       loc_23A7C
 1374:0340       loc_23A80
 1374:0350       loc_23A90
 1374:035F       loc_23A9F
 1374:0361       loc_23AA1
 1374:0367       loc_23AA7
 1374:036D       loc_23AAD
 1374:037C       loc_23ABC
 1374:038B       sub_23ACB
 1374:0392       loc_23AD2
 1374:0395       loc_23AD5
 1374:0398       loc_23AD8
 1374:039E       loc_23ADE
 1374:03A8       loc_23AE8
 1374:03B7       loc_23AF7
 1374:03BF       algn_23AFF
 1374:03C0       loc_23B00
 1374:03C3       loc_23B03
 1374:03C5       loc_23B05
 1374:03CA       loc_23B0A
 1374:03CE       loc_23B0E
 1374:03D9       loc_23B19
 1374:03DD       loc_23B1D
 1374:03DE       loc_23B1E
 1374:03E7       loc_23B27
 1374:03EE       loc_23B2E
 1374:03F1       loc_23B31
 1374:03F4       loc_23B34
 1374:0401       loc_23B41
 1374:0409       loc_23B49
 1374:0419       word_23B59
 1374:041B       word_23B5B
 1374:041D       word_23B5D
 1374:041F       word_23B5F
 1374:0425       word_23B65
 1374:0427       word_23B67
 1374:0429       word_23B69
 1374:042B       word_23B6B
 1374:042D       word_23B6D
 1374:042F       word_23B6F
 1374:0431       word_23B71
 1374:0433       word_23B73
 1374:0435       sub_23B75
 1374:043F       loc_23B7F
 1374:0446       loc_23B86
 1374:045B       loc_23B9B
 1374:045F       loc_23B9F
 1374:0469       loc_23BA9
 1374:046D       loc_23BAD
 1374:0470       loc_23BB0
 1374:047D       loc_23BBD
 1374:0484       loc_23BC4
 1374:048E       loc_23BCE
 1374:0499       loc_23BD9
 1374:04AD       loc_23BED
 1374:04C7       loc_23C07
 1374:04CE       loc_23C0E
 1374:04D0       loc_23C10
 1374:04D8       loc_23C18
 1374:04E1       loc_23C21
 1374:04E6       loc_23C26
 1374:04E7       loc_23C27
 1374:04EA       loc_23C2A
 1374:04F2       loc_23C32
 1374:0509       loc_23C49
 1374:050C       loc_23C4C
 1374:0522       loc_23C62
 1374:052A       loc_23C6A
 1374:0533       loc_23C73
 1374:0535       loc_23C75
 1374:053F       loc_23C7F
 1374:055B       loc_23C9B
 1374:0578       loc_23CB8
 1374:057B       loc_23CBB
 1374:057D       loc_23CBD
 1374:0582       loc_23CC2
 1374:058F       loc_23CCF
 1374:0599       loc_23CD9
 1374:05A8       loc_23CE8
 1374:05AB       loc_23CEB
 1374:05B1       sub_23CF1
 1374:05B8       loc_23CF8
 1374:05BF       loc_23CFF
 1374:05D0       loc_23D10
 1374:05DB       loc_23D1B
 1374:05E5       loc_23D25
 1374:05FE       loc_23D3E
 1374:0620       loc_23D60
 1374:0622       loc_23D62
 1374:062A       loc_23D6A
 1374:063D       loc_23D7D
 1374:064B       loc_23D8B
 1374:0650       loc_23D90
 1374:065D       loc_23D9D
 1374:0660       loc_23DA0
 1374:067B       loc_23DBB
 1374:0689       loc_23DC9
 1374:0695       loc_23DD5
 1374:06AF       loc_23DEF
 1374:06B0       loc_23DF0
 1374:06C9       loc_23E09
 1374:06DA       loc_23E1A
 1374:06DF       loc_23E1F
 1374:0701       loc_23E41
 1374:070B       loc_23E4B
 1374:0710       loc_23E50
 1374:0717       loc_23E57
 1374:071F       loc_23E5F
 1374:072A       loc_23E6A
 1374:072E       loc_23E6E
 1374:0731       loc_23E71
 1374:0736       loc_23E76
 1374:0743       loc_23E83
 1374:0746       loc_23E86
 1374:074E       loc_23E8E
 1374:0751       loc_23E91
 1374:0758       loc_23E98
 1374:075D       loc_23E9D
 1374:076F       loc_23EAF
 1374:0774       loc_23EB4
 1374:0776       loc_23EB6
 1374:0779       loc_23EB9
 1374:077C       loc_23EBC
 1374:0781       loc_23EC1
 1374:0784       loc_23EC4
 1374:0786       loc_23EC6
 1374:0788       loc_23EC8
 1374:078A       loc_23ECA
 1374:078B       loc_23ECB
 1374:078D       loc_23ECD
 1374:0790       loc_23ED0
 1374:0791       loc_23ED1
 1374:0792       loc_23ED2
 1374:0793       loc_23ED3
 1374:0794       loc_23ED4
 1374:0795       locret_23ED5
 13ED:0006       byte_23ED6
 13ED:006E       wtf_s23F3E
 13ED:006F       loc_23F3F
 13ED:008A       loc_23F5A
 13ED:008F       loc_23F5F
 13ED:0091       loc_23F61
 13ED:0093       loc_23F63
 13ED:009F       loc_23F6F
 13ED:00A4       loc_23F74
 13ED:00A7       loc_23F77
 13ED:00B0       loc_23F80
 13ED:00B2       idk_Mouse_s23F82
 13ED:00B3       loc_23F83
 13ED:00B5       loc_23F85
 13ED:00B7       loc_23F87
 13ED:00BA       loc_23F8A
 13ED:00BE       loc_23F8E
 13ED:00C4       loc_23F94
 13ED:00C8       loc_23F98
 13ED:00CD       loc_23F9D
 13ED:00CF       loc_23F9F
 13ED:00D6       loc_23FA6
 13ED:00D8       loc_23FA8
 13ED:00E0       loc_23FB0
 13ED:00E3       loc_23FB3
 13ED:00E6       loc_23FB6
 13ED:00E8       loc_23FB8
 13ED:00EB       loc_23FBB
 13ED:00EE       loc_23FBE
 13ED:00F0       loc_23FC0
 13ED:00F6       loc_23FC6
 13ED:00F8       loc_23FC8
 13ED:00FB       loc_23FCB
 13ED:00FD       loc_23FCD
 13ED:0100       loc_23FD0
 13ED:0103       loc_23FD3
 13ED:0105       loc_23FD5
 13ED:0108       loc_23FD8
 13ED:010A       loc_23FDA
 13ED:010C       sub_23FDC
 13ED:0117       idk_Get_Mouse_w360AA
 13ED:0118       loc_23FE8
 13ED:011B       loc_23FEB
 13ED:011D       loc_23FED
 13ED:0122       _f330547_GetMouseButtonsStatus
 13ED:0124       loc_23FF4
 13ED:0127       loc_23FF7
 13ED:0130       IfMouseLeftHandedSwapButtonPressBits
 13ED:013F       loc_2400F
 13ED:0140       loc_24010
 13ED:0145       loc_24015
 13ED:0146       loc_24016
 13ED:0148       MOUSE_WaitForButtonStatus
 13ED:014C       LOOP
 13ED:0165       loc_24035
 13ED:0166       loc_24036
 13ED:0168       MOUSE_SetupRangeRoutine
 13ED:0186       SKIP
 13ED:018F       CONTINUE
 13ED:01D0       loc_240A0
 13ED:01FD       locret_240CD
 13ED:01FE       set_w360A2_1
 13ED:01FF       loc_240CF
 13ED:0204       loc_240D4
 13ED:020C       DOS_MouseReset
 13ED:0210       loc_240E0
 13ED:0220       loc_240F0
 13ED:0233       loc_24103
 13ED:0246       loc_24116
 13ED:0249       loc_24119
 13ED:0254       MOUSE_ExchangeInterrupt
 13ED:0265       loc_24135
 13ED:027E       loc_2414E
 13ED:0284       loc_24154
 13ED:0289       hrmMsExchIntSub
 13ED:02B9       loc_24189
 13ED:02BE       Mouse_InterruptCallback
 13ED:02E3       loc_241B3
 13ED:02FC       loc_241CC
 13ED:0306       loc_241D6
 13ED:0327       loc_241F7
 13ED:0347       loc_24217
 13ED:038A       loc_2425A
 13ED:0396       loc_24266
 13ED:039E       Disable_Set_FLAG_Mouse_Skip
 13ED:03B6       Restore_Set_FLAG_Mouse_Skip
 13ED:03C8       sub_24298
 13ED:03D8       loc_242A8
 13ED:03DD       _f331647_TestKeyPress
 13ED:03E7       loc_242B7
 13ED:03E9       yesKeyPress
 13ED:03F3       noKeyPress
 13ED:03FD       ST_GetKeyboardCode
 13ED:040E       loc_242DE
 13ED:0419       loc_242E9
 13ED:0424       loc_242F4
 13ED:042F       loc_242FF
 13ED:043A       loc_2430A
 13ED:0445       loc_24315
 13ED:0450       loc_24320
 13ED:045B       loc_2432B
 13ED:0466       loc_24336
 13ED:046B       loc_2433B
 13ED:046E       loc_2433E
 13ED:0471       loc_24341
 13ED:047C       loc_2434C
 13ED:0487       loc_24357
 13ED:0492       loc_24362
 13ED:049D       loc_2436D
 13ED:04A8       loc_24378
 13ED:04B3       loc_24383
 13ED:04BE       loc_2438E
 13ED:04C9       loc_24399
 13ED:04D4       loc_243A4
 13ED:04DF       loc_243AF
 13ED:04EA       loc_243BA
 13ED:04F5       loc_243C5
 13ED:0500       loc_243D0
 13ED:050B       loc_243DB
 13ED:0516       loc_243E6
 13ED:0521       loc_243F1
 13ED:052C       loc_243FC
 13ED:0537       loc_24407
 13ED:0542       loc_24412
 13ED:054D       loc_2441D
 13ED:0558       loc_24428
 13ED:0563       loc_24433
 13ED:056E       loc_2443E
 13ED:0579       loc_24449
 13ED:0584       loc_24454
 13ED:058F       loc_2445F
 13ED:059A       loc_2446A
 13ED:05A5       loc_24475
 13ED:05B0       loc_24480
 13ED:05BB       loc_2448B
 13ED:05C6       loc_24496
 13ED:05CB       loc_2449B
 13ED:05D0       locret_244A0
 13ED:05D1       loc_244A1
 13ED:05D4       loc_244A4
 13ED:05DC       loc_244AC
 13ED:05E7       loc_244B7
 13ED:05EF       loc_244BF
 13ED:05F0       loc_244C0
 13ED:05F2       loc_244C2
 13ED:05FD       loc_244CD
 13ED:0608       loc_244D8
 13ED:0612       loc_244E2
 13ED:061D       loc_244ED
 13ED:0628       loc_244F8
 13ED:0633       loc_24503
 13ED:063B       loc_2450B
 13ED:0644       loc_24514
 13ED:0654       loc_24524
 13ED:0659       loc_24529
 13ED:065C       get__Mouse_w360A4
 13ED:0660       loc_24530
 13ED:0667       get__Mouse_w360A6
 13ED:0672       CALL_PositionMouseCursor
 13ED:069A       loc_2456A
 13ED:069D       DOS_PositionMouseCursor
 13ED:06B3       idk_Get_Mouse_w360AE
 13ED:06BE       idk_Get_Mouse_w360B0
 13ED:06C4       loc_24594
 13ED:06C9       idk_Get_Mouse_w360B2
 13ED:06D4       get_w360AC_set0
 13ED:06D8       loc_245A8
 13ED:06E5       _f332647_Get_w360B4_Set0
 13ED:06F6       sub_245C6
 13ED:0714       sub_245E4
 13ED:073E       sub_2460E
 13ED:073F       loc_2460F
 13ED:0743       loc_24613
 13ED:0757       loc_24627
 13ED:075A       loc_2462A
 13ED:0774       loc_24644
 13ED:0778       sub_24648
 13ED:079D       loc_2466D
 13ED:07A3       loc_24673
 13ED:07CC       loc_2469C
 13ED:07CF       loc_2469F
 13ED:07EB       loc_246BB
 13ED:07FA       loc_246CA
 13ED:07FF       loc_246CF
 13ED:0811       loc_246E1
 13ED:0816       loc_246E6
 13ED:0819       loc_246E9
 13ED:084B       sub_2471B
 13ED:0855       loc_24725
 13ED:0870       loc_24740
 13ED:0877       loc_24747
 13ED:087D       loc_2474D
 13ED:089E       loc_2476E
 13ED:08AA       loc_2477A
 13ED:08D6       loc_247A6
 13ED:08D8       loc_247A8
 13ED:08EF       loc_247BF
 13ED:08F4       loc_247C4
 13ED:08F7       loc_247C7
 13ED:0900       loc_247D0
 13ED:091C       loc_247EC
 13ED:0929       idk_VGA_s247F9
 13ED:095F       loc_2482F
 13ED:0961       loc_24831
 13ED:098F       loc_2485F
 13ED:09A6       loc_24876
 13ED:09AB       loc_2487B
 13ED:09AE       loc_2487E
 13ED:09E0       idk_Dseg_RepMovSw
 13ED:09FB       idk_ChkMousDoEga
 13ED:0A0A       loc_248DA
 13ED:0A0F       loc_248DF
 13ED:0A19       loc_248E9
 13ED:0A52       loc_24922
 13ED:0A57       loc_24927
 13ED:0A5A       loc_2492A
 13ED:0A8B       sub_2495B
 13ED:0A8C       loc_2495C
 13ED:0AA9       loc_24979
 13ED:0AAC       loc_2497C
 13ED:0AB8       loc_24988
 13ED:0AE6       loc_249B6
 13ED:0AE9       loc_249B9
 13ED:0AEB       loc_249BB
 13ED:0AEE       loc_249BE
 13ED:0B00       loc_249D0
 13ED:0B12       loc_249E2
 13ED:0B1F       sub_249EF
 13ED:0B20       loc_249F0
 13ED:0B29       loc_249F9
 13ED:0B2E       loc_249FE
 13ED:0B3D       loc_24A0D
 13ED:0B50       loc_24A20
 13ED:0B5A       loc_24A2A
 13ED:0B6A       loc_24A3A
 13ED:0B6B       loc_24A3B
 13ED:0B6E       loc_24A3E
 13ED:0B70       loc_24A40
 13ED:0B73       loc_24A43
 13ED:0B80       loc_24A50
 13ED:0B94       loc_24A64
 13ED:0B97       loc_24A67
 13ED:0B9E       loc_24A6E
 13ED:0BA0       loc_24A70
 13ED:0BA4       sub_24A74
 13ED:0BC4       loc_24A94
 13ED:0BC8       loc_24A98
 13ED:0BCA       sub_24A9A
 13ED:0BE2       loc_24AB2
 13ED:0BEA       loc_24ABA
 13ED:0BF0       sub_24AC0
 13ED:0C0C       loc_24ADC
 13ED:0C45       loc_24B15
 13ED:0C4E       loc_24B1E
 13ED:0C54       loc_24B24
 13ED:0C58       loc_24B28
 13ED:0C73       loc_24B43
 13ED:0C80       loc_24B50
 13ED:0C8E       loc_24B5E
 13ED:0C9B       loc_24B6B
 13ED:0CA1       loc_24B71
 13ED:0CB7       loc_24B87
 13ED:0CB9       loc_24B89
 13ED:0CC1       sub_24B91
 13ED:0CDD       loc_24BAD
 13ED:0CDE       loc_24BAE
 13ED:0CE0       loc_24BB0
 13ED:0CED       loc_24BBD
 13ED:0D1A       loc_24BEA
 13ED:0D29       loc_24BF9
 13ED:0D2D       loc_24BFD
 13ED:0D37       loc_24C07
 13ED:0D48       loc_24C18
 13ED:0D55       loc_24C25
 13ED:0D5C       loc_24C2C
 13ED:0D5F       loc_24C2F
 13ED:0D63       loc_24C33
 13ED:0D68       loc_24C38
 13ED:0D6B       loc_24C3B
 13ED:0D70       loc_24C40
 13ED:0D76       loc_24C46
 13ED:0D7C       loc_24C4C
 13ED:0D82       loc_24C52
 13ED:0D8C       loc_24C5C
 13ED:0D8E       loc_24C5E
 13ED:0D94       loc_24C64
 13ED:0D96       sub_24C66
 13ED:0DA7       loc_24C77
 13ED:0DB4       set_w36A24_0
 13ED:0DBB       set_w36A26_1
 13ED:0DC2       sub_24C92
 13ED:0DD9       loc_24CA9
 13ED:0DE0       sub_24CB0
 13ED:0DFD       loc_24CCD
 13ED:0DFF       loc_24CCF
 13ED:0E08       loc_24CD8
 13ED:0E17       sub_24CE7
 13ED:0E3B       loc_24D0B
 13ED:0E44       loc_24D14
 13ED:0E56       loc_24D26
 13ED:0E65       sub_24D35
 13ED:0E69       loc_24D39
 13ED:0E77       loc_24D47
 13ED:0E79       loc_24D49
 13ED:0E82       loc_24D52
 13ED:0E90       loc_24D60
 13ED:0E9D       loc_24D6D
 13ED:0EA6       loc_24D76
 13ED:0EB4       loc_24D84
 13ED:0EB5       loc_24D85
 13ED:0EB8       loc_24D88
 13ED:0EBB       loc_24D8B
 13ED:0EBE       loc_24D8E
 13ED:0EC1       loc_24D91
 13ED:0EC4       loc_24D94
 13ED:0EC5       loc_24D95
 13ED:0EC8       loc_24D98
 13ED:0EC9       loc_24D99
 13ED:0ECC       loc_24D9C
 13ED:0ECD       loc_24D9D
 13ED:0ED0       loc_24DA0
 13ED:0ED3       loc_24DA3
 13ED:0ED4       loc_24DA4
 13ED:0ED5       loc_24DA5
 13ED:0ED9       loc_24DA9
 13ED:0EDA       loc_24DAA
 13ED:0EDB       loc_24DAB
 13ED:0EDC       loc_24DAC
 13ED:0EDD       locret_24DAD
 14DA:000E       sub_24DAE
 14DA:004D       loc_24DED
 14DA:0050       NOT_KeyPress
 14DA:0063       loc_24E03
 14DA:0068       loc_24E08
 14DA:006A       loc_24E0A
 14DA:006D       CheckIfDebugMode
 14DA:0073       IS_KeyCode_145
 14DA:0078       NOT_KeyCode_145
 14DA:007E       IS_KeyCode_146
 14DA:00CB       NOT_KeyCode_146
 14DA:00DB       loc_24E7B
 14DA:00DF       loc_24E7F
 14DA:00E1       loc_24E81
 14DA:00E6       loc_24E86
 14DA:00E8       loc_24E88
 14DA:00EA       loc_24E8A
 14DA:00EF       loc_24E8F
 14DA:00F1       loc_24E91
 14DA:00F7       loc_24E97
 14DA:00F9       loc_24E99
 14DA:00FF       loc_24E9F
 14DA:010E       FlipFLAG_w36A6E
 14DA:0115       loc_24EB5
 14DA:011D       loc_24EBD
 14DA:0123       loc_24EC3
 14DA:0126       loc_24EC6
 14DA:012F       loc_24ECF
 14DA:0140       loc_24EE0
 14DA:0146       loc_24EE6
 14DA:0149       loc_24EE9
 14DA:0157       loc_24EF7
 14DA:015B       loc_24EFB
 14DA:015E       loc_24EFE
 14DA:0160       loc_24F00
 14DA:0163       loc_24F03
 14DA:0166       loc_24F06
 14DA:0171       loc_24F11
 14DA:017B       loc_24F1B
 14DA:017F       loc_24F1F
 14DA:0184       loc_24F24
 14DA:018A       loc_24F2A
 14DA:01AC       loc_24F4C
 14DA:01AF       loc_24F4F
 14DA:01C0       loc_24F60
 14DA:01CE       loc_24F6E
 14DA:01D2       loc_24F72
 14DA:01D4       loc_24F74
 14DA:01E1       loc_24F81
 14DA:01E5       loc_24F85
 14DA:01E8       loc_24F88
 14DA:01F2       loc_24F92
 14DA:01F8       loc_24F98
 14DA:01FA       loc_24F9A
 14DA:01FE       loc_24F9E
 14DA:0200       loc_24FA0
 14DA:0205       loc_24FA5
 14DA:0210       loc_24FB0
 14DA:021B       loc_24FBB
 14DA:0220       loc_24FC0
 14DA:022E       loc_24FCE
 14DA:0241       loc_24FE1
 14DA:0244       loc_24FE4
 14DA:0247       loc_24FE7
 14DA:024A       loc_24FEA
 14DA:0273       loc_25013
 14DA:027B       loc_2501B
 14DA:027D       loc_2501D
 14DA:0280       loc_25020
 14DA:02AF       loc_2504F
 14DA:02BD       loc_2505D
 14DA:02C5       loc_25065
 14DA:02C7       loc_25067
 14DA:02C9       loc_25069
 14DA:02DA       loc_2507A
 14DA:02E3       loc_25083
 14DA:02FF       loc_2509F
 14DA:0316       loc_250B6
 14DA:0319       loc_250B9
 14DA:031B       loc_250BB
 14DA:0327       loc_250C7
 14DA:032E       loc_250CE
 14DA:0342       loc_250E2
 14DA:0345       loc_250E5
 14DA:034C       loc_250EC
 14DA:0359       loc_250F9
 14DA:0381       loc_25121
 14DA:038E       loc_2512E
 14DA:03B5       loc_25155
 14DA:03B9       loc_25159
 14DA:03BA       loc_2515A
 14DA:03C3       loc_25163
 14DA:03CC       loc_2516C
 14DA:03CE       loc_2516E
 14DA:03D4       loc_25174
 14DA:03D9       loc_25179
 14DA:03DC       loc_2517C
 14DA:0409       loc_251A9
 14DA:040B       loc_251AB
 14DA:042A       loc_251CA
 14DA:042B       loc_251CB
 14DA:0438       loc_251D8
 14DA:043A       loc_251DA
 14DA:0440       loc_251E0
 14DA:0446       loc_251E6
 14DA:044E       loc_251EE
 14DA:0469       loc_25209
 14DA:046E       loc_2520E
 14DA:047C       loc_2521C
 14DA:0482       loc_25222
 14DA:0489       loc_25229
 14DA:049D       loc_2523D
 14DA:04C0       loc_25260
 14DA:04C7       loc_25267
 14DA:04E8       loc_25288
 14DA:0515       loc_252B5
 14DA:0518       loc_252B8
 14DA:051A       loc_252BA
 14DA:0525       loc_252C5
 14DA:0530       loc_252D0
 14DA:0536       loc_252D6
 14DA:0552       loc_252F2
 14DA:055F       loc_252FF
 14DA:0567       loc_25307
 14DA:0569       loc_25309
 14DA:056B       loc_2530B
 14DA:0577       loc_25317
 14DA:057A       loc_2531A
 14DA:0586       loc_25326
 14DA:0591       loc_25331
 14DA:059C       loc_2533C
 14DA:05A5       loc_25345
 14DA:05AD       loc_2534D
 14DA:05B0       loc_25350
 14DA:05B3       loc_25353
 14DA:05C0       loc_25360
 14DA:05C4       loc_25364
 14DA:05D8       loc_25378
 14DA:05D9       loc_25379
 14DA:05DF       loc_2537F
 14DA:05E3       loc_25383
 14DA:05EB       loc_2538B
 14DA:05F6       loc_25396
 14DA:0610       loc_253B0
 14DA:0617       loc_253B7
 14DA:0624       loc_253C4
 14DA:0629       SET_w36A32_FFFF
 14DA:0634       loc_253D4
 14DA:063E       loc_253DE
 14DA:0647       loc_253E7
 14DA:064C       loc_253EC
 14DA:0658       loc_253F8
 14DA:0664       loc_25404
 14DA:0670       loc_25410
 14DA:0677       loc_25417
 14DA:0688       loc_25428
 14DA:0692       loc_25432
 14DA:0693       loc_25433
 14DA:06B8       loc_25458
 14DA:06C6       loc_25466
 14DA:06DD       loc_2547D
 14DA:06E2       loc_25482
 14DA:06EE       loc_2548E
 14DA:06F0       loc_25490
 14DA:06F4       loc_25494
 14DA:06F5       loc_25495
 14DA:06FC       loc_2549C
 14DA:071A       loc_254BA
 14DA:0729       loc_254C9
 14DA:072F       loc_254CF
 14DA:0732       loc_254D2
 14DA:0740       loc_254E0
 14DA:0743       loc_254E3
 14DA:0752       loc_254F2
 14DA:0769       loc_25509
 14DA:0773       loc_25513
 14DA:077A       loc_2551A
 14DA:0787       MouseStatusIsRightButton
 14DA:078C       loc_2552C
 14DA:078F       loc_2552F
 14DA:0797       loc_25537
 14DA:079C       loc_2553C
 14DA:07A8       loc_25548
 14DA:07C0       loc_25560
 14DA:07D0       loc_25570
 14DA:07EC       loc_2558C
 14DA:07EE       loc_2558E
 14DA:0800       loc_255A0
 14DA:0802       loc_255A2
 14DA:0812       loc_255B2
 14DA:0819       loc_255B9
 14DA:081E       loc_255BE
 14DA:0827       loc_255C7
 14DA:082E       loc_255CE
 14DA:0844       loc_255E4
 14DA:0849       loc_255E9
 14DA:0852       loc_255F2
 14DA:0860       loc_25600
 14DA:0889       loc_25629
 14DA:0892       loc_25632
 14DA:08AA       loc_2564A
 14DA:08CC       loc_2566C
 14DA:08E9       loc_25689
 14DA:08F1       loc_25691
 14DA:08F9       loc_25699
 14DA:08FF       loc_2569F
 14DA:0903       loc_256A3
 14DA:090E       loc_256AE
 14DA:091D       loc_256BD
 14DA:0922       loc_256C2
 14DA:0926       loc_256C6
 14DA:0927       loc_256C7
 14DA:0942       loc_256E2
 14DA:094A       loc_256EA
 14DA:0955       loc_256F5
 14DA:095F       loc_256FF
 14DA:0967       loc_25707
 14DA:096B       loc_2570B
 14DA:096D       loc_2570D
 14DA:0971       loc_25711
 14DA:0978       loc_25718
 14DA:097A       loc_2571A
 14DA:0985       loc_25725
 14DA:0986       loc_25726
 14DA:09A1       loc_25741
 14DA:09A9       loc_25749
 14DA:09B2       loc_25752
 14DA:09CB       loc_2576B
 14DA:09D7       loc_25777
 14DA:09EB       loc_2578B
 14DA:09FA       loc_2579A
 14DA:0A03       loc_257A3
 14DA:0A0F       loc_257AF
 14DA:0A16       loc_257B6
 14DA:0A1E       loc_257BE
 14DA:0A25       loc_257C5
 14DA:0A28       loc_257C8
 14DA:0A54       loc_257F4
 14DA:0A57       loc_257F7
 14DA:0A5A       loc_257FA
 14DA:0A65       loc_25805
 14DA:0A72       loc_25812
 14DA:0A89       loc_25829
 14DA:0A8C       loc_2582C
 14DA:0A8E       loc_2582E
 14DA:0A91       loc_25831
 14DA:0A99       loc_25839
 14DA:0AC0       loc_25860
 14DA:0AD6       loc_25876
 14DA:0AD8       loc_25878
 14DA:0ADE       loc_2587E
 14DA:0AE1       loc_25881
 14DA:0AE3       loc_25883
 14DA:0AEB       loc_2588B
 14DA:0AED       loc_2588D
 14DA:0B03       loc_258A3
 14DA:0B06       loc_258A6
 14DA:0B09       loc_258A9
 14DA:0B27       loc_258C7
 14DA:0B2C       loc_258CC
 14DA:0B34       loc_258D4
 14DA:0B3D       loc_258DD
 14DA:0B42       loc_258E2
 14DA:0B4F       loc_258EF
 14DA:0B52       loc_258F2
 14DA:0B6F       loc_2590F
 14DA:0B7A       loc_2591A
 14DA:0B86       loc_25926
 14DA:0B89       loc_25929
 14DA:0B93       loc_25933
 14DA:0B9B       loc_2593B
 14DA:0BA1       loc_25941
 14DA:0BAD       loc_2594D
 14DA:0BB0       loc_25950
 14DA:0BC8       loc_25968
 14DA:0BCA       loc_2596A
 14DA:0BDF       loc_2597F
 14DA:0BF1       loc_25991
 14DA:0BFE       loc_2599E
 14DA:0C07       loc_259A7
 14DA:0C14       loc_259B4
 14DA:0C1C       loc_259BC
 14DA:0C1E       loc_259BE
 14DA:0C24       loc_259C4
 14DA:0C30       loc_259D0
 14DA:0C36       loc_259D6
 14DA:0C3C       loc_259DC
 14DA:0C46       loc_259E6
 14DA:0C4F       loc_259EF
 14DA:0C52       loc_259F2
 14DA:0C60       loc_25A00
 14DA:0C8F       loc_25A2F
 14DA:0C9E       loc_25A3E
 14DA:0CA4       loc_25A44
 14DA:0CAD       loc_25A4D
 14DA:0CBB       loc_25A5B
 14DA:0CC0       loc_25A60
 14DA:0CC7       loc_25A67
 14DA:0CD8       loc_25A78
 14DA:0CED       loc_25A8D
 14DA:0D2B       loc_25ACB
 14DA:0D68       loc_25B08
 14DA:0D6A       loc_25B0A
 14DA:0D75       loc_25B15
 14DA:0D76       loc_25B16
 14DA:0D91       loc_25B31
 14DA:0D99       loc_25B39
 14DA:0D9E       loc_25B3E
 14DA:0DAA       loc_25B4A
 14DA:0DAE       loc_25B4E
 14DA:0DC7       loc_25B67
 14DA:0DCA       loc_25B6A
 14DA:0DD6       loc_25B76
 14DA:0DE4       loc_25B84
 14DA:0DF0       loc_25B90
 14DA:0E07       loc_25BA7
 14DA:0E0A       loc_25BAA
 14DA:0E19       loc_25BB9
 14DA:0E3D       loc_25BDD
 14DA:0E50       loc_25BF0
 14DA:0E57       loc_25BF7
 14DA:0E86       loc_25C26
 14DA:0E8B       aSET_w36A32_FFFF
 14DA:0E94       loc_25C34
 14DA:0E97       loc_25C37
 14DA:0EB4       SET_AX_FFFF
 14DA:0EBA       loc_25C5A
 14DA:0EBC       loc_25C5C
 14DA:0EC1       loc_25C61
 14DA:0ECA       loc_25C6A
 14DA:0EDC       loc_25C7C
 14DA:0EDF       loc_25C7F
 14DA:0F09       loc_25CA9
 14DA:0F0B       loc_25CAB
 14DA:0F0E       loc_25CAE
 14DA:0F21       loc_25CC1
 14DA:0F23       loc_25CC3
 14DA:0F2E       loc_25CCE
 14DA:0F36       loc_25CD6
 14DA:0F38       loc_25CD8
 14DA:0F56       loc_25CF6
 14DA:0F59       SET_AX_var14
 14DA:0F5F       loc_25CFF
 14DA:0F62       loc_25D02
 14DA:0F67       loc_25D07
 14DA:0F6E       off_25D0E
 14DA:0F80       off_25D20
 14DA:0F92       sub_25D32
 14DA:0FAC       loc_25D4C
 14DA:0FAE       sub_25D4E
 14DA:0FC8       loc_25D68
 14DA:0FCA       sub_25D6A
 14DA:0FCB       loc_25D6B
 14DA:0FDA       sub_25D7A
 14DA:0FDE       loc_25D7E
 14DA:0FEE       loc_25D8E
 14DA:0FF8       loc_25D98
 14DA:0FFE       loc_25D9E
 14DA:1004       loc_25DA4
 14DA:100B       sub_25DAB
 14DA:102E       loc_25DCE
 14DA:105A       loc_25DFA
 14DA:105F       sub_25DFF
 14DA:10A3       loc_25E43
 14DA:10A6       SetFlag_1_CfgMom_w36A54
 14DA:10B1       SetFlag_0_CfgMom_w36A54
 14DA:10B4       loc_25E54
 14DA:10BC       SetFlag_1_w36A56
 14DA:10C7       SetFlag_0_w36A56
 14DA:10D0       loc_25E70
 14DA:10D2       idk_SetThreeFlagsOrValues_s25E72
 14DA:10E9       idk_SetThreeFlags_s25E89
 14DA:1100       sub_25EA0
 14DA:1124       loc_25EC4
 14DA:1127       loc_25EC7
 14DA:112A       loc_25ECA
 14DA:112F       loc_25ECF
 14DA:113C       loc_25EDC
 14DA:1150       loc_25EF0
 14DA:115B       loc_25EFB
 14DA:1164       loc_25F04
 14DA:1166       loc_25F06
 14DA:1178       loc_25F18
 14DA:117F       loc_25F1F
 14DA:11B0       loc_25F50
 14DA:11B1       loc_25F51
 14DA:11BA       loc_25F5A
 14DA:11BD       loc_25F5D
 14DA:11BF       loc_25F5F
 14DA:11C3       sub_25F63
 14DA:11D6       loc_25F76
 14DA:11DE       loc_25F7E
 14DA:11E0       loc_25F80
 14DA:11ED       loc_25F8D
 14DA:11F9       loc_25F99
 14DA:11FD       loc_25F9D
 14DA:1203       loc_25FA3
 14DA:120C       loc_25FAC
 14DA:1210       sub_25FB0
 14DA:1219       loc_25FB9
 14DA:1223       loc_25FC3
 14DA:122B       loc_25FCB
 14DA:122D       loc_25FCD
 14DA:124C       loc_25FEC
 14DA:125A       loc_25FFA
 14DA:125E       sub_25FFE
 14DA:125F       loc_25FFF
 14DA:1268       sub_26008
 14DA:1269       loc_26009
 14DA:1272       sub_26012
 14DA:127C       sub_2601C
 14DA:127D       loc_2601D
 14DA:1284       loc_26024
 14DA:1286       sub_26026
 14DA:1289       loc_26029
 14DA:128E       loc_2602E
 14DA:1291       loc_26031
 14DA:129F       loc_2603F
 14DA:12BD       loc_2605D
 14DA:12C0       loc_26060
 14DA:12D2       loc_26072
 14DA:12E4       loc_26084
 14DA:12F4       loc_26094
 14DA:12FA       loc_2609A
 14DA:1301       loc_260A1
 14DA:1305       loc_260A5
 14DA:130C       loc_260AC
 14DA:1317       loc_260B7
 14DA:1355       loc_260F5
 14DA:135E       loc_260FE
 14DA:1361       loc_26101
 14DA:137B       loc_2611B
 14DA:137F       loc_2611F
 14DA:1384       loc_26124
 14DA:138A       loc_2612A
 14DA:138D       loc_2612D
 14DA:13AF       loc_2614F
 14DA:13DE       loc_2617E
 14DA:140F       loc_261AF
 14DA:1415       loc_261B5
 14DA:142E       loc_261CE
 14DA:1434       loc_261D4
 14DA:143B       loc_261DB
 14DA:1443       loc_261E3
 14DA:1449       loc_261E9
 14DA:145C       loc_261FC
 14DA:145F       loc_261FF
 14DA:146A       loc_2620A
 14DA:147B       loc_2621B
 14DA:1480       loc_26220
 14DA:1483       loc_26223
 14DA:14AF       loc_2624F
 14DA:14B8       loc_26258
 14DA:14BA       loc_2625A
 14DA:14BD       loc_2625D
 14DA:14C0       loc_26260
 14DA:14C6       loc_26266
 14DA:14E3       loc_26283
 14DA:14EF       loc_2628F
 14DA:14FB       loc_2629B
 14DA:1505       loc_262A5
 14DA:1507       loc_262A7
 14DA:1509       loc_262A9
 14DA:150F       loc_262AF
 14DA:1518       loc_262B8
 14DA:1521       loc_262C1
 14DA:1536       loc_262D6
 14DA:153B       loc_262DB
 14DA:1542       loc_262E2
 14DA:154F       loc_262EF
 14DA:1556       loc_262F6
 14DA:1558       loc_262F8
 14DA:1563       loc_26303
 14DA:156B       loc_2630B
 14DA:1572       loc_26312
 14DA:1578       loc_26318
 14DA:158A       loc_2632A
 14DA:1597       loc_26337
 14DA:159D       loc_2633D
 14DA:15AC       loc_2634C
 14DA:15BC       loc_2635C
 14DA:15BE       loc_2635E
 14DA:15D2       loc_26372
 14DA:15D9       loc_26379
 14DA:15DD       loc_2637D
 14DA:15DE       loc_2637E
 14DA:15F8       loc_26398
 14DA:1600       loc_263A0
 14DA:1620       loc_263C0
 14DA:1622       loc_263C2
 14DA:162E       loc_263CE
 14DA:1634       loc_263D4
 14DA:1636       loc_263D6
 14DA:163B       loc_263DB
 14DA:164F       loc_263EF
 14DA:1656       loc_263F6
 14DA:1674       loc_26414
 14DA:167B       loc_2641B
 14DA:1688       loc_26428
 14DA:168A       loc_2642A
 14DA:1694       loc_26434
 14DA:1697       loc_26437
 14DA:169C       loc_2643C
 14DA:16A4       loc_26444
 14DA:16B2       loc_26452
 14DA:16BE       loc_2645E
 14DA:16C2       loc_26462
 14DA:16C4       loc_26464
 14DA:16C7       loc_26467
 14DA:16C9       loc_26469
 14DA:16CB       loc_2646B
 14DA:16DD       loc_2647D
 14DA:16E0       loc_26480
 14DA:16F4       loc_26494
 14DA:1705       loc_264A5
 14DA:1709       loc_264A9
 14DA:170B       loc_264AB
 14DA:170D       loc_264AD
 14DA:1710       loc_264B0
 14DA:1718       loc_264B8
 14DA:171C       loc_264BC
 14DA:1720       loc_264C0
 14DA:1722       loc_264C2
 14DA:1724       loc_264C4
 14DA:1730       loc_264D0
 14DA:1733       loc_264D3
 14DA:1738       loc_264D8
 14DA:173D       loc_264DD
 14DA:173F       loc_264DF
 14DA:1746       loc_264E6
 14DA:174C       loc_264EC
 14DA:1751       loc_264F1
 14DA:1766       loc_26506
 14DA:176E       loc_2650E
 14DA:177B       loc_2651B
 14DA:1786       loc_26526
 14DA:178F       loc_2652F
 14DA:1797       loc_26537
 14DA:1798       loc_26538
 14DA:179E       loc_2653E
 14DA:17AA       loc_2654A
 14DA:17B1       loc_26551
 14DA:17D2       loc_26572
 14DA:17D6       loc_26576
 14DA:17DF       loc_2657F
 14DA:17E3       loc_26583
 14DA:17E8       loc_26588
 14DA:17EB       loc_2658B
 14DA:17F5       loc_26595
 14DA:17FE       loc_2659E
 14DA:180D       loc_265AD
 14DA:180F       loc_265AF
 14DA:1815       loc_265B5
 14DA:181B       loc_265BB
 14DA:1827       loc_265C7
 14DA:182E       loc_265CE
 14DA:1834       loc_265D4
 14DA:183F       loc_265DF
 14DA:1849       loc_265E9
 14DA:184A       loc_265EA
 14DA:1866       loc_26606
 14DA:186F       loc_2660F
 14DA:1894       loc_26634
 14DA:1899       loc_26639
 14DA:18A5       loc_26645
 14DA:18A7       loc_26647
 14DA:18AB       loc_2664B
 14DA:18AC       loc_2664C
 14DA:18BA       loc_2665A
 14DA:18CC       loc_2666C
 14DA:18CD       loc_2666D
 14DA:18D1       loc_26671
 14DA:18E0       loc_26680
 14DA:18F0       loc_26690
 14DA:18F5       loc_26695
 14DA:18FB       rschKBD_s2669B
 14DA:190E       loc_266AE
 14DA:191D       loc_266BD
 14DA:1926       TEST_LT_a
 14DA:192F       TEST_GT_z
 14DA:1935       ToUpper
 14DA:193D       NOT_LOWERCASE_LETTER
 14DA:1944       loc_266E4
 14DA:194B       loc_266EB
 14DA:195D       loc_266FD
 14DA:1966       loc_26706
 14DA:1970       loc_26710
 14DA:197C       loc_2671C
 14DA:197E       loc_2671E
 14DA:1982       loc_26722
 14DA:1988       loc_26728
 14DA:198B       loc_2672B
 14DA:1997       loc_26737
 14DA:1999       loc_26739
 14DA:199B       loc_2673B
 14DA:19A0       loc_26740
 14DA:19A6       loc_26746
 14DA:19AB       loc_2674B
 14DA:19B0       loc_26750
 14DA:19B2       loc_26752
 14DA:19CE       loc_2676E
 14DA:19D0       loc_26770
 14DA:19D7       loc_26777
 14DA:19E0       loc_26780
 14DA:19E2       loc_26782
 14DA:19E3       loc_26783
 14DA:19E8       loc_26788
 14DA:19EA       loc_2678A
 14DA:19EE       loc_2678E
 14DA:19F0       loc_26790
 14DA:19F4       loc_26794
 14DA:19F9       loc_26799
 14DA:19FB       loc_2679B
 14DA:19FE       loc_2679E
 14DA:1A00       loc_267A0
 14DA:1A0D       loc_267AD
 14DA:1A13       loc_267B3
 14DA:1A19       loc_267B9
 14DA:1A1C       loc_267BC
 14DA:1A21       loc_267C1
 14DA:1A2E       loc_267CE
 14DA:1A38       loc_267D8
 14DA:1A3D       loc_267DD
 14DA:1A5D       loc_267FD
 14DA:1A5F       loc_267FF
 14DA:1A62       loc_26802
 14DA:1A68       loc_26808
 14DA:1A6A       loc_2680A
 14DA:1A6B       loc_2680B
 14DA:1A6D       loc_2680D
 14DA:1A72       loc_26812
 14DA:1A7C       loc_2681C
 14DA:1A83       loc_26823
 14DA:1A86       loc_26826
 14DA:1A88       loc_26828
 14DA:1A93       loc_26833
 14DA:1A95       loc_26835
 14DA:1A9B       loc_2683B
 14DA:1AAA       loc_2684A
 14DA:1AAD       loc_2684D
 14DA:1ABC       loc_2685C
 14DA:1AC1       loc_26861
 14DA:1AC6       loc_26866
 14DA:1AC8       loc_26868
 14DA:1AD3       loc_26873
 14DA:1ADB       loc_2687B
 14DA:1ADE       loc_2687E
 14DA:1AE8       loc_26888
 14DA:1AF5       loc_26895
 14DA:1AF7       loc_26897
 14DA:1AFC       loc_2689C
 14DA:1B00       loc_268A0
 14DA:1B03       loc_268A3
 14DA:1B0E       loc_268AE
 14DA:1B19       loc_268B9
 14DA:1B29       loc_268C9
 14DA:1B2F       loc_268CF
 14DA:1B4E       loc_268EE
 14DA:1B51       loc_268F1
 14DA:1B53       loc_268F3
 14DA:1B71       loc_26911
 14DA:1B73       loc_26913
 14DA:1BC0       loc_26960
 14DA:1BD0       loc_26970
 14DA:1BD5       loc_26975
 14DA:1BE2       loc_26982
 14DA:1BEC       loc_2698C
 14DA:1BF3       loc_26993
 14DA:1BF9       loc_26999
 14DA:1BFD       loc_2699D
 14DA:1C01       loc_269A1
 14DA:1C0D       loc_269AD
 14DA:1C2D       loc_269CD
 14DA:1C30       loc_269D0
 14DA:1C32       loc_269D2
 14DA:1C3F       loc_269DF
 14DA:1C4A       loc_269EA
 14DA:1C52       loc_269F2
 14DA:1C54       loc_269F4
 14DA:1C5F       loc_269FF
 14DA:1C66       loc_26A06
 14DA:1C6C       loc_26A0C
 14DA:1C6E       loc_26A0E
 14DA:1C75       loc_26A15
 14DA:1C95       loc_26A35
 14DA:1CA5       loc_26A45
 14DA:1CAA       loc_26A4A
 14DA:1CAC       loc_26A4C
 14DA:1CAE       loc_26A4E
 14DA:1CBE       loc_26A5E
 14DA:1CC1       loc_26A61
 14DA:1CCD       loc_26A6D
 14DA:1CD1       loc_26A71
 14DA:1CD4       loc_26A74
 14DA:1CE0       loc_26A80
 14DA:1CE5       loc_26A85
 14DA:1CEA       loc_26A8A
 14DA:1CEF       loc_26A8F
 14DA:1CF4       loc_26A94
 14DA:1CF9       loc_26A99
 14DA:1CFE       loc_26A9E
 14DA:1D03       loc_26AA3
 14DA:1D05       loc_26AA5
 14DA:1D0A       loc_26AAA
 14DA:1D10       loc_26AB0
 14DA:1D17       loc_26AB7
 14DA:1D1A       loc_26ABA
 14DA:1D23       loc_26AC3
 14DA:1D38       loc_26AD8
 14DA:1D4C       loc_26AEC
 14DA:1D4F       loc_26AEF
 14DA:1D51       loc_26AF1
 14DA:1D55       loc_26AF5
 14DA:1D57       loc_26AF7
 14DA:1D63       loc_26B03
 14DA:1D72       loc_26B12
 14DA:1D75       loc_26B15
 14DA:1D7C       loc_26B1C
 14DA:1D7E       loc_26B1E
 14DA:1D83       loc_26B23
 14DA:1D9A       loc_26B3A
 14DA:1DA7       word_26B47
 14DA:1DB7       off_26B57
 14DA:1DC7       sub_26B67
 14DA:1DD7       loc_26B77
 14DA:1DEB       loc_26B8B
 14DA:1DFB       loc_26B9B
 14DA:1E00       loc_26BA0
 14DA:1E0D       loc_26BAD
 14DA:1E0F       loc_26BAF
 14DA:1E1C       loc_26BBC
 14DA:1E35       loc_26BD5
 14DA:1E3C       loc_26BDC
 14DA:1E53       loc_26BF3
 14DA:1E54       loc_26BF4
 14DA:1E62       loc_26C02
 14DA:1E65       loc_26C05
 14DA:1E6E       loc_26C0E
 14DA:1E77       loc_26C17
 14DA:1E7D       loc_26C1D
 14DA:1E88       loc_26C28
 14DA:1E8F       loc_26C2F
 14DA:1E94       loc_26C34
 14DA:1EB4       loc_26C54
 14DA:1ECE       loc_26C6E
 14DA:1EDC       loc_26C7C
 14DA:1EE2       loc_26C82
 14DA:1EEE       loc_26C8E
 14DA:1EF0       loc_26C90
 14DA:1EF5       loc_26C95
 14DA:1EFE       loc_26C9E
 14DA:1F0F       loc_26CAF
 14DA:1F2E       loc_26CCE
 14DA:1F30       loc_26CD0
 14DA:1F42       loc_26CE2
 14DA:1F47       loc_26CE7
 14DA:1F60       loc_26D00
 14DA:1F66       loc_26D06
 14DA:1F76       loc_26D16
 14DA:1F86       loc_26D26
 14DA:1F8B       loc_26D2B
 14DA:1F90       loc_26D30
 14DA:1FAC       loc_26D4C
 14DA:1FB2       loc_26D52
 14DA:1FB7       loc_26D57
 14DA:1FB9       loc_26D59
 14DA:1FC0       loc_26D60
 14DA:1FC6       loc_26D66
 14DA:1FCA       loc_26D6A
 14DA:1FD3       loc_26D73
 14DA:1FE8       loc_26D88
 14DA:1FFD       loc_26D9D
 14DA:2000       loc_26DA0
 14DA:200A       loc_26DAA
 14DA:200E       loc_26DAE
 14DA:2010       loc_26DB0
 14DA:2014       loc_26DB4
 14DA:201E       loc_26DBE
 14DA:2020       loc_26DC0
 14DA:202D       loc_26DCD
 14DA:202E       loc_26DCE
 14DA:2034       loc_26DD4
 14DA:2037       loc_26DD7
 14DA:2042       loc_26DE2
 14DA:2048       loc_26DE8
 14DA:2058       loc_26DF8
 14DA:205A       loc_26DFA
 14DA:205D       loc_26DFD
 14DA:205F       loc_26DFF
 14DA:2076       loc_26E16
 14DA:2085       loc_26E25
 14DA:208E       loc_26E2E
 14DA:20A7       loc_26E47
 14DA:20AD       loc_26E4D
 14DA:20B4       loc_26E54
 14DA:20B9       loc_26E59
 14DA:20BB       loc_26E5B
 14DA:20C0       loc_26E60
 14DA:20C4       loc_26E64
 14DA:20C9       loc_26E69
 14DA:20CD       loc_26E6D
 14DA:20CF       loc_26E6F
 14DA:20E8       loc_26E88
 14DA:20EF       loc_26E8F
 14DA:20FB       loc_26E9B
 14DA:210E       loc_26EAE
 14DA:2110       loc_26EB0
 14DA:2112       loc_26EB2
 14DA:2151       loc_26EF1
 14DA:2168       loc_26F08
 14DA:216D       loc_26F0D
 14DA:2174       loc_26F14
 14DA:2178       loc_26F18
 14DA:217A       loc_26F1A
 14DA:2188       loc_26F28
 14DA:218B       loc_26F2B
 14DA:2191       loc_26F31
 14DA:2193       loc_26F33
 14DA:2198       loc_26F38
 14DA:219A       loc_26F3A
 14DA:21A3       loc_26F43
 14DA:21BE       loc_26F5E
 14DA:21C8       loc_26F68
 14DA:21CB       loc_26F6B
 14DA:21D3       loc_26F73
 14DA:21D5       loc_26F75
 14DA:21DE       loc_26F7E
 14DA:21E9       loc_26F89
 14DA:21EE       loc_26F8E
 14DA:21EF       loc_26F8F
 14DA:21F6       loc_26F96
 14DA:2200       loc_26FA0
 14DA:221B       loc_26FBB
 14DA:2221       loc_26FC1
 14DA:2229       loc_26FC9
 14DA:2230       loc_26FD0
 14DA:2269       loc_27009
 14DA:2278       loc_27018
 14DA:2279       loc_27019
 14DA:227D       loc_2701D
 14DA:227F       loc_2701F
 14DA:2282       loc_27022
 14DA:2286       loc_27026
 14DA:2288       loc_27028
 14DA:228B       loc_2702B
 14DA:228F       loc_2702F
 14DA:2294       loc_27034
 14DA:229A       loc_2703A
 14DA:22A7       loc_27047
 14DA:22AC       loc_2704C
 14DA:22AF       loc_2704F
 14DA:22B1       loc_27051
 14DA:22B6       loc_27056
 14DA:22B8       loc_27058
 14DA:22C3       loc_27063
 14DA:22D1       loc_27071
 14DA:22E0       loc_27080
 14DA:22F0       loc_27090
 14DA:22FF       loc_2709F
 14DA:2304       loc_270A4
 14DA:230B       loc_270AB
 14DA:230D       loc_270AD
 14DA:2312       loc_270B2
 14DA:231B       loc_270BB
 14DA:232E       loc_270CE
 14DA:2362       loc_27102
 14DA:237B       loc_2711B
 14DA:23A1       loc_27141
 14DA:23C0       loc_27160
 14DA:23DB       loc_2717B
 14DA:2402       loc_271A2
 14DA:240C       loc_271AC
 14DA:241B       loc_271BB
 14DA:241D       loc_271BD
 14DA:2422       loc_271C2
 14DA:2428       loc_271C8
 14DA:2434       loc_271D4
 14DA:2441       loc_271E1
 14DA:2444       loc_271E4
 14DA:244D       loc_271ED
 14DA:244E       loc_271EE
 14DA:2457       loc_271F7
 14DA:2462       loc_27202
 14DA:2468       loc_27208
 14DA:246B       loc_2720B
 14DA:247A       loc_2721A
 14DA:247F       loc_2721F
 14DA:2491       loc_27231
 14DA:249F       loc_2723F
 14DA:24A5       loc_27245
 14DA:24B9       loc_27259
 14DA:24C0       loc_27260
 14DA:24CD       loc_2726D
 14DA:24D9       loc_27279
 14DA:24DB       loc_2727B
 14DA:24E0       loc_27280
 14DA:24E9       loc_27289
 14DA:24EF       loc_2728F
 14DA:2530       loc_272D0
 14DA:256F       loc_2730F
 14DA:258A       loc_2732A
 14DA:25A0       loc_27340
 14DA:25A9       loc_27349
 14DA:25C0       loc_27360
 14DA:25DA       loc_2737A
 14DA:25EB       loc_2738B
 14DA:25F0       loc_27390
 14DA:25FE       loc_2739E
 14DA:2607       loc_273A7
 14DA:260E       loc_273AE
 14DA:263A       loc_273DA
 14DA:263E       loc_273DE
 14DA:2640       loc_273E0
 14DA:264E       loc_273EE
 14DA:265E       loc_273FE
 14DA:2664       loc_27404
 14DA:2669       loc_27409
 14DA:2671       loc_27411
 14DA:2674       loc_27414
 14DA:267F       loc_2741F
 14DA:268C       loc_2742C
 14DA:268E       loc_2742E
 14DA:269D       loc_2743D
 14DA:269E       loc_2743E
 14DA:26A2       loc_27442
 14DA:26A4       loc_27444
 14DA:26A7       loc_27447
 14DA:26AD       loc_2744D
 14DA:26B0       loc_27450
 14DA:26B6       loc_27456
 14DA:26B9       loc_27459
 14DA:26BF       loc_2745F
 14DA:26C2       loc_27462
 14DA:26C4       loc_27464
 14DA:26C8       loc_27468
 14DA:26CA       loc_2746A
 14DA:26D1       loc_27471
 14DA:26D6       loc_27476
 14DA:26E0       loc_27480
 14DA:26EF       loc_2748F
 14DA:270E       loc_274AE
 14DA:2710       loc_274B0
 14DA:2719       loc_274B9
 14DA:2730       loc_274D0
 14DA:2732       loc_274D2
 14DA:2737       loc_274D7
 14DA:2740       loc_274E0
 14DA:2787       loc_27527
 14DA:278E       loc_2752E
 14DA:27A0       loc_27540
 14DA:27AD       loc_2754D
 14DA:27B2       loc_27552
 14DA:27BD       loc_2755D
 14DA:27C0       loc_27560
 14DA:27C6       loc_27566
 14DA:27DF       loc_2757F
 14DA:27FE       loc_2759E
 14DA:2804       loc_275A4
 14DA:2809       loc_275A9
 14DA:280C       loc_275AC
 14DA:2810       loc_275B0
 14DA:2816       loc_275B6
 14DA:2823       loc_275C3
 14DA:2830       loc_275D0
 14DA:2836       loc_275D6
 14DA:2838       loc_275D8
 14DA:2839       loc_275D9
 14DA:2852       loc_275F2
 14DA:2855       loc_275F5
 14DA:2859       loc_275F9
 14DA:2863       loc_27603
 14DA:286D       loc_2760D
 14DA:2872       loc_27612
 14DA:2874       loc_27614
 14DA:2879       loc_27619
 14DA:287C       loc_2761C
 14DA:287F       loc_2761F
 14DA:2889       loc_27629
 14DA:2893       loc_27633
 14DA:289B       loc_2763B
 14DA:28A1       loc_27641
 14DA:28A5       loc_27645
 14DA:28AF       loc_2764F
 14DA:28BF       loc_2765F
 14DA:28C5       loc_27665
 14DA:28CC       loc_2766C
 14DA:28D2       loc_27672
 14DA:28E3       loc_27683
 14DA:28E8       loc_27688
 14DA:28ED       loc_2768D
 14DA:28EF       loc_2768F
 14DA:28F8       loc_27698
 14DA:28FE       loc_2769E
 14DA:28FF       loc_2769F
 14DA:2908       loc_276A8
 14DA:290E       loc_276AE
 14DA:2911       loc_276B1
 14DA:291A       loc_276BA
 14DA:2920       loc_276C0
 14DA:2932       loc_276D2
 14DA:2937       loc_276D7
 14DA:293E       loc_276DE
 14DA:2949       loc_276E9
 14DA:296F       loc_2770F
 14DA:2985       loc_27725
 14DA:2991       loc_27731
 14DA:2993       loc_27733
 14DA:2998       loc_27738
 14DA:299E       loc_2773E
 14DA:29A1       loc_27741
 14DA:29A9       loc_27749
 14DA:29AE       loc_2774E
 14DA:29B2       loc_27752
 14DA:29CF       loc_2776F
 14DA:29D5       loc_27775
 14DA:29E8       loc_27788
 14DA:29EF       loc_2778F
 14DA:29FC       loc_2779C
 14DA:2A0E       loc_277AE
 14DA:2A10       loc_277B0
 14DA:2A27       loc_277C7
 14DA:2A2B       loc_277CB
 14DA:2A2E       loc_277CE
 14DA:2A3B       loc_277DB
 14DA:2A40       loc_277E0
 14DA:2A42       loc_277E2
 14DA:2A4E       loc_277EE
 14DA:2A75       loc_27815
 14DA:2A7A       loc_2781A
 14DA:2A7F       loc_2781F
 14DA:2A82       loc_27822
 14DA:2A85       loc_27825
 14DA:2AA4       loc_27844
 14DA:2AB1       loc_27851
 14DA:2AB8       loc_27858
 14DA:2ABA       loc_2785A
 14DA:2AC7       loc_27867
 14DA:2ACC       loc_2786C
 14DA:2AD3       loc_27873
 14DA:2ADB       loc_2787B
 14DA:2ADE       loc_2787E
 14DA:2AE8       loc_27888
 14DA:2AED       loc_2788D
 14DA:2AF2       loc_27892
 14DA:2AF6       loc_27896
 14DA:2B00       loc_278A0
 14DA:2B0C       loc_278AC
 14DA:2B0E       loc_278AE
 14DA:2B10       loc_278B0
 14DA:2B17       loc_278B7
 14DA:2B18       loc_278B8
 14DA:2B24       loc_278C4
 14DA:2B3C       loc_278DC
 14DA:2B4E       loc_278EE
 14DA:2B5A       loc_278FA
 14DA:2B5D       loc_278FD
 14DA:2B5E       loc_278FE
 14DA:2B67       loc_27907
 14DA:2B6A       loc_2790A
 14DA:2B6D       loc_2790D
 14DA:2B6F       loc_2790F
 14DA:2B73       sub_27913
 14DA:2B88       loc_27928
 14DA:2B9F       loc_2793F
 14DA:2BA1       loc_27941
 14DA:2BBC       loc_2795C
 14DA:2BD3       loc_27973
 14DA:2BDF       loc_2797F
 14DA:2BE6       loc_27986
 14DA:2BF0       loc_27990
 14DA:2C04       loc_279A4
 14DA:2C0D       loc_279AD
 14DA:2C18       loc_279B8
 14DA:2C30       loc_279D0
 14DA:2C36       loc_279D6
 14DA:2C5B       loc_279FB
 14DA:2C85       loc_27A25
 14DA:2C8B       sub_27A2B
 14DA:2CC0       loc_27A60
 14DA:2CD8       loc_27A78
 14DA:2CDA       loc_27A7A
 14DA:2CE0       loc_27A80
 14DA:2CE7       loc_27A87
 14DA:2CE9       loc_27A89
 14DA:2CEE       loc_27A8E
 14DA:2CF8       loc_27A98
 14DA:2CFD       loc_27A9D
 14DA:2D06       loc_27AA6
 14DA:2D0F       loc_27AAF
 14DA:2D1A       loc_27ABA
 14DA:2D25       loc_27AC5
 14DA:2D2F       loc_27ACF
 14DA:2D42       loc_27AE2
 14DA:2D47       loc_27AE7
 14DA:2D50       loc_27AF0
 14DA:2D5B       sub_27AFB
 14DA:2D9C       loc_27B3C
 14DA:2DDA       loc_27B7A
 14DA:2DE0       loc_27B80
 14DA:2DE2       loc_27B82
 14DA:2DE5       loc_27B85
 14DA:2DED       loc_27B8D
 14DA:2DF4       loc_27B94
 14DA:2DF9       loc_27B99
 14DA:2DFB       loc_27B9B
 14DA:2DFF       loc_27B9F
 14DA:2E01       loc_27BA1
 14DA:2E0C       loc_27BAC
 14DA:2E20       loc_27BC0
 14DA:2E23       loc_27BC3
 14DA:2E2A       loc_27BCA
 14DA:2E2D       loc_27BCD
 14DA:2E30       loc_27BD0
 14DA:2E32       loc_27BD2
 14DA:2E3F       loc_27BDF
 14DA:2E42       loc_27BE2
 14DA:2E53       loc_27BF3
 14DA:2E56       loc_27BF6
 14DA:2E8F       loc_27C2F
 14DA:2EAA       loc_27C4A
 14DA:2EC3       loc_27C63
 14DA:2EC8       loc_27C68
 14DA:2ED2       o_1_a_87_s_0_tpsig2_84
 14DA:2EE4       sub_27C84
 14DA:2EEF       loc_27C8F
 14DA:2EF4       loc_27C94
 14DA:2F06       gotMouseClick
 14DA:2F08       loc_27CA8
 14DA:2F0B       loc_27CAB
 14DA:2F10       loc_27CB0
 14DA:2F1E       loc_27CBE
 14DA:2F20       sub_27CC0
 14DA:2F26       loc_27CC6
 14DA:2F3F       loc_27CDF
 14DA:2F49       loc_27CE9
 14DA:2F60       loc_27D00
 14DA:2F66       loc_27D06
 14DA:2F87       loc_27D27
 14DA:2F8E       loc_27D2E
 14DA:2FDD       loc_27D7D
 14DA:2FE5       loc_27D85
 14DA:2FE7       loc_27D87
 14DA:3008       loc_27DA8
 14DA:300D       loc_27DAD
 14DA:300F       loc_27DAF
 14DA:305E       loc_27DFE
 14DA:3061       loc_27E01
 14DA:306B       loc_27E0B
 14DA:3072       loc_27E12
 14DA:307D       loc_27E1D
 14DA:3082       loc_27E22
 14DA:3087       loc_27E27
 14DA:308B       loc_27E2B
 14DA:30A0       loc_27E40
 14DA:30AB       sub_27E4B
 14DA:30BC       loc_27E5C
 14DA:30C8       loc_27E68
 14DA:30CD       loc_27E6D
 14DA:30D4       loc_27E74
 14DA:30DB       loc_27E7B
 14DA:30E2       loc_27E82
 14DA:30E9       loc_27E89
 14DA:30F0       loc_27E90
 14DA:30F5       loc_27E95
 14DA:30FC       loc_27E9C
 14DA:3103       loc_27EA3
 14DA:3108       loc_27EA8
 14DA:310F       loc_27EAF
 14DA:3116       loc_27EB6
 14DA:312A       loc_27ECA
 14DA:312E       loc_27ECE
 14DA:3130       loc_27ED0
 14DA:3135       loc_27ED5
 14DA:314B       loc_27EEB
 14DA:3154       loc_27EF4
 14DA:3157       loc_27EF7
 14DA:3165       loc_27F05
 14DA:317C       loc_27F1C
 14DA:317E       loc_27F1E
 14DA:3189       loc_27F29
 14DA:318C       loc_27F2C
 14DA:3190       loc_27F30
 14DA:31B0       loc_27F50
 14DA:31BB       loc_27F5B
 14DA:31C0       loc_27F60
 14DA:31C4       loc_27F64
 14DA:31CB       loc_27F6B
 14DA:31CE       loc_27F6E
 14DA:31D0       loc_27F70
 14DA:31D4       loc_27F74
 14DA:31D9       loc_27F79
 14DA:31DD       loc_27F7D
 14DA:31F5       loc_27F95
 14DA:31FC       loc_27F9C
 14DA:3209       loc_27FA9
 14DA:320E       loc_27FAE
 14DA:3210       loc_27FB0
 14DA:3213       loc_27FB3
 14DA:3214       loc_27FB4
 14DA:3216       loc_27FB6
 14DA:321B       loc_27FBB
 14DA:321E       loc_27FBE
 14DA:322D       loc_27FCD
 14DA:3230       loc_27FD0
 14DA:3233       loc_27FD3
 14DA:324D       loc_27FED
 14DA:3254       loc_27FF4
 14DA:3256       loc_27FF6
 14DA:325B       loc_27FFB
 14DA:327A       loc_2801A
 14DA:327F       loc_2801F
 14DA:3284       loc_28024
 14DA:32A7       loc_28047
 14DA:32AA       loc_2804A
 14DA:32B3       loc_28053
 14DA:32CA       loc_2806A
 14DA:32E8       loc_28088
 14DA:32FB       loc_2809B
 14DA:3306       loc_280A6
 14DA:330E       loc_280AE
 14DA:3311       loc_280B1
 14DA:3315       loc_280B5
 14DA:331B       loc_280BB
 14DA:332F       loc_280CF
 14DA:3356       loc_280F6
 14DA:335C       loc_280FC
 14DA:3365       loc_28105
 14DA:336A       loc_2810A
 14DA:336D       loc_2810D
 14DA:336F       loc_2810F
 14DA:3373       off_28113
 14DA:33A1       sub_28141
 14DA:33B7       loc_28157
 14DA:33BC       loc_2815C
 14DA:33C5       loc_28165
 14DA:346A       loc_2820A
 14DA:347B       loc_2821B
 14DA:347C       loc_2821C
 14DA:3480       loc_28220
 14DA:3484       loc_28224
 14DA:3486       loc_28226
 14DA:348A       loc_2822A
 14DA:348D       loc_2822D
 14DA:348E       loc_2822E
 14DA:3494       loc_28234
 14DA:349D       loc_2823D
 14DA:34AF       loc_2824F
 14DA:34B6       loc_28256
 14DA:34E2       loc_28282
 14DA:34EA       loc_2828A
 14DA:34EC       loc_2828C
 14DA:34F6       loc_28296
 14DA:34FE       loc_2829E
 14DA:3517       loc_282B7
 14DA:351E       loc_282BE
 14DA:352E       loc_282CE
 14DA:3534       loc_282D4
 14DA:3538       loc_282D8
 14DA:3542       loc_282E2
 14DA:3551       loc_282F1
 14DA:355A       loc_282FA
 14DA:3560       loc_28300
 14DA:3563       loc_28303
 14DA:357A       loc_2831A
 14DA:357C       loc_2831C
 14DA:3581       loc_28321
 14DA:35A0       loc_28340
 14DA:35AF       loc_2834F
 14DA:35BF       loc_2835F
 14DA:35C4       loc_28364
 14DA:35CC       loc_2836C
 14DA:35D3       loc_28373
 14DA:35D8       loc_28378
 14DA:35E6       loc_28386
 14DA:35E9       loc_28389
 14DA:35F3       loc_28393
 14DA:35F9       loc_28399
 14DA:3600       loc_283A0
 14DA:360F       loc_283AF
 14DA:3612       loc_283B2
 14DA:361E       loc_283BE
 14DA:3628       loc_283C8
 14DA:362B       loc_283CB
 14DA:3668       loc_28408
 14DA:366C       loc_2840C
 14DA:3670       loc_28410
 14DA:3673       loc_28413
 14DA:368A       loc_2842A
 14DA:3696       loc_28436
 14DA:369C       loc_2843C
 14DA:36A2       loc_28442
 14DA:36AE       loc_2844E
 14DA:36BA       loc_2845A
 14DA:36BF       loc_2845F
 14DA:36C8       loc_28468
 14DA:36CD       loc_2846D
 14DA:36F9       loc_28499
 14DA:3700       loc_284A0
 14DA:370E       loc_284AE
 14DA:3710       loc_284B0
 14DA:371B       loc_284BB
 14DA:371E       loc_284BE
 14DA:372E       loc_284CE
 14DA:373D       loc_284DD
 14DA:3742       loc_284E2
 14DA:3746       loc_284E6
 14DA:374A       loc_284EA
 14DA:3752       loc_284F2
 14DA:3756       loc_284F6
 14DA:3758       loc_284F8
 14DA:375B       loc_284FB
 14DA:3766       loc_28506
 14DA:3775       loc_28515
 14DA:377F       loc_2851F
 14DA:3791       loc_28531
 14DA:3798       loc_28538
 14DA:37A1       loc_28541
 14DA:37AA       loc_2854A
 14DA:37CD       off_2856D
 14DA:37E3       sub_28583
 14DA:37EA       loc_2858A
 14DA:37FE       loc_2859E
 14DA:3811       loc_285B1
 14DA:383F       loc_285DF
 14DA:3854       loc_285F4
 14DA:385A       loc_285FA
 14DA:386B       loc_2860B
 14DA:3873       loc_28613
 14DA:3881       loc_28621
 14DA:3883       loc_28623
 14DA:3884       loc_28624
 14DA:3888       loc_28628
 14DA:388C       loc_2862C
 14DA:3892       loc_28632
 14DA:3896       loc_28636
 14DA:38A5       loc_28645
 14DA:38B7       loc_28657
 14DA:38CD       loc_2866D
 14DA:38CF       loc_2866F
 14DA:38D9       loc_28679
 14DA:38DD       loc_2867D
 14DA:38DF       loc_2867F
 14DA:38E1       loc_28681
 14DA:38FA       loc_2869A
 14DA:3901       loc_286A1
 14DA:390F       loc_286AF
 14DA:3917       loc_286B7
 14DA:3920       loc_286C0
 14DA:3925       loc_286C5
 14DA:392C       loc_286CC
 14DA:392E       yesKeyPress2
 14DA:3934       noKeyPress
 14DA:393D       loc_286DD
 14DA:3946       loc_286E6
 14DA:395D       loc_286FD
 14DA:3964       loc_28704
 14DA:397C       loc_2871C
 14DA:3983       loc_28723
 14DA:39A2       loc_28742
 14DA:39AF       loc_2874F
 14DA:39B6       loc_28756
 14DA:39C9       loc_28769
 14DA:39CC       loc_2876C
 14DA:39DC       loc_2877C
 14DA:39E3       loc_28783
 14DA:39F2       loc_28792
 14DA:39F5       loc_28795
 14DA:39FF       loc_2879F
 14DA:3A0B       loc_287AB
 14DA:3A0E       loc_287AE
 14DA:3A2A       loc_287CA
 14DA:3A38       loc_287D8
 14DA:3A47       loc_287E7
 14DA:3A4B       loc_287EB
 14DA:3A4E       loc_287EE
 14DA:3A65       loc_28805
 14DA:3A71       loc_28811
 14DA:3A7D       loc_2881D
 14DA:3A89       loc_28829
 14DA:3A95       loc_28835
 14DA:3A9A       loc_2883A
 14DA:3AA3       loc_28843
 14DA:3AD4       loc_28874
 14DA:3ADB       loc_2887B
 14DA:3AF6       loc_28896
 14DA:3AFF       loc_2889F
 14DA:3B0E       loc_288AE
 14DA:3B21       loc_288C1
 14DA:3B2D       loc_288CD
 14DA:3B31       loc_288D1
 14DA:3B33       loc_288D3
 14DA:3B37       loc_288D7
 14DA:3B41       loc_288E1
 14DA:3B50       loc_288F0
 14DA:3B57       loc_288F7
 14DA:3B6B       loc_2890B
 14DA:3B6D       loc_2890D
 14DA:3B76       loc_28916
 14DA:3B7C       loc_2891C
 14DA:3B7E       loc_2891E
 14DA:3B86       loc_28926
 14DA:3B9B       loc_2893B
 14DA:3BA0       loc_28940
 14DA:3BA2       loc_28942
 14DA:3BA6       loc_28946
 14DA:3BAB       locret_2894B
 14DA:3BAC       byte_2894C
 14DA:3BAD       off_2894D
 14DA:3BC3       sub_28963
 14DA:3BE9       loc_28989
 14DA:3BED       loc_2898D
 14DA:3BF6       loc_28996
 14DA:3BF9       loc_28999
 14DA:3C00       loc_289A0
 14DA:3C2E       loc_289CE
 14DA:3C34       loc_289D4
 14DA:3C4A       loc_289EA
 14DA:3C66       loc_28A06
 14DA:3C80       loc_28A20
 14DA:3CA0       loc_28A40
 14DA:3CBE       loc_28A5E
 14DA:3CC4       loc_28A64
 14DA:3CC9       loc_28A69
 14DA:3CCD       loc_28A6D
 14DA:3CCF       loc_28A6F
 14DA:3CD3       loc_28A73
 14DA:3CDA       loc_28A7A
 14DA:3CDE       loc_28A7E
 14DA:3CE0       loc_28A80
 14DA:3CED       loc_28A8D
 14DA:3CFC       loc_28A9C
 14DA:3CFE       loc_28A9E
 14DA:3D02       loc_28AA2
 14DA:3D0B       loc_28AAB
 14DA:3D0E       loc_28AAE
 14DA:3D11       loc_28AB1
 14DA:3D1F       loc_28ABF
 14DA:3D22       loc_28AC2
 14DA:3D26       loc_28AC6
 14DA:3D38       loc_28AD8
 14DA:3D64       loc_28B04
 14DA:3D78       loc_28B18
 14DA:3D7B       loc_28B1B
 14DA:3D80       loc_28B20
 14DA:3D8F       loc_28B2F
 14DA:3DA2       loc_28B42
 14DA:3DD4       loc_28B74
 14DA:3DDA       loc_28B7A
 14DA:3DF5       loc_28B95
 14DA:3E05       loc_28BA5
 14DA:3E10       loc_28BB0
 14DA:3E20       loc_28BC0
 14DA:3E46       loc_28BE6
 14DA:3E4A       loc_28BEA
 14DA:3E4D       loc_28BED
 14DA:3EA0       loc_28C40
 14DA:3EBC       loc_28C5C
 14DA:3ECB       loc_28C6B
 14DA:3ED6       loc_28C76
 14DA:3EDC       loc_28C7C
 14DA:3EE1       loc_28C81
 14DA:3EE3       loc_28C83
 14DA:3EE7       loc_28C87
 14DA:3EE9       loc_28C89
 14DA:3EF0       loc_28C90
 14DA:3F05       loc_28CA5
 14DA:3F10       loc_28CB0
 14DA:3F1D       loc_28CBD
 14DA:3F1F       loc_28CBF
 14DA:3F21       loc_28CC1
 14DA:3F23       loc_28CC3
 14DA:3F3F       loc_28CDF
 14DA:3F4E       loc_28CEE
 14DA:3F54       loc_28CF4
 14DA:3F5C       loc_28CFC
 14DA:3F65       loc_28D05
 14DA:3F7F       loc_28D1F
 14DA:3F9E       loc_28D3E
 14DA:3FAA       sub_28D4A
 14DA:3FAB       loc_28D4B
 14DA:3FCB       loc_28D6B
 14DA:3FD8       loc_28D78
 14DA:3FED       loc_28D8D
 14DA:3FF1       loc_28D91
 14DA:3FFF       loc_28D9F
 14DA:400A       loc_28DAA
 14DA:4023       loc_28DC3
 14DA:402F       loc_28DCF
 14DA:4036       loc_28DD6
 14DA:405B       loc_28DFB
 14DA:4066       loc_28E06
 14DA:408A       loc_28E2A
 14DA:4090       loc_28E30
 14DA:409C       loc_28E3C
 14DA:409F       loc_28E3F
 14DA:40A1       loc_28E41
 14DA:40A7       loc_28E47
 14DA:40AE       loc_28E4E
 14DA:40B4       loc_28E54
 14DA:40BC       loc_28E5C
 14DA:40CF       loc_28E6F
 14DA:40D6       loc_28E76
 14DA:40D9       loc_28E79
 14DA:40DC       loc_28E7C
 14DA:40DE       loc_28E7E
 14DA:40E4       loc_28E84
 14DA:4100       loc_28EA0
 14DA:4103       loc_28EA3
 14DA:4108       loc_28EA8
 14DA:410E       loc_28EAE
 14DA:4126       loc_28EC6
 14DA:412D       loc_28ECD
 14DA:4157       loc_28EF7
 14DA:415A       loc_28EFA
 14DA:4177       loc_28F17
 14DA:4179       sub_28F19
 14DA:417A       loc_28F1A
 14DA:4184       loc_28F24
 14DA:419B       loc_28F3B
 14DA:41B9       loc_28F59
 14DA:41C9       loc_28F69
 14DA:41CC       loc_28F6C
 14DA:41DF       loc_28F7F
 14DA:4210       loc_28FB0
 14DA:423E       loc_28FDE
 14DA:4243       loc_28FE3
 14DA:4256       loc_28FF6
 14DA:4269       loc_29009
 14DA:426F       loc_2900F
 14DA:42C5       loc_29065
 14DA:42DC       sub_2907C
 14DA:42FC       loc_2909C
 14DA:4309       sub_290A9
 14DA:430E       loc_290AE
 14DA:432A       loc_290CA
 14DA:4338       loc_290D8
 14DA:434D       loc_290ED
 14DA:4357       loc_290F7
 14DA:435D       loc_290FD
 14DA:435F       loc_290FF
 14DA:4366       loc_29106
 14DA:4386       loc_29126
 14DA:4389       loc_29129
 14DA:438F       loc_2912F
 14DA:439A       loc_2913A
 14DA:43A4       loc_29144
 14DA:43A5       loc_29145
 14DA:43AE       loc_2914E
 14DA:43B2       loc_29152
 14DA:43C1       loc_29161
 14DA:43DC       loc_2917C
 14DA:43ED       loc_2918D
 14DA:43F1       loc_29191
 14DA:43F6       loc_29196
 14DA:4400       loc_291A0
 14DA:440F       loc_291AF
 14DA:4430       loc_291D0
 14DA:4448       loc_291E8
 14DA:444C       loc_291EC
 14DA:450F       loc_292AF
 14DA:4519       sub_292B9
 14DA:4534       loc_292D4
 14DA:4535       loc_292D5
 14DA:4540       loc_292E0
 14DA:459D       loc_2933D
 14DA:45C5       loc_29365
 14DA:4656       loc_293F6
 14DA:4669       sub_29409
 14DA:4688       loc_29428
 14DA:46BF       loc_2945F
 14DA:46CB       loc_2946B
 14DA:477F       loc_2951F
 14DA:479F       loc_2953F
 14DA:47B0       sub_29550
 14DA:47DF       loc_2957F
 14DA:47EB       loc_2958B
 14DA:47EE       loc_2958E
 14DA:47F1       loc_29591
 14DA:4803       loc_295A3
 14DA:4805       loc_295A5
 14DA:481E       loc_295BE
 14DA:482F       loc_295CF
 14DA:4832       loc_295D2
 14DA:484E       loc_295EE
 14DA:485F       loc_295FF
 14DA:487F       loc_2961F
 14DA:4887       loc_29627
 14DA:4890       loc_29630
 14DA:48B0       loc_29650
 14DA:48C1       loc_29661
 14DA:48E0       loc_29680
 14DA:490F       loc_296AF
 14DA:4926       loc_296C6
 14DA:493D       loc_296DD
 14DA:496C       loc_2970C
 14DA:497A       loc_2971A
 14DA:4980       sub_29720
 14DA:4991       sub_29731
 14DA:4996       loc_29736
 14DA:49CE       loc_2976E
 14DA:49DF       loc_2977F
 14DA:4A5F       loc_297FF
 14DA:4A61       loc_29801
 14DA:4A6C       loc_2980C
 14DA:4A74       loc_29814
 14DA:4A7D       loc_2981D
 14DA:4AC1       loc_29861
 14DA:4B17       loc_298B7
 14DA:4B1A       locret_298BA
 14DA:4B1B       sub_298BB
 14DA:4B30       loc_298D0
 14DA:4B34       loc_298D4
 14DA:4B3D       loc_298DD
 14DA:4B5A       sub_298FA
 14DA:4B7C       loc_2991C
 14DA:4BAE       sub_2994E
 14DA:4BD8       loc_29978
 14DA:4BDE       loc_2997E
 14DA:4C02       sub_299A2
 14DA:4C2C       loc_299CC
 14DA:4C6B       idk_Mouse_s29A0B
 14DA:4D2D       loc_29ACD
 14DA:4D55       loc_29AF5
 14DA:4D66       sub_29B06
 14DA:4D80       loc_29B20
 14DA:4D83       loc_29B23
 14DA:4D86       loc_29B26
 14DA:4D8F       loc_29B2F
 14DA:4D95       loc_29B35
 14DA:4D97       loc_29B37
 14DA:4DA0       loc_29B40
 14DA:4DA5       loc_29B45
 14DA:4DB0       loc_29B50
 14DA:4DB3       loc_29B53
 14DA:4DB8       loc_29B58
 14DA:4DC1       loc_29B61
 14DA:4DC4       loc_29B64
 14DA:4DE0       loc_29B80
 14DA:4DF1       loc_29B91
 14DA:4E0F       loc_29BAF
 14DA:4E24       loc_29BC4
 14DA:4E40       loc_29BE0
 14DA:4E51       loc_29BF1
 14DA:4EAD       loc_29C4D
 14DA:4ECD       loc_29C6D
 14DA:4EDA       loc_29C7A
 14DA:4EE7       loc_29C87
 14DA:4EF2       loc_29C92
 14DA:4EF5       loc_29C95
 14DA:4EF9       idk_Mouse_s29C99
 14DA:4F7B       loc_29D1B
 14DA:4F92       loc_29D32
 14DA:4FDE       loc_29D7E
 14DA:4FEF       sub_29D8F
 14DA:500E       loc_29DAE
 14DA:5088       loc_29E28
 14DA:5099       loc_29E39
 14DA:50DE       loc_29E7E
 14DA:50F8       loc_29E98
 14DA:510B       loc_29EAB
 14DA:510D       loc_29EAD
 14DA:5118       loc_29EB8
 14DA:5129       sub_29EC9
 14DA:51CC       loc_29F6C
 14DA:51E0       loc_29F80
 14DA:51FA       loc_29F9A
 14DA:5200       loc_29FA0
 14DA:525A       loc_29FFA
 14DA:5260       loc_2A000
 14DA:5276       loc_2A016
 14DA:5287       sub_2A027
 14DA:5293       loc_2A033
 14DA:529F       loc_2A03F
 14DA:52A8       loc_2A048
 14DA:52AB       loc_2A04B
 14DA:52B8       sub_2A058
 14DA:52C3       loc_2A063
 14DA:52CE       loc_2A06E
 14DA:52DF       loc_2A07F
 14DA:52FA       loc_2A09A
 14DA:52FF       loc_2A09F
 14DA:5330       loc_2A0D0
 14DA:53C9       loc_2A169
 14DA:53DD       loc_2A17D
 14DA:53E0       loc_2A180
 14DA:545F       loc_2A1FF
 14DA:5484       loc_2A224
 14DA:5495       sub_2A235
 14DA:54B7       loc_2A257
 14DA:551C       loc_2A2BC
 14DA:552A       loc_2A2CA
 14DA:5565       loc_2A305
 14DA:558A       loc_2A32A
 14DA:559E       loc_2A33E
 14DA:55A1       loc_2A341
 14DA:55A4       loc_2A344
 14DA:55AF       loc_2A34F
 14DA:55B1       loc_2A351
 14DA:564F       loc_2A3EF
 14DA:5654       loc_2A3F4
 14DA:567A       loc_2A41A
 14DA:567D       loc_2A41D
 14DA:5680       loc_2A420
 14DA:56AA       loc_2A44A
 14DA:56D4       loc_2A474
 14DA:56EF       loc_2A48F
 14DA:5710       loc_2A4B0
 14DA:5712       sub_2A4B2
 14DA:572A       loc_2A4CA
 14DA:572E       loc_2A4CE
 14DA:5738       loc_2A4D8
 14DA:5742       loc_2A4E2
 14DA:5754       loc_2A4F4
 14DA:577C       loc_2A51C
 14DA:578F       loc_2A52F
 14DA:57A0       loc_2A540
 14DA:57B8       loc_2A558
 14DA:57C9       loc_2A569
 14DA:57CB       loc_2A56B
 14DA:57E0       loc_2A580
 14DA:57FE       loc_2A59E
 14DA:5801       loc_2A5A1
 14DA:582E       loc_2A5CE
 14DA:5844       sub_2A5E4
 14DA:5887       loc_2A627
 14DA:58D0       loc_2A670
 14DA:58FA       loc_2A69A
 14DA:590C       loc_2A6AC
 14DA:5932       loc_2A6D2
 14DA:595F       loc_2A6FF
 14DA:5975       setFlagsMaybeMouseEGA
 14DA:5998       sub_2A738
 14DA:59AD       loc_2A74D
 14DA:59B3       loc_2A753
 14DA:59B5       sub_2A755
 14DA:59CC       loc_2A76C
 14DA:59FE       loc_2A79E
 14DA:5A01       loc_2A7A1
 14DA:5A0E       loc_2A7AE
 14DA:5A2E       loc_2A7CE
 14DA:5A35       loc_2A7D5
 14DA:5A4C       loc_2A7EC
 14DA:5A68       loc_2A808
 14DA:5A70       loc_2A810
 14DA:5A73       loc_2A813
 14DA:5A78       loc_2A818
 14DA:5A7E       loc_2A81E
 14DA:5A89       loc_2A829
 14DA:5A97       loc_2A837
 14DA:5AAF       loc_2A84F
 14DA:5AC6       loc_2A866
 14DA:5AD3       loc_2A873
 14DA:5AE1       loc_2A881
 14DA:5B1F       loc_2A8BF
 14DA:5B2C       loc_2A8CC
 14DA:5B3E       loc_2A8DE
 14DA:5B53       loc_2A8F3
 14DA:5B57       loc_2A8F7
 14DA:5B84       loc_2A924
 14DA:5BAB       loc_2A94B
 14DA:5BB1       loc_2A951
 14DA:5BB8       loc_2A958
 14DA:5BBD       loc_2A95D
 14DA:5BC9       loc_2A969
 14DA:5BCE       loc_2A96E
 14DA:5BE0       loc_2A980
 14DA:5C19       loc_2A9B9
 14DA:5C28       loc_2A9C8
 14DA:5C2B       loc_2A9CB
 14DA:5C4C       loc_2A9EC
 14DA:5C51       loc_2A9F1
 14DA:5C5A       loc_2A9FA
 14DA:5C67       loc_2AA07
 14DA:5C74       loc_2AA14
 14DA:5C7C       loc_2AA1C
 14DA:5C81       loc_2AA21
 14DA:5C84       loc_2AA24
 14DA:5C8C       loc_2AA2C
 14DA:5C93       loc_2AA33
 14DA:5CAA       loc_2AA4A
 14DA:5CB5       loc_2AA55
 14DA:5CC0       loc_2AA60
 14DA:5CD0       loc_2AA70
 14DA:5CD3       loc_2AA73
 14DA:5CD7       loc_2AA77
 14DA:5CD9       loc_2AA79
 14DA:5CE7       loc_2AA87
 14DA:5CED       loc_2AA8D
 14DA:5CF1       loc_2AA91
 14DA:5CF2       loc_2AA92
 14DA:5CFC       loc_2AA9C
 14DA:5D04       loc_2AAA4
 14DA:5D0C       loc_2AAAC
 14DA:5D1C       loc_2AABC
 14DA:5D29       loc_2AAC9
 14DA:5D30       loc_2AAD0
 14DA:5D37       loc_2AAD7
 14DA:5D5E       loc_2AAFE
 14DA:5D75       loc_2AB15
 14DA:5D82       loc_2AB22
 14DA:5DE6       loc_2AB86
 14DA:5DEB       loc_2AB8B
 14DA:5DF7       loc_2AB97
 14DA:5DFC       loc_2AB9C
 14DA:5E45       loc_2ABE5
 14DA:5E50       loc_2ABF0
 14DA:5E8B       loc_2AC2B
 14DA:5E93       loc_2AC33
 14DA:5EAF       loc_2AC4F
 14DA:5EB6       loc_2AC56
 14DA:5EB8       loc_2AC58
 14DA:5ECC       loc_2AC6C
 14DA:5ED0       loc_2AC70
 14DA:5ED1       loc_2AC71
 14DA:5EDB       loc_2AC7B
 14DA:5EFB       loc_2AC9B
 14DA:5F08       loc_2ACA8
 14DA:5F16       loc_2ACB6
 14DA:5F2E       loc_2ACCE
 14DA:5F54       loc_2ACF4
 14DA:5F61       loc_2AD01
 14DA:5F8E       loc_2AD2E
 14DA:5FC5       loc_2AD65
 14DA:5FCA       loc_2AD6A
 14DA:5FD6       loc_2AD76
 14DA:5FDB       loc_2AD7B
 14DA:6021       loc_2ADC1
 14DA:6049       loc_2ADE9
 14DA:6053       loc_2ADF3
 14DA:607F       loc_2AE1F
 14DA:6083       loc_2AE23
 14DA:609A       loc_2AE3A
 14DA:60AB       loc_2AE4B
 14DA:60B3       loc_2AE53
 14DA:60C3       loc_2AE63
 14DA:60D0       loc_2AE70
 14DA:60DB       loc_2AE7B
 14DA:60E3       loc_2AE83
 14DA:60F0       loc_2AE90
 14DA:60FE       loc_2AE9E
 14DA:610E       loc_2AEAE
 14DA:613C       loc_2AEDC
 14DA:6149       loc_2AEE9
 14DA:6164       loc_2AF04
 14DA:617A       loc_2AF1A
 14DA:618C       loc_2AF2C
 14DA:619B       loc_2AF3B
 14DA:61C6       loc_2AF66
 14DA:61EA       loc_2AF8A
 14DA:61EF       loc_2AF8F
 14DA:61FB       loc_2AF9B
 14DA:6200       loc_2AFA0
 14DA:6246       loc_2AFE6
 14DA:6250       loc_2AFF0
 14DA:6277       loc_2B017
 14DA:6279       loc_2B019
 14DA:627A       loc_2B01A
 14DA:627C       loc_2B01C
 14DA:6288       loc_2B028
 14DA:628C       loc_2B02C
 14DA:6292       loc_2B032
 14DA:62A2       loc_2B042
 14DA:62B2       loc_2B052
 14DA:62BF       loc_2B05F
 14DA:62CA       loc_2B06A
 14DA:62CD       loc_2B06D
 14DA:62E0       loc_2B080
 14DA:62F4       loc_2B094
 14DA:6308       loc_2B0A8
 14DA:630B       loc_2B0AB
 14DA:6318       loc_2B0B8
 14DA:631B       loc_2B0BB
 14DA:6330       loc_2B0D0
 14DA:634F       loc_2B0EF
 14DA:6386       loc_2B126
 14DA:638B       loc_2B12B
 14DA:6397       loc_2B137
 14DA:639C       loc_2B13C
 14DA:63E2       loc_2B182
 14DA:6407       loc_2B1A7
 14DA:6411       loc_2B1B1
 14DA:641A       loc_2B1BA
 14DA:6448       loc_2B1E8
 14DA:644A       loc_2B1EA
 14DA:6453       loc_2B1F3
 14DA:6459       sub_2B1F9
 14DA:64B7       loc_2B257
 14DA:64EB       loc_2B28B
 14DA:64F3       loc_2B293
 14DA:6506       loc_2B2A6
 14DA:6515       loc_2B2B5
 14DA:654A       loc_2B2EA
 14DA:654F       loc_2B2EF
 14DA:6555       loc_2B2F5
 14DA:655E       loc_2B2FE
 14DA:65CB       loc_2B36B
 14DA:65EA       loc_2B38A
 14DA:65EE       loc_2B38E
 14DA:65FD       loc_2B39D
 14DA:6612       loc_2B3B2
 14DA:662B       loc_2B3CB
 14DA:6630       loc_2B3D0
 14DA:6635       loc_2B3D5
 14DA:6639       loc_2B3D9
 14DA:663D       loc_2B3DD
 14DA:665E       loc_2B3FE
 14DA:666A       loc_2B40A
 14DA:6684       loc_2B424
 14DA:668E       loc_2B42E
 14DA:6697       loc_2B437
 14DA:66B8       loc_2B458
 14DA:66BA       loc_2B45A
 14DA:66BF       loc_2B45F
 14DA:66C5       idk_SetFlag_w36A4C_s2B465
 14DA:66D0       sub_2B470
 14DA:66D3       loc_2B473
 14DA:66E7       loc_2B487
 14DA:66F0       loc_2B490
 14DA:66F2       loc_2B492
 14DA:66F9       loc_2B499
 14DA:6704       loc_2B4A4
 14DA:6708       loc_2B4A8
 14DA:671E       loc_2B4BE
 14DA:6725       loc_2B4C5
 14DA:672F       loc_2B4CF
 14DA:6741       loc_2B4E1
 14DA:674D       loc_2B4ED
 14DA:674E       loc_2B4EE
 14DA:6755       loc_2B4F5
 14DA:676A       loc_2B50A
 14DA:6774       loc_2B514
 14DA:6776       loc_2B516
 14DA:677E       loc_2B51E
 14DA:6781       loc_2B521
 14DA:6799       loc_2B539
 14DA:67A1       loc_2B541
 14DA:67A9       loc_2B549
 14DA:67AB       loc_2B54B
 14DA:67AC       loc_2B54C
 14DA:67B1       loc_2B551
 14DA:67C4       loc_2B564
 14DA:67C6       loc_2B566
 14DA:67DC       loc_2B57C
 14DA:67DD       loc_2B57D
 14DA:67E1       loc_2B581
 14DA:67E5       loc_2B585
 14DA:67F7       loc_2B597
 14DA:6801       loc_2B5A1
 14DA:6802       loc_2B5A2
 14DA:681A       loc_2B5BA
 14DA:681C       loc_2B5BC
 14DA:681D       loc_2B5BD
 14DA:6835       loc_2B5D5
 14DA:683B       loc_2B5DB
 14DA:683E       loc_2B5DE
 14DA:684E       loc_2B5EE
 14DA:6867       loc_2B607
 14DA:6869       loc_2B609
 14DA:686F       loc_2B60F
 14DA:6874       loc_2B614
 14DA:6876       loc_2B616
 14DA:688C       loc_2B62C
 14DA:68A9       loc_2B649
 14DA:68AD       loc_2B64D
 14DA:68C3       loc_2B663
 14DA:68D2       loc_2B672
 14DA:68DF       loc_2B67F
 14DA:68E0       loc_2B680
 14DA:68E7       loc_2B687
 14DA:68FC       loc_2B69C
 14DA:6900       loc_2B6A0
 14DA:6906       loc_2B6A6
 14DA:6908       loc_2B6A8
 14DA:6914       loc_2B6B4
 14DA:691C       loc_2B6BC
 14DA:6924       loc_2B6C4
 14DA:692C       loc_2B6CC
 14DA:692E       loc_2B6CE
 14DA:6944       loc_2B6E4
 14DA:6945       loc_2B6E5
 14DA:6949       loc_2B6E9
 14DA:6957       loc_2B6F7
 14DA:6958       loc_2B6F8
 14DA:695A       loc_2B6FA
 14DA:6970       loc_2B710
 14DA:6976       loc_2B716
 14DA:6978       loc_2B718
 14DA:697F       loc_2B71F
 14DA:6999       loc_2B739
 14DA:699C       loc_2B73C
 14DA:699F       loc_2B73F
 14DA:69A5       loc_2B745
 14DA:69B0       loc_2B750
 14DA:69BC       loc_2B75C
 14DA:69BE       loc_2B75E
 14DA:69C5       loc_2B765
 14DA:6A5E       loc_2B7FE
 14DA:6AEB       loc_2B88B
 14DA:6B07       sub_2B8A7
 14DA:6B11       idk_Mouse_s2B8B1
 14DA:6B3F       loc_2B8DF
 14DA:6B67       IF_ARG_EQ_1
 14DA:6BA7       MOUSE_INSTALLED
 14DA:6BAD       loc_2B94D
 14DA:6BAF       loc_2B94F
 14DA:6BB1       loc_2B951
 14DA:6BB3       loc_2B953
 14DA:6BDA       sub_2B97A
 14DA:6BE9       loc_2B989
 14DA:6BEB       loc_2B98B
 14DA:6BEF       loc_2B98F
 14DA:6BFC       loc_2B99C
 14DA:6C05       loc_2B9A5
 14DA:6C12       loc_2B9B2
 14DA:6C16       loc_2B9B6
 14DA:6C21       loc_2B9C1
 14DA:6C24       sub_2B9C4
 14DA:6C56       loc_2B9F6
 14DA:6C70       loc_2BA10
 14DA:6C9F       loc_2BA3F
 14DA:6CA1       sub_2BA41
 14DA:6CD1       loc_2BA71
 14DA:6CEB       loc_2BA8B
 14DA:6CF8       loc_2BA98
 14DA:6D04       loc_2BAA4
 14DA:6D0E       loc_2BAAE
 14DA:6D13       loc_2BAB3
 14DA:6D27       loc_2BAC7
 14DA:6D2E       loc_2BACE
 14DA:6D3B       loc_2BADB
 14DA:6D4F       loc_2BAEF
 14DA:6D64       loc_2BB04
 14DA:6D77       loc_2BB17
 14DA:6D89       loc_2BB29
 14DA:6DA0       loc_2BB40
 14DA:6DC0       loc_2BB60
 14DA:6E01       loc_2BBA1
 14DA:6E17       loc_2BBB7
 14DA:6E35       loc_2BBD5
 14DA:6E54       loc_2BBF4
 14DA:6E6D       loc_2BC0D
 14DA:6F8A       loc_2BD2A
 14DA:6FF4       loc_2BD94
 14DA:7010       loc_2BDB0
 14DA:7118       loc_2BEB8
 14DA:7124       loc_2BEC4
 14DA:712F       loc_2BECF
 14DA:713A       loc_2BEDA
 14DA:713D       loc_2BEDD
 14DA:7144       loc_2BEE4
 14DA:716A       loc_2BF0A
 14DA:7173       loc_2BF13
 14DA:719E       loc_2BF3E
 14DA:7255       loc_2BFF5
 14DA:725A       loc_2BFFA
 14DA:72C4       loc_2C064
 14DA:72E0       loc_2C080
 14DA:731C       loc_2C0BC
 14DA:73BA       loc_2C15A
 14DA:73BF       loc_2C15F
 14DA:73DE       loc_2C17E
 14DA:73E8       loc_2C188
 14DA:73F4       loc_2C194
 14DA:741F       loc_2C1BF
 14DA:7424       loc_2C1C4
 14DA:7438       loc_2C1D8
 14DA:7454       loc_2C1F4
 14DA:747B       loc_2C21B
 14DA:7488       loc_2C228
 14DA:7492       loc_2C232
 14DA:74A4       loc_2C244
 14DA:74CC       loc_2C26C
 14DA:74DF       loc_2C27F
 14DA:74F4       loc_2C294
 14DA:7507       loc_2C2A7
 14DA:751A       loc_2C2BA
 14DA:7530       loc_2C2D0
 14DA:7539       loc_2C2D9
 14DA:754F       loc_2C2EF
 14DA:75A3       loc_2C343
 14DA:75BF       loc_2C35F
 14DA:75EE       loc_2C38E
 14DA:767F       loc_2C41F
 14DA:76C7       loc_2C467
 14DA:76D3       loc_2C473
 14DA:7719       loc_2C4B9
 14DA:774C       loc_2C4EC
 14DA:7762       loc_2C502
 14DA:7790       loc_2C530
 14DA:77CF       loc_2C56F
 14DA:77FC       loc_2C59C
 14DA:77FE       loc_2C59E
 14DA:7809       loc_2C5A9
 14DA:78B7       loc_2C657
 14DA:78BA       loc_2C65A
 14DA:78C3       loc_2C663
 14DA:78D4       loc_2C674
 14DA:78FB       loc_2C69B
 14DA:7903       loc_2C6A3
 14DA:7910       loc_2C6B0
 14DA:7930       loc_2C6D0
 14DA:7970       loc_2C710
 14DA:79AB       loc_2C74B
 14DA:79BD       loc_2C75D
 14DA:79D0       loc_2C770
 14DA:79DB       loc_2C77B
 14DA:79E6       loc_2C786
 14DA:79F5       loc_2C795
 14DA:79F8       loc_2C798
 14DA:79FB       loc_2C79B
 14DA:7A5D       loc_2C7FD
 14DA:7A87       loc_2C827
 14DA:7A9A       loc_2C83A
 14DA:7AA3       loc_2C843
 14DA:7AAE       loc_2C84E
 14DA:7ABC       loc_2C85C
 14DA:7AC8       loc_2C868
 14DA:7B00       loc_2C8A0
 14DA:7B05       loc_2C8A5
 14DA:7B3F       loc_2C8DF
 14DA:7B79       loc_2C919
 14DA:7B7C       loc_2C91C
 14DA:7BBF       loc_2C95F
 14DA:7BEE       loc_2C98E
 14DA:7C2F       loc_2C9CF
 14DA:7C36       loc_2C9D6
 14DA:7C48       loc_2C9E8
 14DA:7C4F       loc_2C9EF
 14DA:7C54       loc_2C9F4
 14DA:7C8C       loc_2CA2C
 14DA:7C91       loc_2CA31
 14DA:7CA7       loc_2CA47
 14DA:7CCB       loc_2CA6B
 14DA:7CDE       loc_2CA7E
 14DA:7D05       loc_2CAA5
 14DA:7D08       loc_2CAA8
 14DA:7D70       loc_2CB10
 14DA:7D7C       loc_2CB1C
 14DA:7D7F       loc_2CB1F
 14DA:7D84       loc_2CB24
 14DA:7D8C       loc_2CB2C
 14DA:7D97       loc_2CB37
 14DA:7DB3       loc_2CB53
 14DA:7DC4       loc_2CB64
 14DA:7DC5       loc_2CB65
 14DA:7DD1       loc_2CB71
 14DA:7DDF       loc_2CB7F
 14DA:7DE6       loc_2CB86
 14DA:7DEA       loc_2CB8A
 14DA:7DEB       loc_2CB8B
 14DA:7E08       loc_2CBA8
 14DA:7E26       loc_2CBC6
 14DA:7E2D       loc_2CBCD
 14DA:7E2F       loc_2CBCF
 14DA:7E7B       loc_2CC1B
 14DA:7E92       loc_2CC32
 14DA:7EA4       loc_2CC44
 14DA:7EB1       loc_2CC51
 14DA:7EB3       loc_2CC53
 14DA:7EB5       loc_2CC55
 14DA:7EBF       loc_2CC5F
 14DA:7EC6       loc_2CC66
 14DA:7ED6       loc_2CC76
 14DA:7EDA       loc_2CC7A
 14DA:7EDC       loc_2CC7C
 14DA:7F01       loc_2CCA1
 14DA:7F09       loc_2CCA9
 14DA:7F30       loc_2CCD0
 14DA:7FFE       loc_2CD9E
 14DA:8000       loc_2CDA0
 14DA:8012       loc_2CDB2
 14DA:8013       loc_2CDB3
 14DA:801C       loc_2CDBC
 14DA:8026       loc_2CDC6
 14DA:8030       loc_2CDD0
 14DA:8035       loc_2CDD5
 14DA:8050       loc_2CDF0
 14DA:80EF       loc_2CE8F
 14DA:8165       loc_2CF05
 14DA:8168       loc_2CF08
 14DA:8169       loc_2CF09
 14DA:8172       loc_2CF12
 14DA:817E       loc_2CF1E
 14DA:818C       off_2CF2C
 14DA:81A4       sub_2CF44
 14DA:81C8       loc_2CF68
 14DA:81CF       loc_2CF6F
 14DA:81D8       loc_2CF78
 14DA:820E       loc_2CFAE
 14DA:82A0       loc_2D040
 14DA:82AB       loc_2D04B
 14DA:82B2       loc_2D052
 14DA:82BD       loc_2D05D
 14DA:82F5       loc_2D095
 14DA:8300       loc_2D0A0
 14DA:834C       loc_2D0EC
 14DA:8355       loc_2D0F5
 14DA:835A       loc_2D0FA
 14DA:835F       loc_2D0FF
 14DA:8363       loc_2D103
 14DA:8374       loc_2D114
 14DA:837B       loc_2D11B
 14DA:839C       loc_2D13C
 14DA:83B0       loc_2D150
 14DA:83C3       loc_2D163
 14DA:83D6       loc_2D176
 14DA:83EC       loc_2D18C
 14DA:8400       loc_2D1A0
 14DA:8420       loc_2D1C0
 14DA:8486       loc_2D226
 14DA:8492       loc_2D232
 14DA:84B1       loc_2D251
 14DA:84FA       loc_2D29A
 14DA:8521       loc_2D2C1
 14DA:852C       loc_2D2CC
 14DA:85BF       loc_2D35F
 14DA:85CE       loc_2D36E
 14DA:8623       loc_2D3C3
 14DA:8638       loc_2D3D8
 14DA:8654       loc_2D3F4
 14DA:8656       loc_2D3F6
 14DA:8710       loc_2D4B0
 14DA:875F       loc_2D4FF
 14DA:876B       loc_2D50B
 14DA:8784       loc_2D524
 14DA:878D       loc_2D52D
 14DA:879E       loc_2D53E
 14DA:87A4       loc_2D544
 14DA:87A6       loc_2D546
 14DA:87CB       loc_2D56B
 14DA:87D4       loc_2D574
 14DA:87F7       loc_2D597
 14DA:87FF       loc_2D59F
 14DA:8803       loc_2D5A3
 14DA:882E       loc_2D5CE
 14DA:88AA       loc_2D64A
 14DA:88B5       loc_2D655
 14DA:88C0       loc_2D660
 14DA:88CB       loc_2D66B
 14DA:88D4       loc_2D674
 14DA:88DD       loc_2D67D
 14DA:8914       loc_2D6B4
 14DA:891F       loc_2D6BF
 14DA:8930       loc_2D6D0
 14DA:897A       loc_2D71A
 14DA:897E       loc_2D71E
 14DA:898F       loc_2D72F
 14DA:899F       loc_2D73F
 14DA:89FB       loc_2D79B
 14DA:8A02       loc_2D7A2
 14DA:8A08       loc_2D7A8
 14DA:8A12       loc_2D7B2
 14DA:8A3B       loc_2D7DB
 14DA:8A47       loc_2D7E7
 14DA:8A64       loc_2D804
 14DA:8A8A       loc_2D82A
 14DA:8AB7       loc_2D857
 14DA:8BD1       loc_2D971
 14DA:8BDE       loc_2D97E
 14DA:8C3B       loc_2D9DB
 14DA:8C57       loc_2D9F7
 14DA:8CDE       loc_2DA7E
 14DA:8D36       loc_2DAD6
 14DA:8D5F       loc_2DAFF
 14DA:8D6B       loc_2DB0B
 14DA:8D88       loc_2DB28
 14DA:8DC2       loc_2DB62
 14DA:8E0A       loc_2DBAA
 14DA:8E3D       loc_2DBDD
 14DA:8E8F       loc_2DC2F
 14DA:8EFE       loc_2DC9E
 14DA:8F01       loc_2DCA1
 14DA:8F6C       loc_2DD0C
 14DA:8F92       loc_2DD32
 14DA:8F9A       loc_2DD3A
 14DA:8FB4       loc_2DD54
 14DA:8FE9       loc_2DD89
 14DA:8FEC       loc_2DD8C
 14DA:8FF5       loc_2DD95
 14DA:90B5       loc_2DE55
 14DA:9110       loc_2DEB0
 14DA:9115       loc_2DEB5
 14DA:9130       loc_2DED0
 14DA:917F       loc_2DF1F
 14DA:91AC       loc_2DF4C
 14DA:91D7       loc_2DF77
 14DA:91DE       loc_2DF7E
 14DA:91F4       loc_2DF94
 14DA:9202       loc_2DFA2
 14DA:9204       loc_2DFA4
 14DA:920F       loc_2DFAF
 14DA:9210       loc_2DFB0
 14DA:9212       loc_2DFB2
 14DA:923E       loc_2DFDE
 14DA:9240       loc_2DFE0
 14DA:9248       loc_2DFE8
 14DA:924A       loc_2DFEA
 14DA:9250       off_2DFF0
 14DA:926A       sub_2E00A
 14DA:927C       loc_2E01C
 14DA:9285       loc_2E025
 14DA:928E       loc_2E02E
 14DA:9298       loc_2E038
 14DA:929D       loc_2E03D
 14DA:92A2       loc_2E042
 14DA:92B0       loc_2E050
 14DA:92C0       loc_2E060
 14DA:92D0       loc_2E070
 14DA:92EE       loc_2E08E
 14DA:9312       loc_2E0B2
 14DA:931B       loc_2E0BB
 14DA:932E       loc_2E0CE
 14DA:933C       loc_2E0DC
 14DA:9342       loc_2E0E2
 14DA:9349       loc_2E0E9
 14DA:934C       loc_2E0EC
 14DA:9360       loc_2E100
 14DA:9391       loc_2E131
 14DA:9393       loc_2E133
 14DA:9395       loc_2E135
 14DA:93A2       loc_2E142
 14DA:93D4       loc_2E174
 14DA:93DF       loc_2E17F
 14DA:93EA       loc_2E18A
 14DA:93F5       loc_2E195
 14DA:93FC       loc_2E19C
 14DA:9406       loc_2E1A6
 14DA:9441       loc_2E1E1
 14DA:9445       idk_SetValue_w36A38_s2E1E5
 14DA:9448       loc_2E1E8
 14DA:9450       idk_SetValue_w36A38_FFFF_s2E1F0
 14DA:945B       sub_2E1FB
 14DA:9483       loc_2E223
 14DA:9489       loc_2E229
 14DA:948B       sub_2E22B
 14DA:948E       loc_2E22E
 14DA:949E       sub_2E23E
 14DA:94B7       sub_2E257
 14DA:94CD       sub_2E26D
 14DA:94DB       loc_2E27B
 14DA:94DD       sub_2E27D
 14DA:950B       loc_2E2AB
 14DA:9515       loc_2E2B5
 14DA:9517       sub_2E2B7
 14DA:9521       loc_2E2C1
 14DA:9526       loc_2E2C6
 14DA:9536       loc_2E2D6
 14DA:9545       loc_2E2E5
 14DA:954A       loc_2E2EA
 14DA:954F       loc_2E2EF
 14DA:9551       sub_2E2F1
 14DA:9563       sub_2E303
 14DA:9572       loc_2E312
 14DA:957C       loc_2E31C
 14DA:9593       loc_2E333
 14DA:9598       loc_2E338
 14DA:959A       loc_2E33A
 14DA:959F       loc_2E33F
 14DA:95A4       loc_2E344
 14DA:95A9       loc_2E349
 14DA:95AE       loc_2E34E
 14DA:95AF       loc_2E34F
 14DA:95B0       loc_2E350
 14DA:95B1       locret_2E351
 1E35:0002       word_2E352
 1E35:0004       word_2E354
 1E35:0006       byte_2E356
 1E35:0046       word_2E396
 1E35:0048       word_2E398
 1E35:004A       byte_2E39A
 1E35:008C       word_2E3DC
 1E35:008E       byte_2E3DE
 1E35:0116       word_2E466
 1E35:0118       word_2E468
 1E35:011A       dword_2E46A
 1E35:011E       word_2E46E
 1E35:0120       word_2E470
 1E35:0122       word_2E472
 1E35:0124       word_2E474
 1E35:0126       byte_2E476
 1E35:01AA       word_2E4FA
 1E35:01B0       word_2E500
 1E35:01B2       aTest
 1E35:01B7       byte_2E507
 1E35:03BA       word_2E70A
 1E35:03BC       AIL_find_proc
 1E35:03D0       loc_2E720
 1E35:03DA       loc_2E72A
 1E35:03E6       loc_2E736
 1E35:03ED       loc_2E73D
 1E35:03F4       AIL_call_driver
 1E35:0408       loc_2E758
 1E35:040B       locret_2E75B
 1E35:0426       loc_2E776
 1E35:043E       loc_2E78E
 1E35:0445       loc_2E795
 1E35:0468       loc_2E7B8
 1E35:046D       loc_2E7BD
 1E35:0478       loc_2E7C8
 1E35:047D       loc_2E7CD
 1E35:0484       loc_2E7D4
 1E35:049D       loc_2E7ED
 1E35:04B4       loc_2E804
 1E35:04C8       loc_2E818
 1E35:04D9       loc_2E829
 1E35:04DD       sub_2E82D
 1E35:050E       loc_2E85E
 1E35:051A       loc_2E86A
 1E35:0520       sub_2E870
 1E35:0524       loc_2E874
 1E35:052A       loc_2E87A
 1E35:0561       loc_2E8B1
 1E35:056C       sub_2E8BC
 1E35:0571       loc_2E8C1
 1E35:0591       loc_2E8E1
 1E35:059C       hrmTimer
 1E35:05B9       loc_2E909
 1E35:05C5       sub_2E915
 1E35:05CA       loc_2E91A
 1E35:05DB       loc_2E92B
 1E35:05E2       loc_2E932
 1E35:05EF       sub_2E93F
 1E35:060D       loc_2E95D
 1E35:0616       loc_2E966
 1E35:0628       loc_2E978
 1E35:062D       loc_2E97D
 1E35:0631       loc_2E981
 1E35:0635       loc_2E985
 1E35:063A       sub_2E98A
 1E35:0651       loc_2E9A1
 1E35:0679       loc_2E9C9
 1E35:0682       loc_2E9D2
 1E35:0688       loc_2E9D8
 1E35:069F       loc_2E9EF
 1E35:06C4       loc_2EA14
 1E35:06CF       _AIL_startup
 1E35:070F       loc_2EA5F
 1E35:071A       _AIL_shutdown
 1E35:0729       loc_2EA79
 1E35:0750       loc_2EAA0
 1E35:0762       loc_2EAB2
 1E35:0773       loc_2EAC3
 1E35:077F       _AIL_register_timer
 1E35:078C       loc_2EADC
 1E35:07A2       loc_2EAF2
 1E35:07CF       loc_2EB1F
 1E35:07EC       loc_2EB3C
 1E35:0800       loc_2EB50
 1E35:083E       loc_2EB8E
 1E35:084A       _AIL_release_timer_handle
 1E35:0887       loc_2EBD7
 1E35:0893       _AIL_release_all_timers
 1E35:089B       loc_2EBEB
 1E35:08A6       loc_2EBF6
 1E35:08B1       _AIL_start_timer
 1E35:08CD       loc_2EC1D
 1E35:08D9       _AIL_start_all_timers
 1E35:08E1       loc_2EC31
 1E35:08EC       loc_2EC3C
 1E35:08F7       _AIL_stop_timer
 1E35:0902       loc_2EC52
 1E35:0913       loc_2EC63
 1E35:091F       _AIL_stop_all_timers
 1E35:0927       loc_2EC77
 1E35:0932       loc_2EC82
 1E35:093D       _AIL_set_timer_period
 1E35:095F       loc_2ECAF
 1E35:097F       loc_2ECCF
 1E35:0986       loc_2ECD6
 1E35:0992       _AIL_set_timer_frequency
 1E35:09C7       loc_2ED17
 1E35:09D3       _AIL_set_timer_divisor
 1E35:09E9       loc_2ED39
 1E35:09F7       loc_2ED47
 1E35:0A03       loc_2ED53
 1E35:0A0F       _AIL_interrupt_divisor
 1E35:0A18       loc_2ED68
 1E35:0A23       _AIL_register_driver
 1E35:0A32       loc_2ED82
 1E35:0A59       loc_2EDA9
 1E35:0A74       loc_2EDC4
 1E35:0A8A       loc_2EDDA
 1E35:0AB5       loc_2EE05
 1E35:0AB9       loc_2EE09
 1E35:0AC5       loc_2EE15
 1E35:0B06       _AIL_release_driver_handle
 1E35:0B41       loc_2EE91
 1E35:0B4D       _AIL_describe_driver
 1E35:0B73       _AIL_detect_device
 1E35:0B79       _AIL_init_driver
 1E35:0B8A       loc_2EEDA
 1E35:0BE6       loc_2EF36
 1E35:0BEF       loc_2EF3F
 1E35:0C1F       loc_2EF6F
 1E35:0C2B       _AIL_shutdown_driver
 1E35:0C34       loc_2EF84
 1E35:0C57       loc_2EFA7
 1E35:0C5D       locret_2EFAD
 1E35:0C5E       _AIL_index_VOC_block
 1E35:0C64       _AIL_register_sound_buffer
 1E35:0C6A       _AIL_format_sound_buffer
 1E35:0C70       _AIL_sound_buffer_status
 1E35:0C76       _AIL_play_VOC_file
 1E35:0C7C       _AIL_format_VOC_file
 1E35:0C82       _AIL_VOC_playback_status
 1E35:0C88       _AIL_start_digital_playback
 1E35:0C8E       _AIL_stop_digital_playback
 1E35:0C94       _AIL_pause_digital_playback
 1E35:0C9A       _AIL_resume_digital_playback
 1E35:0CA0       _AIL_set_digital_playback_volume
 1E35:0CA6       _AIL_digital_playback_volume
 1E35:0CAC       _AIL_set_digital_playback_panpot
 1E35:0CB2       _AIL_digital_playback_panpot
 1E35:0CB8       _AIL_state_table_size
 1E35:0CBE       _AIL_register_sequence
 1E35:0CC4       _AIL_release_sequence_handle
 1E35:0CCA       _AIL_default_timbre_cache_size
 1E35:0CD0       _AIL_define_timbre_cache
 1E35:0CD6       _AIL_timbre_request
 1E35:0CDC       _AIL_install_timbre
 1E35:0CE2       _AIL_protect_timbre
 1E35:0CE8       _AIL_unprotect_timbre
 1E35:0CEE       _AIL_timbre_status
 1E35:0CF4       _AIL_start_sequence
 1E35:0CFA       _AIL_stop_sequence
 1E35:0D00       _AIL_resume_sequence
 1E35:0D06       _AIL_sequence_status
 1E35:0D0C       _AIL_relative_volume
 1E35:0D12       _AIL_relative_tempo
 1E35:0D18       _AIL_set_relative_volume
 1E35:0D1E       _AIL_set_relative_tempo
 1E35:0D24       _AIL_beat_count
 1E35:0D2A       _AIL_measure_count
 1E35:0D30       _AIL_branch_index
 1E35:0D36       _AIL_controller_value
 1E35:0D3C       _AIL_set_controller_value
 1E35:0D42       _AIL_channel_notes
 1E35:0D48       _AIL_send_channel_voice_message
 1E35:0D4E       _AIL_send_sysex_message
 1E35:0D54       _AIL_write_display
 1E35:0D5A       _AIL_install_callback
 1E35:0D60       _AIL_cancel_callback
 1E35:0D66       _AIL_lock_channel
 1E35:0D6C       _AIL_map_sequence_channel
 1E35:0D72       _AIL_release_channel
 1E35:0D78       _AIL_true_sequence_channel
 1E35:0D7E       byte_2F0CE
 1E35:0DBE       word_2F10E
 1E35:0DC8       word_2F118
 1E35:0DCA       byte_2F11A
 1E35:0E1C       dword_2F16C
 1E35:0E20       word_2F170
 1E35:0E22       word_2F172
 1E35:0E24       word_2F174
 1E35:0E26       dword_2F176
 1E35:0E2A       word_2F17A
 1E35:0E2C       word_2F17C
 1E35:0E2E       word_2F17E
 1E35:0E30       word_2F180
 1E35:0E32       word_2F182
 1E35:0E34       word_2F184
 1E35:0E36       word_2F186
 1E35:0E38       word_2F188
 1E35:0E3A       word_2F18A
 1E35:0E3C       word_2F18C
 1E35:0E3E       word_2F18E
 1E35:0E40       word_2F190
 1E35:0E42       word_2F192
 1E35:0E58       word_2F1A8
 1E35:0E5A       word_2F1AA
 1E35:0E5C       word_2F1AC
 1E35:0E5E       word_2F1AE
 1E35:0E60       word_2F1B0
 1E35:0E62       dword_2F1B2
 1E35:0E66       dword_2F1B6
 1E35:0E6A       word_2F1BA
 1E35:0E6C       dword_2F1BC
 1E35:0E70       word_2F1C0
 1E35:0E72       word_2F1C2
 1E35:0E76       byte_2F1C6
 1E35:0E78       word_2F1C8
 1E35:0E7A       word_2F1CA
 1E35:0E7C       sub_2F1CC
 1E35:0EAF       loc_2F1FF
 1E35:0EB3       sub_2F203
 1E35:0EE6       loc_2F236
 1E35:0EEA       sub_2F23A
 1E35:0F09       loc_2F259
 1E35:0F31       sub_2F281
 1E35:0F40       sub_2F290
 1E35:0F53       loc_2F2A3
 1E35:0F57       sub_2F2A7
 1E35:0F92       sub_2F2E2
 1E35:0FA4       loc_2F2F4
 1E35:0FBA       loc_2F30A
 1E35:0FD1       loc_2F321
 1E35:0FFE       loc_2F34E
 1E35:101B       loc_2F36B
 1E35:102C       loc_2F37C
 1E35:102F       loc_2F37F
 1E35:1040       loc_2F390
 1E35:1042       loc_2F392
 1E35:1045       sub_2F395
 1E35:104B       loc_2F39B
 1E35:1055       loc_2F3A5
 1E35:1058       loc_2F3A8
 1E35:1075       loc_2F3C5
 1E35:107D       locret_2F3CD
 1E35:1094       loc_2F3E4
 1E35:10B1       locret_2F401
 1E35:10B2       sub_2F402
 1E35:10ED       loc_2F43D
 1E35:1107       sub_2F457
 1E35:112A       loc_2F47A
 1E35:112E       sub_2F47E
 1E35:1131       loc_2F481
 1E35:1142       loc_2F492
 1E35:1158       loc_2F4A8
 1E35:1162       loc_2F4B2
 1E35:1168       loc_2F4B8
 1E35:1189       loc_2F4D9
 1E35:11AF       loc_2F4FF
 1E35:120F       loc_2F55F
 1E35:122E       loc_2F57E
 1E35:1281       loc_2F5D1
 1E35:1282       loc_2F5D2
 1E35:1285       sub_2F5D5
 1E35:128A       loc_2F5DA
 1E35:1290       loc_2F5E0
 1E35:1297       loc_2F5E7
 1E35:12A5       loc_2F5F5
 1E35:12BD       loc_2F60D
 1E35:12D8       sub_2F628
 1E35:12FA       loc_2F64A
 1E35:1303       sub_2F653
 1E35:1306       loc_2F656
 1E35:1317       loc_2F667
 1E35:1322       loc_2F672
 1E35:134C       loc_2F69C
 1E35:135F       loc_2F6AF
 1E35:1361       loc_2F6B1
 1E35:137E       loc_2F6CE
 1E35:13D1       loc_2F721
 1E35:13DA       sub_2F72A
 1E35:13E0       loc_2F730
 1E35:13ED       loc_2F73D
 1E35:13F2       loc_2F742
 1E35:13FB       loc_2F74B
 1E35:1418       loc_2F768
 1E35:1423       loc_2F773
 1E35:142E       loc_2F77E
 1E35:143F       loc_2F78F
 1E35:145A       sub_2F7AA
 1E35:1468       sub_2F7B8
 1E35:147C       loc_2F7CC
 1E35:1498       loc_2F7E8
 1E35:14CD       sub_2F81D
 1E35:1548       loc_2F898
 1E35:1554       loc_2F8A4
 1E35:1560       loc_2F8B0
 1E35:156D       loc_2F8BD
 1E35:15AE       loc_2F8FE
 1E35:161E       loc_2F96E
 1E35:1621       loc_2F971
 1E35:164C       loc_2F99C
 1E35:16AE       loc_2F9FE
 1E35:171A       loc_2FA6A
 1E35:1732       loc_2FA82
 1E35:1739       loc_2FA89
 1E35:179A       loc_2FAEA
 1E35:17A5       loc_2FAF5
 1E35:17AC       loc_2FAFC
 1E35:17BD       loc_2FB0D
 1E35:17D4       loc_2FB24
 1E35:17F8       loc_2FB48
 1E35:180D       loc_2FB5D
 1E35:1821       loc_2FB71
 1E35:1827       loc_2FB77
 1E35:1871       loc_2FBC1
 1E35:1888       loc_2FBD8
 1E35:1899       loc_2FBE9
 1E35:189B       loc_2FBEB
 1E35:18AE       loc_2FBFE
 1E35:18B3       sub_2FC03
 1E35:18C2       loc_2FC12
 1E35:18CE       loc_2FC1E
 1E35:18E0       loc_2FC30
 1E35:18E7       loc_2FC37
 1E35:18EE       loc_2FC3E
 1E35:18F2       loc_2FC42
 1E35:18F4       loc_2FC44
 1E35:18F6       locret_2FC46
 1E35:18F8       loc_2FC48
 1E35:18FA       loc_2FC4A
 1E35:18FC       loc_2FC4C
 1E35:18FD       loc_2FC4D
 1E35:1901       loc_2FC51
 1E35:1902       loc_2FC52
 1E35:1903       loc_2FC53
 1E35:1904       loc_2FC54
 1E35:1905       locret_2FC55
 1FC5:0006       idk_DosReadFromFileHAndle_s2FC56
 1FC5:0007       loc_2FC57
 1FC5:000A       loc_2FC5A
 1FC5:000D       loc_2FC5D
 1FC5:0011       loc_2FC61
 1FC5:0015       loc_2FC65
 1FC5:0018       loc_2FC68
 1FC5:002A       loc_2FC7A
 1FC5:0049       loc_2FC99
 1FC5:004B       loc_2FC9B
 1FC5:00C2       loc_2FD12
 1FC5:00C5       ST_LoadSoundDrivers
 1FC5:00EB       RETURN_1
 1FC5:00F1       loc_2FD41
 1FC5:00F7       loc_2FD47
 1FC5:00FB       loc_2FD4B
 1FC5:00FD       loc_2FD4D
 1FC5:0103       loc_2FD53
 1FC5:011A       loc_2FD6A
 1FC5:0126       loc_2FD76
 1FC5:012C       loc_2FD7C
 1FC5:0143       loc_2FD93
 1FC5:014D       loc_2FD9D
 1FC5:0157       loc_2FDA7
 1FC5:015C       loc_2FDAC
 1FC5:0164       loc_2FDB4
 1FC5:0174       loc_2FDC4
 1FC5:017A       loc_2FDCA
 1FC5:0180       loc_2FDD0
 1FC5:018F       loc_2FDDF
 1FC5:0199       loc_2FDE9
 1FC5:019F       loc_2FDEF
 1FC5:01AD       loc_2FDFD
 1FC5:01C4       loc_2FE14
 1FC5:01D4       loc_2FE24
 1FC5:01DF       loc_2FE2F
 1FC5:01E1       loc_2FE31
 1FC5:01EC       loc_2FE3C
 1FC5:01F7       loc_2FE47
 1FC5:021D       loc_2FE6D
 1FC5:0245       loc_2FE95
 1FC5:0263       loc_2FEB3
 1FC5:027C       loc_2FECC
 1FC5:02A7       loc_2FEF7
 1FC5:02D2       loc_2FF22
 1FC5:02EA       loc_2FF3A
 1FC5:02FF       loc_2FF4F
 1FC5:0302       loc_2FF52
 1FC5:030D       loc_2FF5D
 1FC5:0331       loc_2FF81
 1FC5:0360       loc_2FFB0
 1FC5:0382       loc_2FFD2
 1FC5:039E       loc_2FFEE
 1FC5:03BA       loc_3000A
 1FC5:03C4       loc_30014
 1FC5:03DC       loc_3002C
 1FC5:03F8       loc_30048
 1FC5:0414       loc_30064
 1FC5:041E       loc_3006E
 1FC5:0451       loc_300A1
 1FC5:0469       loc_300B9
 1FC5:046D       loc_300BD
 1FC5:04C5       loc_30115
 1FC5:04C7       loc_30117
 1FC5:04E4       loc_30134
 1FC5:04EE       loc_3013E
 1FC5:0521       loc_30171
 1FC5:0595       loc_301E5
 1FC5:0597       loc_301E7
 1FC5:05B4       loc_30204
 1FC5:05E7       loc_30237
 1FC5:061A       loc_3026A
 1FC5:06A1       loc_302F1
 1FC5:06DD       loc_3032D
 1FC5:0724       loc_30374
 1FC5:072E       loc_3037E
 1FC5:0752       loc_303A2
 1FC5:075C       loc_303AC
 1FC5:075F       loc_303AF
 1FC5:0765       off_303B5
 1FC5:076D       ST_LoadSound
 1FC5:0786       RETURN_1
 1FC5:078C       loc_303DC
 1FC5:0796       loc_303E6
 1FC5:07BD       loc_3040D
 1FC5:07D4       SND_SUBTYP_1
 1FC5:07DD       loc_3042D
 1FC5:0810       loc_30460
 1FC5:0847       loc_30497
 1FC5:0851       loc_304A1
 1FC5:0865       loc_304B5
 1FC5:08B4       loc_30504
 1FC5:08CB       loc_3051B
 1FC5:08F3       loc_30543
 1FC5:0905       loc_30555
 1FC5:090D       SND_SUBTYP_2
 1FC5:0917       loc_30567
 1FC5:0945       loc_30595
 1FC5:0960       loc_305B0
 1FC5:0971       loc_305C1
 1FC5:099D       loc_305ED
 1FC5:09C0       loc_30610
 1FC5:09C9       loc_30619
 1FC5:09CA       loc_3061A
 1FC5:09D4       loc_30624
 1FC5:09DE       loc_3062E
 1FC5:0A05       loc_30655
 1FC5:0A1C       loc_3066C
 1FC5:0A4A       loc_3069A
 1FC5:0A76       loc_306C6
 1FC5:0AA2       loc_306F2
 1FC5:0AC4       loc_30714
 1FC5:0ACA       sub_3071A
 1FC5:0ADF       loc_3072F
 1FC5:0AEC       loc_3073C
 1FC5:0AF4       loc_30744
 1FC5:0B0D       loc_3075D
 1FC5:0B1F       loc_3076F
 1FC5:0B21       loc_30771
 1FC5:0B23       loc_30773
 1FC5:0B43       loc_30793
 1FC5:0B45       loc_30795
 1FC5:0B5A       loc_307AA
 1FC5:0B91       loc_307E1
 1FC5:0BA9       loc_307F9
 1FC5:0BAD       sub_307FD
 1FC5:0BC1       loc_30811
 1FC5:0BC4       loc_30814
 1FC5:0BC6       loc_30816
 1FC5:0BDD       loc_3082D
 1FC5:0BE1       AIL_someSequence
 1FC5:0BEB       loc_3083B
 1FC5:0BEF       loc_3083F
 1FC5:0BFD       loc_3084D
 1FC5:0BFF       loc_3084F
 1FC5:0C14       loc_30864
 1FC5:0C16       loc_30866
 1FC5:0C35       loc_30885
 1FC5:0C40       loc_30890
 1FC5:0C55       loc_308A5
 1FC5:0C5C       loc_308AC
 1FC5:0C5E       Call_AIL_shutdown
 1FC5:0C6F       loc_308BF
 1FC5:0C82       loc_308D2
 1FC5:0C96       sub_308E6
 1FC5:0CAC       loc_308FC
 1FC5:0CBD       loc_3090D
 1FC5:0CBF       loc_3090F
 1FC5:0CCE       loc_3091E
 1FC5:0CD9       loc_30929
 1FC5:0CE3       loc_30933
 1FC5:0CE5       loc_30935
 1FC5:0CF4       loc_30944
 1FC5:0D03       loc_30953
 1FC5:0D09       loc_30959
 1FC5:0D0B       loc_3095B
 1FC5:0D0D       idk_Env_BLASTER_s3095D
 1FC5:0D29       loc_30979
 1FC5:0D2B       loc_3097B
 1FC5:0D2E       loc_3097E
 1FC5:0D53       loc_309A3
 1FC5:0D63       loc_309B3
 1FC5:0D71       loc_309C1
 1FC5:0D7D       loc_309CD
 1FC5:0D7F       loc_309CF
 1FC5:0D8E       loc_309DE
 1FC5:0DA3       loc_309F3
 1FC5:0DBA       loc_30A0A
 1FC5:0DBC       loc_30A0C
 1FC5:0DE4       loc_30A34
 1FC5:0DE7       loc_30A37
 1FC5:0E10       loc_30A60
 1FC5:0E11       loc_30A61
 1FC5:0E19       loc_30A69
 1FC5:0E1A       LOOP_StrLen_StrEnvBlaster
 1FC5:0E2C       loc_30A7C
 1FC5:0E36       loc_30A86
 1FC5:0E43       loc_30A93
 1FC5:0E49       loc_30A99
 1FC5:0E4F       ST_SoundErrorHandler
 1FC5:0E60       loc_30AB0
 1FC5:0E67       loc_30AB7
 1FC5:0E6A       loc_30ABA
 1FC5:0E79       loc_30AC9
 1FC5:0E83       loc_30AD3
 1FC5:0E87       loc_30AD7
 1FC5:0E89       loc_30AD9
 1FC5:0E8E       loc_30ADE
 1FC5:0E93       loc_30AE3
 1FC5:0E98       loc_30AE8
 1FC5:0E9D       loc_30AED
 1FC5:0EA2       loc_30AF2
 1FC5:0EA4       loc_30AF4
 1FC5:0EA7       loc_30AF7
 1FC5:0EA8       loc_30AF8
 1FC5:0EB8       loc_30B08
 1FC5:0EBD       loc_30B0D
 1FC5:0EC2       loc_30B12
 1FC5:0EC7       loc_30B17
 1FC5:0ECC       loc_30B1C
 1FC5:0ED1       loc_30B21
 1FC5:0ED3       loc_30B23
 1FC5:0ED6       loc_30B26
 1FC5:0EF1       loc_30B41
 1FC5:0EF6       loc_30B46
 1FC5:0F04       byte_30B54
 1FC5:0F05       off_30B55
 20B7:0007       __OVRGROUP
 20B7:0009       __DGROUP
 20B7:000B       byte_30B7B
 20B7:0010       idk_InitMod_w30B80
 20B7:0012       __OVRINIT
 20B7:0013       loc_30B83
 20B7:0015       loc_30B85
 20B7:0019       loc_30B89
 20B7:001E       loc_30B8E
 20B7:0020       loc_30B90
 20B7:0021       loc_30B91
 20B7:0026       loc_30B96
 20B7:0028       loc_30B98
 20B7:002B       loc_30B9B
 20B7:0030       loc_30BA0
 20B7:0033       loc_30BA3
 20B7:0036       loc_30BA6
 20B7:0038       loc_30BA8
 20B7:003D       loc_30BAD
 20B7:0042       loc_30BB2
 20B7:0045       loc_30BB5
 20B7:0047       loc_30BB7
 20B7:004A       loc_30BBA
 20B7:004C       loc_30BBC
 20B7:004F       loc_30BBF
 20B7:0052       loc_30BC2
 20B7:0059       loc_30BC9
 20B7:005C       loc_30BCC
 20B7:0068       loc_30BD8
 20B7:006B       loc_30BDB
 20B7:0078       loc_30BE8
 20B7:007D       loc_30BED
 20B7:0086       loc_30BF6
 20B7:0096       loc_30C06
 20B7:00BE       loc_30C2E
 20B7:00C0       loc_30C30
 20B7:00C7       loc_30C37
 20B7:00CF       loc_30C3F
 20B7:0120       loc_30C90
 20B7:0124       loc_30C94
 20B7:0137       loc_30CA7
 20B7:0139       loc_30CA9
 20B7:013F       locret_30CAF
 20B7:0142       OVR_SetOvrMgrIntVec
 20B7:0165       loc_30CD5
 20B7:0184       loc_30CF4
 20B7:0192       loc_30D02
 20B7:0195       __OVREXIT
 20B7:01AA       loc_30D1A
 20B7:01B0       loc_30D20
 20B7:01B7       OVR_s30D27
 20B7:01C3       fncCheckDOSVersion
 20B7:01CB       loc_30D3B
 20B7:01DD       loc_30D4D
 20B7:01F3       loc_30D63
 20B7:0201       loc_30D71
 20B7:0207       locret_30D77
 20B7:0208       OVR_s30D78
 20B7:0214       loc_30D84
 20B7:021F       loc_30D8F
 20B7:0222       loc_30D92
 20B7:022B       loc_30D9B
 20B7:022E       loc_30D9E
 20B7:023E       loc_30DAE
 20B7:0247       loc_30DB7
 20B7:024C       loc_30DBC
 20B7:024D       loc_30DBD
 20B7:025A       loc_30DCA
 20B7:0265       OVR_s30DD5
 20B7:0271       LOOP_x12
 20B7:027C       loc_30DEC
 20B7:028D       DOS_ReadFromFile_NoBX
 20B7:029C       locret_30E0C
 20B7:029D       __InitModules
 20B7:02BA       loc_30E2A
 20B7:02C7       loc_30E37
 20B7:02CA       loc_30E3A
 20B7:02E6       loc_30E56
 20B7:02FF       loc_30E6F
 20B7:0302       loc_30E72
 20B7:0308       loc_30E78
 20B7:0313       loc_30E83
 20B7:031D       sub_30E8D
 20B7:0330       loc_30EA0
 20B7:0366       loc_30ED6
 20B7:037D       loc_30EED
 20B7:03A0       loc_30F10
 20B7:03AC       loc_30F1C
 20B7:03B7       loc_30F27
 20B7:03C3       loc_30F33
 20B7:03CD       loc_30F3D
 20B7:03DA       loc_30F4A
 20B7:03DB       loc_30F4B
 20B7:03DC       locret_30F4C
 20B7:03E7       loc_30F57
 20B7:03EA       sub_30F5A
 20B7:03EF       loc_30F5F
 20B7:03FA       loc_30F6A
 20B7:0401       loc_30F71
 20B7:040A       loc_30F7A
 20B7:0421       loc_30F91
 20B7:0423       sub_30F93
 20B7:0444       loc_30FB4
 20B7:0462       loc_30FD2
 20B7:0468       sub_30FD8
 20B7:046B       loc_30FDB
 20B7:04B4       loc_31024
 20B7:04C0       loc_31030
 20B7:04C4       loc_31034
 20B7:04C6       loc_31036
 20B7:04C8       __ReadOvrDisk
 20B7:04F4       loc_31064
 20B7:04F5       locret_31065
 20B7:0504       loc_31074
 20B7:0523       loc_31093
 20B7:053B       loc_310AB
 20B7:055C       idk_OVR_s310CC
 20B7:0566       loc_310D6
 20B7:056D       loc_310DD
 20B7:0588       loc_310F8
 20B7:0593       loc_31103
 20B7:0594       loc_31104
 20B7:05A6       CHUNK_OverlayHalt
 20B7:05C1       loc_31131
 20B7:05DA       loc_3114A
 20B7:05DD       loc_3114D
 20B7:05F3       loc_31163
 20B7:060E       loc_3117E
 20B7:0614       loc_31184
 20B7:061A       loc_3118A
 20B7:061C       loc_3118C
 20B7:0621       sub_31191
 20B7:0631       loc_311A1
 20B7:0639       sub_311A9
 20B7:063E       loc_311AE
 20B7:0653       loc_311C3
 20B7:0674       idk_OVR_s311E4
 20B7:067D       loc_311ED
 20B7:0685       loc_311F5
 20B7:0695       sub_31205
 20B7:06A3       loc_31213
 20B7:06B2       locret_31222
 20B7:06B3       idk_OVR_s31223
 20B7:06D5       loc_31245
 20B7:06E5       locret_31255
 20B7:06E6       sub_31256
 20B7:0707       loc_31277
 20B7:0730       loc_312A0
 20B7:0736       locret_312A6
 20B7:0737       idk_OVR_s312A7
 20B7:0742       loc_312B2
 20B7:0755       sub_312C5
 20B7:0760       locret_312D0
 20B7:0761       sub_312D1
 20B7:0767       loc_312D7
 20B7:076B       loc_312DB
 20B7:0784       loc_312F4
 20B7:0787       idk_OVR_s312F7
 20B7:079A       loc_3130A
 20B7:07A2       locret_31312
 20B7:07A3       idk_OVR_s31313
 20B7:07AF       sub_3131F
 20B7:07C7       __ISOVERLAYMOD
 20B7:07CE       loc_3133E
 20B7:07EC       loc_3135C
 20B7:07F7       loc_31367
 20B7:07FA       loc_3136A
 20B7:07FD       __CHECKSTACK
 20B7:0800       loc_31370
 20B7:081A       loc_3138A
 20B7:081E       loc_3138E
 20B7:0829       loc_31399
 20B7:0839       loc_313A9
 20B7:083B       loc_313AB
 20B7:083D       loc_313AD
 20B7:0842       loc_313B2
 20B7:084C       loc_313BC
 20B7:0855       loc_313C5
 20B7:0859       loc_313C9
 20B7:088E       loc_313FE
 20B7:0895       __CHECKOVERLAY
 20B7:089E       loc_3140E
 20B7:08B4       loc_31424
 20B7:08BC       loc_3142C
 20B7:08E3       loc_31453
 20B7:08EA       loc_3145A
 20B7:08ED       __OvrPrepare
 20B7:0901       loc_31471
 20B7:0914       loc_31484
 20B7:0916       loc_31486
 20B7:0936       loc_314A6
 20B7:0938       loc_314A8
 20B7:0943       loc_314B3
 20B7:0949       nullsub_3
 214C:0000       unk_314C0
 214C:0001       unk_314C1
 214C:0002       word_314C2
 214C:0004       seg_314C4
 214C:0006       AccessMode_READ
 214C:0007       unk_314C7
 214C:0008       unk_314C8
 214C:0009       unk_314C9
 214C:000A       unk_314CA
 214C:000B       unk_314CB
 214C:000C       unk_314CC
 214C:000D       unk_314CD
 214C:000E       unk_314CE
 214C:000F       unk_314CF
 214C:0010       word_314D0
 214C:0012       off_314D2
 214C:0014       off_314D4
 214C:0016       off_314D6
 214C:001C       unk_314DC
 214C:001E       unk_314DE
 214C:0020       unk_314E0
 214C:0024       unk_314E4
 214C:0026       unk_314E6
 214C:0028       unk_314E8
 214C:002B       unk_314EB
 214C:002C       unk_314EC
 214C:0030       unk_314F0
 214C:0033       unk_314F3
 214C:003F       unk_314FF
 214C:0040       unk_31500
 214C:0044       unk_31504
 214C:0046       unk_31506
 214C:004C       unk_3150C
 214C:004E       unk_3150E
 214C:004F       unk_3150F
 214C:0050       unk_31510
 214C:0057       unk_31517
 214C:0058       unk_31518
 214C:005F       unk_3151F
 214C:0061       unk_31521
 214C:0064       unk_31524
 214C:0065       unk_31525
 214C:0066       unk_31526
 214C:0068       unk_31528
 214C:0069       unk_31529
 214C:006C       unk_3152C
 214C:0070       unk_31530
 214C:0080       unk_31540
 214C:0089       unk_31549
 214C:008A       unk_3154A
 214C:008F       unk_3154F
 214C:0091       unk_31551
 214C:0092       unk_31552
 214C:009E       unk_3155E
 214C:00A0       byte_31560
 214C:00A1       str3F
 214C:00A4       word_31564
 214C:00A6       word_31566
 214C:00A8       word_31568
 214C:00AA       word_3156A
 214C:00AC       algn_3156C
 214C:00B0       word_31570
 214C:00B2       word_31572
 214C:00B4       word_31574
 214C:00B6       word_31576
 214C:00B8       word_31578
 214C:00BA       algn_3157A
 214C:00BC       word_3157C
 214C:00BE       ofs_STARTX
 214C:00C7       unk_31587
 214C:00D7       unk_31597
 214C:00F2       o_1_a_87_s_0_tpsig2_91
 214C:00F7       unk_315B7
 214C:0126       unk_315E6
 214C:01E5       unk_316A5
 214C:0200       unk_316C0
 214C:0246       off_31706
 214C:027E       off_3173E
 214C:02BE       unk_3177E
 214C:02E5       unk_317A5
 214C:0300       unk_317C0
 214C:0308       aMagic_exe
 217E:0000       stru_317E0
 217E:0020       j_OVR_SaveGame_MagicSet
 217E:0025       j_ST_LoadSaveGamByNbr
 2181:0000       stru_31810
 2181:0020       sub_31830
 2181:0025       sub_31835
 2181:002A       j_hrmSetFlags
 2181:002F       j_LBX_HelpEntry_s3D9F3
 2181:0034       j_ST_MagicSet_ReadCreateWrite
 2185:0000       stru_31850
 2185:0020       sub_31870
 2185:0025       sub_31875
 2185:002A       sub_3187A
 2185:002F       sub_3187F
 2185:0034       sub_31884
 2185:0039       sub_31889
 2185:003E       sub_3188E
 2185:0043       sub_31893
 2185:0048       sub_31898
 2185:004D       sub_3189D
 2185:0052       sub_318A2
 2185:0057       sub_318A7
 2185:005C       sub_318AC
 2185:0061       j_idk_Load_NEWGAME_LBX
 2185:0066       sub_318B6
 2185:006B       j_LBX_NewGame_s41A5F
 2185:0070       sub_318C0
 2185:0075       sub_318C5
 2185:007A       sub_318CA
 2185:007F       sub_318CF
 2185:0084       sub_318D4
 2185:0089       j_LBX_HelpEntry_s433B8
 2185:008E       sub_318DE
 2185:0093       j_LBX_HelpEntry_s433EB
 2185:0098       sub_318E8
 2185:009D       j_LBX_HelpEntry_s43484
 2185:00A2       sub_318F2
 2185:00A7       sub_318F7
 2185:00AC       j_LBX_HelpEntry_s43451
 2185:00B1       sub_31901
 2185:00B6       j_LBX_HelpEntry_s4341E
 2185:00BB       j_LBX_HelpEntry_s434F6
 2185:00C0       j_LBX_HelpEntry_s434C3
 2185:00C5       sub_31915
 2185:00CA       sub_3191A
 2185:00CF       filebuf::terminate(void)
 2185:00D4       filebuf::terminate(void)
 2185:00D9       sub_31929
 2193:0000       stru_31930
 2193:0020       j_LBX_Cityname_s4B973
 2193:0025       j_idk_BuildingWorlds
 2193:002A       sub_3195A
 2193:002F       sub_3195F
 2193:0034       sub_31964
 2193:0039       sub_31969
 2193:003E       sub_3196E
 2193:0043       sub_31973
 2193:0048       sub_31978
 2193:004D       sub_3197D
 2193:0052       sub_31982
 2193:0057       sub_31987
 2193:005C       sub_3198C
 2193:0061       sub_31991
 2193:0066       sub_31996
 2193:006B       sub_3199B
 2193:0070       sub_319A0
 2193:0075       sub_319A5
 2193:007A       sub_319AA
 2193:007F       j_LBX_Terrtype_s472C7
 2193:0084       j_LBX_Terrtype_s4763F
 2193:0089       j_LBX_Terrtype_s48821
 2193:008E       sub_319BE
 2193:0093       sub_319C3
 2193:0098       sub_319C8
 2193:009D       sub_319CD
 2193:00A2       sub_319D2
 2193:00A7       sub_319D7
 2193:00AC       sub_319DC
 2193:00B1       sub_319E1
 2193:00B6       sub_319E6
 2193:00BB       sub_319EB
 2193:00C0       sub_319F0
 2193:00C5       sub_319F5
 2193:00CA       sub_319FA
 2193:00CF       sub_319FF
 2193:00D4       sub_31A04
 2193:00D9       sub_31A09
 2193:00DE       sub_31A0E
 2193:00E3       sub_31A13
 2193:00E8       sub_31A18
 2193:00ED       sub_31A1D
 2193:00F2       sub_31A22
 2193:00F7       sub_31A27
 2193:00FC       sub_31A2C
 2193:0101       sub_31A31
 2193:0106       sub_31A36
 2193:010B       sub_31A3B
 2193:0110       sub_31A40
 2193:0115       sub_31A45
 2193:011A       sub_31A4A
 2193:011F       sub_31A4F
 2193:0124       sub_31A54
 2193:0129       filebuf::terminate(void)
 21A6:0000       stru_31A60
 21A6:0020       sub_31A80
 21A9:0000       stru_31A90
 21A9:0020       sub_31AB0
 21A9:0025       sub_31AB5
 21A9:002A       sub_31ABA
 21A9:002F       sub_31ABF
 21A9:0034       sub_31AC4
 21A9:0039       sub_31AC9
 21A9:003E       sub_31ACE
 21A9:0043       sub_31AD3
 21A9:0048       sub_31AD8
 21A9:004D       j_idk_ResourceLbx
 21A9:0052       sub_31AE2
 21A9:0057       sub_31AE7
 21A9:005C       sub_31AEC
 21A9:0061       sub_31AF1
 21A9:0066       sub_31AF6
 21A9:006B       sub_31AFB
 21A9:0070       sub_31B00
 21A9:0075       sub_31B05
 21A9:007A       sub_31B0A
 21A9:007F       sub_31B0F
 21A9:0084       sub_31B14
 21A9:0089       sub_31B19
 21B2:0000       stru_31B20
 21B2:0020       sub_31B40
 21B2:0025       sub_31B45
 21B2:002A       sub_31B4A
 21B2:002F       sub_31B4F
 21B2:0034       sub_31B54
 21B6:0000       stru_31B60
 21B6:0020       sub_31B80
 21B9:0000       stru_31B90
 21B9:0020       sub_31BB0
 21B9:0025       sub_31BB5
 21B9:002A       sub_31BBA
 21B9:002F       sub_31BBF
 21B9:0034       sub_31BC4
 21B9:0039       sub_31BC9
 21B9:003E       sub_31BCE
 21B9:0043       sub_31BD3
 21B9:0048       sub_31BD8
 21B9:004D       sub_31BDD
 21B9:0052       sub_31BE2
 21B9:0057       sub_31BE7
 21B9:005C       sub_31BEC
 21B9:0061       sub_31BF1
 21B9:0066       sub_31BF6
 21B9:006B       sub_31BFB
 21B9:0070       sub_31C00
 21C1:0000       stru_31C10
 21C1:0020       j_idk_Ems_TileFigureCont_s553B0
 21C4:0000       stru_31C40
 21C4:0020       j_ST_LoadMusicSoundfxIntro
 21C4:0025       sub_31C65
 21C4:002A       sub_31C6A
 21C4:002F       sub_31C6F
 21C4:0034       sub_31C74
 21C4:0039       sub_31C79
 21C8:0000       stru_31C80
 21C8:0020       j_idk_OVR_LoadLbxHelp
 21C8:0025       filebuf::terminate(void)
 21C8:002A       sub_31CAA
 21CB:0000       stru_31CB0
 21CB:0020       sub_31CD0
 21CB:0025       j_sub_56413
 21CE:0000       stru_31CE0
 21CE:0020       j_idk_HoF_s565F2
 21CE:0025       j_s56450
 21D1:0000       LibMalloc_w31D10
 21D1:0002       LibMalloc_w31D12
 21D1:0004       LibMalloc_w31D14
 21D1:0006       LibMalloc_w31D16
 21D1:0008       LibMalloc_w31D18
 21D1:000A       byte_31D1A
 21D1:000B       byte_31D1B
 21D1:000C       word_31D1C
 21D1:000E       idk_OVR_w31D1E
 21D1:0010       word_31D20
 21D1:0012       CopyRight
 21D1:002F       NullCheck
 21D1:0048       ZeroDivMSG
 21D1:0056       abortMSG
 21D1:0074       _Int0Vector@
 21D1:0078       _Int4Vector@
 21D1:007C       _Int5Vector@
 21D1:0080       _Int6Vector@
 21D1:0084       argc
 21D1:0086       argv
 21D1:0088       envp
 21D1:008A       _envLng@
 21D1:008C       _envseg@
 21D1:008E       _envSize@
 21D1:0090       _psp@
 21D1:0092       _version@
 21D1:0093       _osminor@
 21D1:0094       errno
 21D1:0096       _StartTime@
 21D1:009A       __heapbase
 21D1:009C       __brklvl
 21D1:009E       _heapbase@
 21D1:00A2       _brklvl@
 21D1:00A6       _heaptop@
 21D1:00AA       idk_InitMod_w31DBA
 21D1:00AC       idk_OVR_dw31DBC
 21D1:00B0       word_31DC0
 21D1:00B2       word_31DC2
 21D1:00B4       word_31DC4
 21D1:00B6       word_31DC6
 21D1:00B8       OVR_FileHandle
 21D1:00BA       word_31DCA
 21D1:00BC       word_31DCC
 21D1:00C0       idk_InitMod_SI_u31DD0
 21D1:00DB       AbortMSG
 21D1:00DC       unk_31DEC
 21D1:00DF       unk_31DEF
 21D1:00E0       unk_31DF0
 21D1:00E3       unk_31DF3
 21D1:00E5       unk_31DF5
 21D1:00E7       unk_31DF7
 21D1:00E8       unk_31DF8
 21D1:00EB       unk_31DFB
 21D1:00ED       unk_31DFD
 21D1:00F0       unk_31E00
 21D1:00F1       unk_31E01
 21D1:00F6       unk_31E06
 21D1:010E       unk_31E1E
 21D1:010F       unk_31E1F
 21D1:0114       unk_31E24
 21D1:0115       unk_31E25
 21D1:011C       unk_31E2C
 21D1:011E       unk_31E2E
 21D1:0120       unk_31E30
 21D1:0126       unk_31E36
 21D1:0130       unk_31E40
 21D1:0135       unk_31E45
 21D1:0136       unk_31E46
 21D1:0138       unk_31E48
 21D1:013E       unk_31E4E
 21D1:013F       unk_31E4F
 21D1:0142       unk_31E52
 21D1:0144       unk_31E54
 21D1:0145       unk_31E55
 21D1:0147       unk_31E57
 21D1:014E       unk_31E5E
 21D1:0150       unk_31E60
 21D1:0156       unk_31E66
 21D1:015A       unk_31E6A
 21D1:0165       unk_31E75
 21D1:0166       unk_31E76
 21D1:0168       unk_31E78
 21D1:0170       unk_31E80
 21D1:0172       unk_31E82
 21D1:0177       unk_31E87
 21D1:017E       unk_31E8E
 21D1:0186       unk_31E96
 21D1:0190       unk_31EA0
 21D1:01A0       unk_31EB0
 21D1:01A2       unk_31EB2
 21D1:01AE       unk_31EBE
 21D1:01B7       unk_31EC7
 21D1:01BC       unk_31ECC
 21D1:01BE       unk_31ECE
 21D1:01BF       unk_31ECF
 21D1:01C0       unk_31ED0
 21D1:01D0       unk_31EE0
 21D1:01D2       unk_31EE2
 21D1:01D4       unk_31EE4
 21D1:01D5       unk_31EE5
 21D1:01DE       unk_31EEE
 21D1:01E7       unk_31EF7
 21D1:01EC       unk_31EFC
 21D1:01EE       unk_31EFE
 21D1:01F0       unk_31F00
 21D1:01F8       unk_31F08
 21D1:01FC       unk_31F0C
 21D1:0200       unk_31F10
 21D1:0214       unk_31F24
 21D1:0215       unk_31F25
 21D1:0217       unk_31F27
 21D1:021E       unk_31F2E
 21D1:0220       unk_31F30
 21D1:022B       unk_31F3B
 21D1:022E       unk_31F3E
 21D1:0238       unk_31F48
 21D1:023C       unk_31F4C
 21D1:0244       unk_31F54
 21D1:0245       unk_31F55
 21D1:0247       unk_31F57
 21D1:024E       unk_31F5E
 21D1:0258       idk_Dseg_RepMovSw_CX
 21D1:025E       unk_31F6E
 21D1:0268       unk_31F78
 21D1:027C       unk_31F8C
 21D1:027E       unk_31F8E
 21D1:028E       unk_31F9E
 21D1:02A0       unk_31FB0
 21D1:02BC       unk_31FCC
 21D1:02BE       unk_31FCE
 21D1:02C4       unk_31FD4
 21D1:02C5       unk_31FD5
 21D1:02CE       unk_31FDE
 21D1:02D0       unk_31FE0
 21D1:02E8       unk_31FF8
 21D1:02EC       unk_31FFC
 21D1:02EE       unk_31FFE
 21D1:02F4       unk_32004
 21D1:02F5       unk_32005
 21D1:02FE       unk_3200E
 21D1:0300       unk_32010
 21D1:0310       unk_32020
 21D1:0318       unk_32028
 21D1:032C       unk_3203C
 21D1:0334       unk_32044
 21D1:0335       unk_32045
 21D1:033E       unk_3204E
 21D1:0340       unk_32050
 21D1:0358       unk_32068
 21D1:035C       unk_3206C
 21D1:0364       unk_32074
 21D1:0365       unk_32075
 21D1:036C       unk_3207C
 21D1:036E       unk_3207E
 21D1:0388       unk_32098
 21D1:0394       unk_320A4
 21D1:0395       unk_320A5
 21D1:039C       unk_320AC
 21D1:039E       unk_320AE
 21D1:03B8       unk_320C8
 21D1:03C4       unk_320D4
 21D1:03C5       unk_320D5
 21D1:03CE       unk_320DE
 21D1:03DC       unk_320EC
 21D1:03DE       unk_320EE
 21D1:03E5       unk_320F5
 21D1:03E8       unk_320F8
 21D1:03EC       unk_320FC
 21D1:03F0       unk_32100
 21D1:040C       unk_3211C
 21D1:040E       unk_3211E
 21D1:0420       unk_32130
 21D1:042C       unk_3213C
 21D1:043C       unk_3214C
 21D1:043E       unk_3214E
 21D1:045C       unk_3216C
 21D1:046C       maybe_w3217C
 21D1:046E       maybe_w3217E
 21D1:04AC       unk_321BC
 21D1:04DC       unk_321EC
 21D1:04DF       unk_321EF
 21D1:050C       unk_3221C
 21D1:050F       unk_3221F
 21D1:051D       unk_3222D
 21D1:0520       unk_32230
 21D1:0545       unk_32255
 21D1:054C       unk_3225C
 21D1:054F       unk_3225F
 21D1:0550       unk_32260
 21D1:055C       unk_3226C
 21D1:0565       unk_32275
 21D1:057C       unk_3228C
 21D1:0580       unk_32290
 21D1:058C       unk_3229C
 21D1:0598       unk_322A8
 21D1:05AC       unk_322BC
 21D1:05CC       unk_322DC
 21D1:05DC       unk_322EC
 21D1:05DF       unk_322EF
 21D1:05E0       unk_322F0
 21D1:05EC       unk_322FC
 21D1:0610       unk_32320
 21D1:0620       unk_32330
 21D1:062F       unk_3233F
 21D1:0634       unk_32344
 21D1:063F       unk_3234F
 21D1:0640       unk_32350
 21D1:0650       unk_32360
 21D1:0676       unk_32386
 21D1:0680       unk_32390
 21D1:0689       unk_32399
 21D1:069C       unk_323AC
 21D1:06AC       unk_323BC
 21D1:06D0       unk_323E0
 21D1:06DC       unk_323EC
 21D1:06E4       unk_323F4
 21D1:0705       unk_32415
 21D1:0730       unk_32440
 21D1:0735       unk_32445
 21D1:0740       unk_32450
 21D1:075F       unk_3246F
 21D1:0768       unk_32478
 21D1:0770       unk_32480
 21D1:0775       unk_32485
 21D1:078F       unk_3249F
 21D1:07A0       unk_324B0
 21D1:07B7       unk_324C7
 21D1:07BA       unk_324CA
 21D1:07C4       unk_324D4
 21D1:07D0       unk_324E0
 21D1:07DC       unk_324EC
 21D1:07E0       unk_324F0
 21D1:07FF       unk_3250F
 21D1:0800       unk_32510
 21D1:080C       unk_3251C
 21D1:081F       unk_3252F
 21D1:0855       unk_32565
 21D1:085F       unk_3256F
 21D1:0872       unk_32582
 21D1:0886       unk_32596
 21D1:088F       unk_3259F
 21D1:089C       unk_325AC
 21D1:08DC       unk_325EC
 21D1:090C       unk_3261C
 21D1:090F       unk_3261F
 21D1:093F       unk_3264F
 21D1:097A       unk_3268A
 21D1:097F       unk_3268F
 21D1:0985       unk_32695
 21D1:098C       unk_3269C
 21D1:099D       unk_326AD
 21D1:09AF       unk_326BF
 21D1:09B5       unk_326C5
 21D1:09BC       unk_326CC
 21D1:09DF       unk_326EF
 21D1:09F2       unk_32702
 21D1:09FC       unk_3270C
 21D1:0A0F       unk_3271F
 21D1:0A2C       unk_3273C
 21D1:0A45       unk_32755
 21D1:0A5C       unk_3276C
 21D1:0A85       unk_32795
 21D1:0A8C       unk_3279C
 21D1:0AAA       unk_327BA
 21D1:0AB5       unk_327C5
 21D1:0B00       unk_32810
 21D1:0B30       unk_32840
 21D1:0B35       unk_32845
 21D1:0B65       unk_32875
 21D1:0B70       unk_32880
 21D1:0BA5       unk_328B5
 21D1:0BD5       unk_328E5
 21D1:0C05       unk_32915
 21D1:0C50       unk_32960
 21D1:0D50       unk_32A60
 21D1:0D59       unk_32A69
 21D1:0D5C       unk_32A6C
 21D1:0D78       unk_32A88
 21D1:0D80       unk_32A90
 21D1:0D89       unk_32A99
 21D1:0D90       unk_32AA0
 21D1:0DA8       unk_32AB8
 21D1:0DB0       unk_32AC0
 21D1:0DC0       unk_32AD0
 21D1:0DCA       unk_32ADA
 21D1:0DD8       unk_32AE8
 21D1:0DFA       unk_32B0A
 21D1:0E00       unk_32B10
 21D1:0E08       unk_32B18
 21D1:0E09       unk_32B19
 21D1:0E10       unk_32B20
 21D1:0E20       unk_32B30
 21D1:0E39       unk_32B49
 21D1:0E3A       unk_32B4A
 21D1:0E3E       unk_32B4E
 21D1:0E40       unk_32B50
 21D1:0E50       unk_32B60
 21D1:0E6E       unk_32B7E
 21D1:0E79       unk_32B89
 21D1:0E80       unk_32B90
 21D1:0E9A       unk_32BAA
 21D1:0EA9       unk_32BB9
 21D1:0EB0       unk_32BC0
 21D1:0ED7       unk_32BE7
 21D1:0ED9       unk_32BE9
 21D1:0EE0       unk_32BF0
 21D1:0EFE       unk_32C0E
 21D1:0F00       unk_32C10
 21D1:0F09       unk_32C19
 21D1:0F1A       unk_32C2A
 21D1:0F20       unk_32C30
 21D1:0F30       unk_32C40
 21D1:0F3E       unk_32C4E
 21D1:0F60       unk_32C70
 21D1:0F6E       unk_32C7E
 21D1:0F70       unk_32C80
 21D1:0F84       unk_32C94
 21D1:0F89       unk_32C99
 21D1:0F8A       unk_32C9A
 21D1:0F99       unk_32CA9
 21D1:0F9B       unk_32CAB
 21D1:0F9D       unk_32CAD
 21D1:0FA0       unk_32CB0
 21D1:0FA2       unk_32CB2
 21D1:0FD0       unk_32CE0
 21D1:0FEE       unk_32CFE
 21D1:0FFE       unk_32D0E
 21D1:1010       unk_32D20
 21D1:101E       unk_32D2E
 21D1:1020       unk_32D30
 21D1:1030       unk_32D40
 21D1:1040       unk_32D50
 21D1:104A       unk_32D5A
 21D1:105E       unk_32D6E
 21D1:107A       unk_32D8A
 21D1:108E       unk_32D9E
 21D1:1096       unk_32DA6
 21D1:1098       unk_32DA8
 21D1:10BE       unk_32DCE
 21D1:10C9       unk_32DD9
 21D1:10D0       unk_32DE0
 21D1:10EE       unk_32DFE
 21D1:10F1       unk_32E01
 21D1:110A       unk_32E1A
 21D1:1110       unk_32E20
 21D1:1111       unk_32E21
 21D1:1114       unk_32E24
 21D1:1140       unk_32E50
 21D1:114A       unk_32E5A
 21D1:117A       unk_32E8A
 21D1:11C0       unk_32ED0
 21D1:11F0       unk_32F00
 21D1:11FA       unk_32F0A
 21D1:1220       unk_32F30
 21D1:122A       unk_32F3A
 21D1:1230       unk_32F40
 21D1:1260       unk_32F70
 21D1:126A       unk_32F7A
 21D1:1290       unk_32FA0
 21D1:129A       unk_32FAA
 21D1:12A4       unk_32FB4
 21D1:12C0       unk_32FD0
 21D1:12CA       unk_32FDA
 21D1:12D4       unk_32FE4
 21D1:1314       unk_33024
 21D1:136E       unk_3307E
 21D1:13BD       unk_330CD
 21D1:13E8       unk_330F8
 21D1:13F2       unk_33102
 21D1:13F3       unk_33103
 21D1:13F4       unk_33104
 21D1:13F8       unk_33108
 21D1:13FB       unk_3310B
 21D1:1420       unk_33130
 21D1:1470       unk_33180
 21D1:150F       unk_3321F
 21D1:1524       unk_33234
 21D1:1534       unk_33244
 21D1:1554       unk_33264
 21D1:15E4       unk_332F4
 21D1:1620       unk_33330
 21D1:1624       unk_33334
 21D1:1654       unk_33364
 21D1:165F       unk_3336F
 21D1:166A       unk_3337A
 21D1:1696       unk_333A6
 21D1:1699       unk_333A9
 21D1:16C3       unk_333D3
 21D1:16CA       unk_333DA
 21D1:16D0       unk_333E0
 21D1:16D4       unk_333E4
 21D1:16DA       unk_333EA
 21D1:16DD       unk_333ED
 21D1:1704       unk_33414
 21D1:170D       unk_3341D
 21D1:1710       unk_33420
 21D1:171F       unk_3342F
 21D1:1720       unk_33430
 21D1:1732       unk_33442
 21D1:1744       unk_33454
 21D1:1749       unk_33459
 21D1:174D       unk_3345D
 21D1:174E       unk_3345E
 21D1:1751       unk_33461
 21D1:1774       unk_33484
 21D1:1780       unk_33490
 21D1:1792       unk_334A2
 21D1:1793       unk_334A3
 21D1:1796       unk_334A6
 21D1:17A4       unk_334B4
 21D1:17C1       unk_334D1
 21D1:17C2       unk_334D2
 21D1:17D4       unk_334E4
 21D1:180C       unk_3351C
 21D1:181E       unk_3352E
 21D1:1820       unk_33530
 21D1:1827       unk_33537
 21D1:182D       unk_3353D
 21D1:183C       byte_3354C
 21D1:189A       unk_335AA
 21D1:18A0       unk_335B0
 21D1:18D4       unk_335E4
 21D1:18EC       unk_335FC
 21D1:1906       unk_33616
 21D1:191C       unk_3362C
 21D1:1920       unk_33630
 21D1:1940       unk_33650
 21D1:195D       unk_3366D
 21D1:198D       unk_3369D
 21D1:1A1D       unk_3372D
 21D1:1A20       unk_33730
 21D1:1A30       unk_33740
 21D1:1A40       unk_33750
 21D1:1A5D       unk_3376D
 21D1:1A60       unk_33770
 21D1:1A8D       unk_3379D
 21D1:1AA0       unk_337B0
 21D1:1AD8       maybe_337E8
 21D1:1B0D       unk_3381D
 21D1:1B2B       unk_3383B
 21D1:1B3D       unk_3384D
 21D1:1B40       unk_33850
 21D1:1B47       unk_33857
 21D1:1B77       unk_33887
 21D1:1B7D       unk_3388D
 21D1:1B80       unk_33890
 21D1:1BAD       unk_338BD
 21D1:1BB7       unk_338C7
 21D1:1BDD       unk_338ED
 21D1:1C04       unk_33914
 21D1:1C09       unk_33919
 21D1:1C0D       unk_3391D
 21D1:1C11       unk_33921
 21D1:1C3D       unk_3394D
 21D1:1C40       unk_33950
 21D1:1C42       unk_33952
 21D1:1C4F       unk_3395F
 21D1:1C63       unk_33973
 21D1:1C66       unk_33976
 21D1:1C8F       unk_3399F
 21D1:1C97       unk_339A7
 21D1:1CB0       unk_339C0
 21D1:1CBB       unk_339CB
 21D1:1CE0       unk_339F0
 21D1:1CE3       unk_339F3
 21D1:1D30       unk_33A40
 21D1:1D70       unk_33A80
 21D1:1DAC       unk_33ABC
 21D1:1DB0       unk_33AC0
 21D1:1DC7       unk_33AD7
 21D1:1DE0       unk_33AF0
 21D1:1DE6       word_33AF6
 21D1:1DE8       word_33AF8
 21D1:1DEA       word_33AFA
 21D1:1DF7       unk_33B07
 21D1:1E1D       unk_33B2D
 21D1:1E45       unk_33B55
 21D1:1E60       unk_33B70
 21D1:1E65       unk_33B75
 21D1:1E87       unk_33B97
 21D1:1E90       unk_33BA0
 21D1:1E98       unk_33BA8
 21D1:1EA9       unk_33BB9
 21D1:1EAA       unk_33BBA
 21D1:1EB9       unk_33BC9
 21D1:1EBB       unk_33BCB
 21D1:1EBD       unk_33BCD
 21D1:1EC2       unk_33BD2
 21D1:1EC7       unk_33BD7
 21D1:1ED0       unk_33BE0
 21D1:1EDF       unk_33BEF
 21D1:1EEC       unk_33BFC
 21D1:1EF7       unk_33C07
 21D1:1F00       unk_33C10
 21D1:1F1E       unk_33C2E
 21D1:1F30       unk_33C40
 21D1:1F3F       unk_33C4F
 21D1:1F40       unk_33C50
 21D1:1F54       unk_33C64
 21D1:1F60       word_33C70
 21D1:1F9C       unk_33CAC
 21D1:1FA7       unk_33CB7
 21D1:1FAF       unk_33CBF
 21D1:1FB6       unk_33CC6
 21D1:1FB8       unk_33CC8
 21D1:1FBA       unk_33CCA
 21D1:1FCB       unk_33CDB
 21D1:1FDC       unk_33CEC
 21D1:1FE4       unk_33CF4
 21D1:1FE6       unk_33CF6
 21D1:1FE7       unk_33CF7
 21D1:1FE9       unk_33CF9
 21D1:2011       unk_33D21
 21D1:2013       unk_33D23
 21D1:2017       unk_33D27
 21D1:201A       unk_33D2A
 21D1:201C       unk_33D2C
 21D1:201F       unk_33D2F
 21D1:2020       unk_33D30
 21D1:2021       unk_33D31
 21D1:2026       unk_33D36
 21D1:202A       unk_33D3A
 21D1:2031       unk_33D41
 21D1:2034       unk_33D44
 21D1:2044       unk_33D54
 21D1:2045       unk_33D55
 21D1:2047       unk_33D57
 21D1:204E       unk_33D5E
 21D1:205E       unk_33D6E
 21D1:2068       unk_33D78
 21D1:206C       word_33D7C
 21D1:206E       word_33D7E
 21D1:2070       stru_33D80
 21D1:2099       stru_33DA9
 21D1:2207       stru_33F17
 21D1:2337       stru_34047
 21D1:26B5       stru_343C5
 21D1:2712       stru_34422
 21D1:2734       stru_34444
 21D1:27FF       strCONFIG_MOM
 21D1:280A       strRunInstall
 21D1:2836       strRBr1
 21D1:2839       strInitRoland
 21D1:2859       strSAVE
 21D1:285E       strGAM
 21D1:2863       strMAGIC_SETr1
 21D1:286D       strWBr1
 21D1:2870       strFONTSLBXr1
 21D1:287A       strMUSIC
 21D1:2880       strThankYou
 21D1:28A7       strMAINSCRN
 21D1:28B0       strVORTEX
 21D1:28B7       strWIZARDS
 21D1:28BF       strSPELLDAT
 21D1:28C8       strC
 21D1:28CA       strL
 21D1:28CC       strH
 21D1:28CE       strQ
 21D1:28D0       strESC
 21D1:28D2       strTERRSTAT
 21D1:28DB       strHLPENTRY
 21D1:28E4       strSAVEGAMr2_1
 21D1:28E9       strSAVEGAMr2_2
 21D1:28EE       strWBr2
 21D1:28F1       strMAGIC_SETr2
 21D1:28FB       strRBr2
 21D1:290A       word_3461A
 21D1:290C       a5
 21D1:290E       a@
 21D1:2910       aK
 21D1:2912       aF
 21D1:2914       aQ
 21D1:2918       aZ
 21D1:291A       aS
 21D1:291C       aT
 21D1:291E       aA
 21D1:2920       aZ_0
 21D1:2922       aG
 21D1:2924       aO
 21D1:2926       word_34636
 21D1:2928       word_34638
 21D1:292A       strLOAD_LBX
 21D1:2933       strMAGIC_SETr3
 21D1:293D       strRBr3
 21D1:2944       strWBr3
 21D1:2947       aSoundEffects
 21D1:2955       aBackgroundMusic
 21D1:2966       aEventMusic
 21D1:2972       aCitySpellEvent
 21D1:2984       aOverlandSpellE
 21D1:299A       aSummoningEvent
 21D1:29AB       aEndOfTurnSumma
 21D1:29BF       aRazeCity
 21D1:29C9       aRandomEvents
 21D1:29D7       aEndOfTurnWait
 21D1:29E8       aStrategicComba
 21D1:29FE       aAutoUnitInform
 21D1:2A14       aMovementAnimat
 21D1:2A28       aEnemyMoves
 21D1:2A34       aEnemySpells
 21D1:2A41       aSpellBookOrder
 21D1:2A55       aSpellAnimation
 21D1:2A66       aShowNodeOwners
 21D1:2A77       aExpandingHelp
 21D1:2A86       aSoundAndMusic
 21D1:2A96       aMessages
 21D1:2A9F       aCombat
 21D1:2AA6       aDisplay
 21D1:2AAE       aHlpentry_lbx
 21D1:2ABC       unk_347CC
 21D1:2AC4       a?_0
 21D1:2AC8       unk_347D8
 21D1:2AD0       aMerlin
 21D1:2AE6       aRaven
 21D1:2AFC       aSharee
 21D1:2B12       aLoPan
 21D1:2B19       unk_34829
 21D1:2B1A       unk_3482A
 21D1:2B20       unk_34830
 21D1:2B24       unk_34834
 21D1:2B28       aJafar
 21D1:2B31       unk_34841
 21D1:2B32       unk_34842
 21D1:2B3E       aOberic
 21D1:2B49       unk_34859
 21D1:2B4A       unk_3485A
 21D1:2B54       aRjak
 21D1:2B59       unk_34869
 21D1:2B5B       unk_3486B
 21D1:2B5D       unk_3486D
 21D1:2B60       unk_34870
 21D1:2B62       unk_34872
 21D1:2B6A       aSssRa
 21D1:2B7C       word_3488C
 21D1:2B7E       word_3488E
 21D1:2B80       aTauron
 21D1:2B89       unk_34899
 21D1:2B8A       unk_3489A
 21D1:2B8E       unk_3489E
 21D1:2B96       aFreya
 21D1:2B9D       unk_348AD
 21D1:2BA2       unk_348B2
 21D1:2BAC       aHorus
 21D1:2BBE       unk_348CE
 21D1:2BC2       aAriel
 21D1:2BD8       aTlaloc
 21D1:2BEE       aKali
 21D1:2BFE       unk_3490E
 21D1:2C03       unk_34913
 21D1:2C04       aCustom
 21D1:2C26       unk_34936
 21D1:2C28       unk_34938
 21D1:2C56       unk_34966
 21D1:2C58       unk_34968
 21D1:2C59       unk_34969
 21D1:2C69       unk_34979
 21D1:2C6A       unk_3497A
 21D1:2C6E       unk_3497E
 21D1:2C79       unk_34989
 21D1:2C7B       unk_3498B
 21D1:2C7D       unk_3498D
 21D1:2C81       unk_34991
 21D1:2C82       word_34992
 21D1:2C84       a1
 21D1:2C9C       word_349AC
 21D1:2CA1       unk_349B1
 21D1:2CA4       unk_349B4
 21D1:2CB1       unk_349C1
 21D1:2CB6       word_349C6
 21D1:2CC9       unk_349D9
 21D1:2CCC       unk_349DC
 21D1:2CD0       word_349E0
 21D1:2CD4       unk_349E4
 21D1:2CDE       unk_349EE
 21D1:2CE0       unk_349F0
 21D1:2CE8       unk_349F8
 21D1:2CEA       word_349FA
 21D1:2CF1       unk_34A01
 21D1:2CF2       unk_34A02
 21D1:2CF3       unk_34A03
 21D1:2CF8       unk_34A08
 21D1:2CFB       unk_34A0B
 21D1:2D11       unk_34A21
 21D1:2D14       unk_34A24
 21D1:2D20       unk_34A30
 21D1:2D3D       unk_34A4D
 21D1:2D65       unk_34A75
 21D1:2D76       unk_34A86
 21D1:2D78       unk_34A88
 21D1:2D85       unk_34A95
 21D1:2D98       unk_34AA8
 21D1:2D99       unk_34AA9
 21D1:2D9A       unk_34AAA
 21D1:2DA9       unk_34AB9
 21D1:2DAB       unk_34ABB
 21D1:2DAD       unk_34ABD
 21D1:2DB2       unk_34AC2
 21D1:2DB8       unk_34AC8
 21D1:2DC9       unk_34AD9
 21D1:2DCA       unk_34ADA
 21D1:2DD1       unk_34AE1
 21D1:2DD9       unk_34AE9
 21D1:2DDB       unk_34AEB
 21D1:2DDD       unk_34AED
 21D1:2DE2       unk_34AF2
 21D1:2DF1       unk_34B01
 21D1:2DF4       unk_34B04
 21D1:2DFF       unk_34B0F
 21D1:2E0C       word_34B1C
 21D1:2E0E       word_34B1E
 21D1:2E10       word_34B20
 21D1:2E12       word_34B22
 21D1:2E14       word_34B24
 21D1:2E16       word_34B26
 21D1:2E18       word_34B28
 21D1:2E1A       word_34B2A
 21D1:2E1C       aIntro
 21D1:2E27       aEasy
 21D1:2E32       aNormal
 21D1:2E3D       aHard
 21D1:2E48       aImpossible
 21D1:2E53       aSmall
 21D1:2E59       unk_34B69
 21D1:2E5A       aMedium
 21D1:2E61       aLarge
 21D1:2E68       aWeak
 21D1:2E6D       unk_34B7D
 21D1:2E71       aNormal_0
 21D1:2E7A       aPowerful
 21D1:2E83       aOne
 21D1:2E8B       aTwo
 21D1:2E93       aThree
 21D1:2E99       unk_34BA9
 21D1:2E9A       unk_34BAA
 21D1:2E9B       aFour
 21D1:2EA6       unk_34BB6
 21D1:2EA8       unk_34BB8
 21D1:2EA9       unk_34BB9
 21D1:2EAB       unk_34BBB
 21D1:2EAD       unk_34BBD
 21D1:2EB2       unk_34BC2
 21D1:2EB3       word_34BC3
 21D1:2EB5       unk_34BC5
 21D1:2EBC       unk_34BCC
 21D1:2EBD       unk_34BCD
 21D1:2EC9       unk_34BD9
 21D1:2ECA       unk_34BDA
 21D1:2ECE       unk_34BDE
 21D1:2ED6       unk_34BE6
 21D1:2ED8       unk_34BE8
 21D1:2ED9       unk_34BE9
 21D1:2EDB       unk_34BEB
 21D1:2EDD       unk_34BED
 21D1:2EE2       unk_34BF2
 21D1:2EEB       unk_34BFB
 21D1:2EFC       word_34C0C
 21D1:2EFE       word_34C0E
 21D1:2F00       word_34C10
 21D1:2F04       unk_34C14
 21D1:2F09       unk_34C19
 21D1:2F0E       unk_34C1E
 21D1:2F20       unk_34C30
 21D1:2F21       unk_34C31
 21D1:2F24       unk_34C34
 21D1:2F2D       word_34C3D
 21D1:2F2F       word_34C3F
 21D1:2F31       word_34C41
 21D1:2F33       word_34C43
 21D1:2F35       word_34C45
 21D1:2F37       word_34C47
 21D1:2F39       word_34C49
 21D1:2F3C       unk_34C4C
 21D1:2F3E       unk_34C4E
 21D1:2F3F       unk_34C4F
 21D1:2F40       unk_34C50
 21D1:2F41       unk_34C51
 21D1:2F46       unk_34C56
 21D1:2F48       aLife
 21D1:2F51       unk_34C61
 21D1:2F52       aDeath_0
 21D1:2F59       unk_34C69
 21D1:2F5B       unk_34C6B
 21D1:2F5C       aChaos_0
 21D1:2F62       unk_34C72
 21D1:2F64       unk_34C74
 21D1:2F66       aNature_0
 21D1:2F70       aSorcery_0
 21D1:2F79       unk_34C89
 21D1:2F7A       unk_34C8A
 21D1:2F88       unk_34C98
 21D1:2F89       unk_34C99
 21D1:2F8B       unk_34C9B
 21D1:2F8D       unk_34C9D
 21D1:2F92       unk_34CA2
 21D1:2F98       word_34CA8
 21D1:2F9A       word_34CAA
 21D1:2F9C       word_34CAC
 21D1:2F9E       word_34CAE
 21D1:2FA6       unk_34CB6
 21D1:2FA8       unk_34CB8
 21D1:2FB7       unk_34CC7
 21D1:2FB9       unk_34CC9
 21D1:2FBA       unk_34CCA
 21D1:2FBE       unk_34CCE
 21D1:2FC1       unk_34CD1
 21D1:2FC9       unk_34CD9
 21D1:2FCA       unk_34CDA
 21D1:2FCB       unk_34CDB
 21D1:2FCD       unk_34CDD
 21D1:2FD2       unk_34CE2
 21D1:2FD6       unk_34CE6
 21D1:2FD7       unk_34CE7
 21D1:2FD8       unk_34CE8
 21D1:2FD9       unk_34CE9
 21D1:2FDA       unk_34CEA
 21D1:2FDE       word_34CEE
 21D1:2FE0       word_34CF0
 21D1:2FE2       word_34CF2
 21D1:2FE4       aCommon
 21D1:2FEE       aUncommon
 21D1:2FF8       aRare
 21D1:2FFD       unk_34D0D
 21D1:3000       unk_34D10
 21D1:3001       unk_34D11
 21D1:3002       aVeryRare
 21D1:300C       aNature_1
 21D1:3016       aSorcery_1
 21D1:3020       aChaos_1
 21D1:3029       unk_34D39
 21D1:302A       aLife_0
 21D1:3030       unk_34D40
 21D1:3031       unk_34D41
 21D1:3032       unk_34D42
 21D1:3034       aDeath_1
 21D1:303E       strWIZARDSEXE
 21D1:304A       arg0
 21D1:3050       strLOADLBXr2
 21D1:3059       asc_34D69
 21D1:305D       strSAVEGAMr3_1
 21D1:3062       strSAVEGAMr3_2
 21D1:3067       strSimTexCopyright
 21D1:3090       strNEWGAMELBX
 21D1:309C       strMAGICSETr4
 21D1:30A6       strRBr4
 21D1:30A9       strWBr4
 21D1:30AC       aSelectWizard
 21D1:30BA       aSelectPicture
 21D1:30C9       a__0
 21D1:30CB       aWizardSName
 21D1:30D9       aSelectBanner
 21D1:30E7       aYouCanNotSelec
 21D1:312C       aSelectRace
 21D1:3138       aArcanianRaces
 21D1:3148       aMyrranRaces
 21D1:3156       aYouNeedToMakeA
 21D1:318E       aYouMayNotSelec
 21D1:31BF       aToSelect
 21D1:31CA       aYouNeed
 21D1:31D8       aPicksIn
 21D1:31E3       aMagic
 21D1:31EA       aPick
 21D1:31F0       aSInAny
 21D1:31FA       aRealmsOfMagic
 21D1:320B       aRealmOfMagic
 21D1:321A       aComma
 21D1:321D       aPickIn
 21D1:3227       aYouCanNotSel_0
 21D1:3254       aYouHaveAlready
 21D1:3279       aYouDonTHaveEno
 21D1:32C3       aHlpentry_lbx_0
 21D1:32D0       aYouHaveNoPicks
 21D1:331A       aSelect
 21D1:3322       aSpells
 21D1:332D       aAnd
 21D1:3340       unk_35050
 21D1:3351       unk_35061
 21D1:3352       unk_35062
 21D1:3356       unk_35066
 21D1:3364       unk_35074
 21D1:3380       aJ4u4b4v
 21D1:3388       aV_0
 21D1:338A       aV_1
 21D1:338C       aV_2
 21D1:3396       asc_350A6
 21D1:33A2       aS_0
 21D1:33AE       aA_0
 21D1:33B0       aU
 21D1:33B2       aQ_0
 21D1:33B4       aA_1
 21D1:33BA       aI
 21D1:33C1       unk_350D1
 21D1:33C2       unk_350D2
 21D1:33DE       unk_350EE
 21D1:33E0       unk_350F0
 21D1:3406       strBUILDDAT
 21D1:340F       aBuildingTheWorlds
 21D1:3426       aTower
 21D1:342C       aChaosNode
 21D1:3437       aNatureNode
 21D1:3443       aSorceryNode
 21D1:3450       aMysteriousCave
 21D1:3460       aDungeon
 21D1:3468       aAncientTemple
 21D1:3477       aAbandonedKeep
 21D1:3486       aMonsterLair
 21D1:3493       aAncientRuins
 21D1:34A1       aFallenTemple
 21D1:34AF       strTERRTYPE
 21D1:34B8       strCITYNAME
 21D1:34D0       unk_351E0
 21D1:34D3       unk_351E3
 21D1:34D6       unk_351E6
 21D1:34E2       word_351F2
 21D1:34E4       word_351F4
 21D1:34E6       word_351F6
 21D1:34FE       unk_3520E
 21D1:3500       unk_35210
 21D1:352B       unk_3523B
 21D1:352E       word_3523E
 21D1:3530       strRESOURCE
 21D1:3539       strYES
 21D1:353B       strNO
 21D1:3553       unk_35263
 21D1:358F       unk_3529F
 21D1:3590       unk_352A0
 21D1:35A6       unk_352B6
 21D1:35C0       unk_352D0
 21D1:35D0       unk_352E0
 21D1:35D1       unk_352E1
 21D1:35D2       unk_352E2
 21D1:35D6       unk_352E6
 21D1:3600       unk_35310
 21D1:3601       unk_35311
 21D1:3602       unk_35312
 21D1:361C       unk_3532C
 21D1:362E       unk_3533E
 21D1:3630       unk_35340
 21D1:3640       unk_35350
 21D1:3650       unk_35360
 21D1:365E       unk_3536E
 21D1:3660       unk_35370
 21D1:3666       unk_35376
 21D1:368D       unk_3539D
 21D1:3690       unk_353A0
 21D1:3691       unk_353A1
 21D1:3692       unk_353A2
 21D1:36A6       unk_353B6
 21D1:36B5       unk_353C5
 21D1:36BB       unk_353CB
 21D1:36C0       unk_353D0
 21D1:36D0       unk_353E0
 21D1:36D1       unk_353E1
 21D1:36D2       unk_353E2
 21D1:36D5       unk_353E5
 21D1:36D6       unk_353E6
 21D1:36EB       unk_353FB
 21D1:36EE       unk_353FE
 21D1:36F0       unk_35400
 21D1:3700       unk_35410
 21D1:3701       unk_35411
 21D1:3702       unk_35412
 21D1:3708       unk_35418
 21D1:3720       unk_35430
 21D1:372B       unk_3543B
 21D1:372E       unk_3543E
 21D1:3730       unk_35440
 21D1:3740       unk_35450
 21D1:374F       unk_3545F
 21D1:3756       unk_35466
 21D1:375C       unk_3546C
 21D1:375E       unk_3546E
 21D1:3760       unk_35470
 21D1:3770       unk_35480
 21D1:3781       unk_35491
 21D1:3782       unk_35492
 21D1:3786       unk_35496
 21D1:3794       unk_354A4
 21D1:3799       unk_354A9
 21D1:37A1       unk_354B1
 21D1:37AF       unk_354BF
 21D1:37B0       unk_354C0
 21D1:37B1       unk_354C1
 21D1:37B2       unk_354C2
 21D1:37C4       unk_354D4
 21D1:37C6       unk_354D6
 21D1:37C9       unk_354D9
 21D1:37CD       unk_354DD
 21D1:37D0       unk_354E0
 21D1:37D1       unk_354E1
 21D1:37D2       unk_354E2
 21D1:37DE       unk_354EE
 21D1:37DF       unk_354EF
 21D1:37E0       unk_354F0
 21D1:37E6       unk_354F6
 21D1:37F1       unk_35501
 21D1:37F2       unk_35502
 21D1:37F3       unk_35503
 21D1:37F6       unk_35506
 21D1:37FD       unk_3550D
 21D1:3800       unk_35510
 21D1:3802       unk_35512
 21D1:3804       unk_35514
 21D1:3809       unk_35519
 21D1:380B       unk_3551B
 21D1:380C       unk_3551C
 21D1:380E       unk_3551E
 21D1:380F       unk_3551F
 21D1:3810       unk_35520
 21D1:3811       unk_35521
 21D1:3821       unk_35531
 21D1:3822       unk_35532
 21D1:383B       unk_3554B
 21D1:3840       unk_35550
 21D1:3846       strFIGUREX
 21D1:384E       strTILEXXX
 21D1:3856       strCONTXXX
 21D1:385E       word_3556E
 21D1:3873       unk_35583
 21D1:3878       strMUSICLBX
 21D1:3882       strSOUNDFXLBX
 21D1:388E       asc_3559E
 21D1:3890       strINTROLBX
 21D1:389A       strSimTexCopyrightr2
 21D1:38CE       aHelp
 21D1:38D3       aHelp_0
 21D1:38D8       word_355E8
 21D1:38DA       word_355EA
 21D1:38DC       word_355EC
 21D1:38DE       unk_355EE
 21D1:38E0       unk_355F0
 21D1:38E3       unk_355F3
 21D1:3910       unk_35620
 21D1:3927       unk_35637
 21D1:392A       unk_3563A
 21D1:3934       unk_35644
 21D1:393B       unk_3564B
 21D1:393C       unk_3564C
 21D1:3944       unk_35654
 21D1:3945       unk_35655
 21D1:394C       unk_3565C
 21D1:394E       unk_3565E
 21D1:3950       unk_35660
 21D1:396B       unk_3567B
 21D1:396C       unk_3567C
 21D1:397C       unk_3568C
 21D1:3980       unk_35690
 21D1:398D       unk_3569D
 21D1:399B       unk_356AB
 21D1:399E       aGameDesigner
 21D1:39AC       aSteveBarcia
 21D1:39B9       aProgrammers
 21D1:39C5       aJimCowlishaw
 21D1:39D3       aKenBurd
 21D1:39DC       aGrisselBarcia
 21D1:39EB       aProducer
 21D1:39F4       aDougCaspianKaufman
 21D1:3A09       aArtDirector
 21D1:3A16       aJeffDee
 21D1:3A1F       aArtists
 21D1:3A27       aShellyHollen
 21D1:3A35       aAmandaDee
 21D1:3A40       aSteveAustin
 21D1:3A4D       aGeorgePurdy
 21D1:3A5A       aPatrickOwens
 21D1:3A68       aMusicProducer
 21D1:3A77       aTheFatMan
 21D1:3A83       aComposer
 21D1:3A8C       aDaveGovett
 21D1:3A98       aQaLead
 21D1:3AA0       aDestinStrader
 21D1:3AAF       aPlayTest
 21D1:3AB9       aMikeBalogh
 21D1:3AC5       aDamonHarris
 21D1:3AD2       aGeoffGessner
 21D1:3AE0       aTammyTalbott
 21D1:3AEE       aMickUhl
 21D1:3AF7       aJimHendry
 21D1:3B02       aFrankBrown
 21D1:3B0E       aJimTricario
 21D1:3B1B       aJenMaclean
 21D1:3B27       aBrianWilson
 21D1:3B34       aBrianHelleson
 21D1:3B43       aJeffDinger
 21D1:3B4F       aChrisBowling
 21D1:3B5D       aCharlesBrubaker
 21D1:3B6E       aTomHughes
 21D1:3B79       aSoundEffects_0
 21D1:3B87       aMidian
 21D1:3B8E       aSpeech
 21D1:3B95       aMarkReis
 21D1:3B9F       aPeterWoods
 21D1:3BAB       aDavidEllis
 21D1:3BB7       aManual
 21D1:3BBE       aPetraSchlunk
 21D1:3BCC       aSpecialThanks
 21D1:3BDB       aJennyCowlishaw
 21D1:3BEB       a_
 21D1:3BEE       unk_358FE
 21D1:3BF3       unk_35903
 21D1:3BF8       unk_35908
 21D1:3BFB       unk_3590B
 21D1:3BFD       unk_3590D
 21D1:3C08       unk_35918
 21D1:3C0A       aBarbarians
 21D1:3C15       aBeastmen_0
 21D1:3C1E       aDarkElves
 21D1:3C29       aDraconians
 21D1:3C34       aDwarves
 21D1:3C3C       aGnolls
 21D1:3C43       aHalflings
 21D1:3C4D       aHighElves
 21D1:3C58       aHighMen_0
 21D1:3C61       aKlackons
 21D1:3C6A       aLizardmen
 21D1:3C74       aNomads
 21D1:3C7B       aOrcs
 21D1:3C80       aTrolls
 21D1:3C87       aHalofam
 21D1:3C8F       asc_3599F
 21D1:3C91       asc_359A1
 21D1:3C93       aHall
 21D1:3C98       aOf_0
 21D1:3C9B       aFame
 21D1:3CA0       aMaster
 21D1:3CA7       asc_359B7
 21D1:3CA9       aOfThe
 21D1:3CB2       asc_359C2
 21D1:3CB4       asc_359C4
 21D1:3CB7       unk_359C7
 21D1:3CB8       bios_time_lw
 21D1:3CBA       bios_time_hw
 21D1:3CBC       idk_bios_time_w359CC
 21D1:3CBE       offOldInt24ErrorHandler
 21D1:3CC0       segOldInt24ErrorHandler
 21D1:3CC2       ptrWorstFreeKb
 21D1:3CC4       aData
 21D1:3CC9       aFree
 21D1:3CD1       aBytesMemory
 21D1:3CE1       aKWorst
 21D1:3CEB       aKEmm
 21D1:3CF5       aBlocks
 21D1:3CFD       aErrorGameFile
 21D1:3D0F       aCouldNotBeFoun
 21D1:3D23       strRBr5
 21D1:3D26       strCRLF20
 21D1:3D4F       unk_35A5F
 21D1:3D50       unk_35A60
 21D1:3D54       idk_OVL_w35A64
 21D1:3D56       aNearAllocation
 21D1:3D74       argDst
 21D1:3D7B       strInsfMem1
 21D1:3DA3       strInsfMem2
 21D1:3DC3       aDynamicAllocat
 21D1:3DF5       aOf
 21D1:3DFA       aBlocks_0
 21D1:3E02       aFailedToReload
 21D1:3E13       aAllocate_next_
 21D1:3E2A       aShortBy
 21D1:3E36       aAllocationSpac
 21D1:3E5E       aEmm
 21D1:3E66       LBX_FLAG_NoMalloc
 21D1:3E68       g_CurrentLbxFileHandle
 21D1:3E6A       LBX_Flag_w35B7A
 21D1:3E6C       g_LbxDirectoryPath
 21D1:3E75       unk_35B85
 21D1:3E78       unk_35B88
 21D1:3E7A       unk_35B8A
 21D1:3E7D       unk_35B8D
 21D1:3E7F       unk_35B8F
 21D1:3E80       unk_35B90
 21D1:3E82       unk_35B92
 21D1:3E86       unk_35B96
 21D1:3E88       unk_35B98
 21D1:3E95       unk_35BA5
 21D1:3E9B       unk_35BAB
 21D1:3E9D       unk_35BAD
 21D1:3E9E       strLBXext
 21D1:3EA3       strLbxEntryPrefix
 21D1:3EB0       strLbxEntrySuffix
 21D1:3EB3       strNotFound
 21D1:3EC8       strCorrupted
 21D1:3EDD       strInsuffMem
 21D1:3F05       strKFree
 21D1:3F25       strNotAllocated
 21D1:3F58       strAllocationTooSmall
 21D1:3F84       strPages
 21D1:3F8B       strNotAnLbx
 21D1:3F9F       strExceedsCount
 21D1:3FBE       strIncorrectSize
 21D1:3FDC       strExceedsRecords
 21D1:3FFF       strCannotBeReloaded
 21D1:4036       strInsuffEMM
 21D1:405C       strOnlyPictures
 21D1:408B       strReservedEmm
 21D1:409C       strLbxTo
 21D1:40A4       strVgaAnimFrameTooBig
 21D1:40DA       strR
 21D1:40DC       strRB
 21D1:40DF       strW
 21D1:40E1       strWBr5
 21D1:40E4       EMM_PageFrameSegmentAddress
 21D1:40E6       emm_name
 21D1:40EF       word_35DFF
 21D1:40F3       word_35E03
 21D1:40F7       word_35E07
 21D1:40FB       word_35E0B
 21D1:40FD       unk_35E0D
 21D1:4100       ST_HeapBase
 21D1:4102       hrmEmmPageCount
 21D1:4104       strYOMOMAr1
 21D1:410C       strYOMOMAr2
 21D1:4116       strVGAFILEH
 21D1:411F       strEMMDATAH
 21D1:4128       strDotLBX
 21D1:412D       aEmmReservedExceededBy
 21D1:4147       aBlocks_1
 21D1:4151       a_lbx
 21D1:4157       aReloadedIntoEmmDiffSi
 21D1:4177       a2spaces
 21D1:417A       aEmm2long
 21D1:4184       strYouMustHaveAtLeast
 21D1:419C       strKofExpandedMemory_
 21D1:41B2       idk_ScrnPosX0_w35EC2
 21D1:41B4       idk_ScrnPosY0_w35EC4
 21D1:41B6       idk_ScrnPosX319_w35EC6
 21D1:41B8       idk_ScrnPosY199_w35EC8
 21D1:41BA       strFONTSLBXr2
 21D1:41C4       g_ptrVideoRamBuffer
 21D1:41C6       idk_VGA_w35ED6
 21D1:41CC       unk_35EDC
 21D1:41D0       unk_35EE0
 21D1:41D6       unk_35EE6
 21D1:41D8       unk_35EE8
 21D1:41DD       unk_35EED
 21D1:41DF       unk_35EEF
 21D1:41E0       unk_35EF0
 21D1:41E6       unk_35EF6
 21D1:4202       unk_35F12
 21D1:4206       unk_35F16
 21D1:4210       unk_35F20
 21D1:4216       unk_35F26
 21D1:4232       unk_35F42
 21D1:423A       unk_35F4A
 21D1:4240       unk_35F50
 21D1:4246       unk_35F56
 21D1:4250       unk_35F60
 21D1:4258       unk_35F68
 21D1:425D       unk_35F6D
 21D1:425F       unk_35F6F
 21D1:4266       unk_35F76
 21D1:426A       unk_35F7A
 21D1:4280       unk_35F90
 21D1:4286       unk_35F96
 21D1:4288       unk_35F98
 21D1:428D       unk_35F9D
 21D1:428F       unk_35F9F
 21D1:4296       unk_35FA6
 21D1:42AA       unk_35FBA
 21D1:42B0       unk_35FC0
 21D1:42B2       unk_35FC2
 21D1:42B6       unk_35FC6
 21D1:42C0       unk_35FD0
 21D1:42C8       unk_35FD8
 21D1:42CD       unk_35FDD
 21D1:42CF       unk_35FDF
 21D1:42D6       unk_35FE6
 21D1:42DA       unk_35FEA
 21D1:42E0       unk_35FF0
 21D1:42E2       unk_35FF2
 21D1:42F0       unk_36000
 21D1:42F6       unk_36006
 21D1:42F8       unk_36008
 21D1:42FD       unk_3600D
 21D1:42FF       unk_3600F
 21D1:4300       unk_36010
 21D1:4306       unk_36016
 21D1:430A       unk_3601A
 21D1:4314       word_36024
 21D1:4316       idk_Flag_w36026
 21D1:4318       word_36028
 21D1:431A       word_3602A
 21D1:431C       idk_PalNbr__w3602C
 21D1:431E       idk_RND_w3602E
 21D1:4320       idk_RND_w36030
 21D1:4322       word_36032
 21D1:4326       word_36036
 21D1:4328       word_36038
 21D1:4330       word_36040
 21D1:4332       word_36042
 21D1:4334       word_36044
 21D1:4336       word_36046
 21D1:4338       word_36048
 21D1:433A       arg0_PrintString
 21D1:4345       aNo_help
 21D1:434E       FLAG_DebugMode
 21D1:4350       strSCRDMP00FLI
 21D1:435D       a0
 21D1:435F       strSCRDMP
 21D1:4366       strWB_SCRNDMP
 21D1:436C       unk_3607C
 21D1:4372       unk_36082
 21D1:4376       unk_36086
 21D1:4386       unk_36096
 21D1:438A       idk_Mouse_w3609A
 21D1:438C       idk_Mouse_w3609C
 21D1:438E       FLAG_Set_FLAG_Mouse_Skip
 21D1:4390       FLAG_MouseLeftHanded
 21D1:4392       w360A2
 21D1:4394       idk_Mouse_w360A4
 21D1:4396       idk_Mouse_w360A6
 21D1:4398       idk_Mouse_w360A8
 21D1:439A       idk_Mouse_w360AA
 21D1:439C       FLAG_Mouse_w360AC
 21D1:439E       idk_Mouse_w360AE
 21D1:43A0       idk_Mouse_w360B0
 21D1:43A2       idkMouse_w360B2
 21D1:43A4       FLAG_Mouse_w360B4
 21D1:43A6       FLAG_Mouse_Skip
 21D1:43A8       word_360B8
 21D1:43AA       word_360BA
 21D1:43AC       word_360BC
 21D1:43AE       temp_Set_FLAG_Mouse_Skip
 21D1:43B0       idk_Mouse_w360C0
 21D1:43B2       idk_Dseg_RepMovSw_DI
 21D1:43D0       unk_360E0
 21D1:43E0       unk_360F0
 21D1:4400       unk_36110
 21D1:4420       unk_36130
 21D1:44AF       unk_361BF
 21D1:44B0       unk_361C0
 21D1:44DE       unk_361EE
 21D1:44E0       unk_361F0
 21D1:4500       unk_36210
 21D1:4520       unk_36230
 21D1:4530       unk_36240
 21D1:4550       unk_36260
 21D1:4558       unk_36268
 21D1:4560       unk_36270
 21D1:4562       unk_36272
 21D1:4563       unk_36273
 21D1:4568       unk_36278
 21D1:456B       unk_3627B
 21D1:4590       unk_362A0
 21D1:45F0       unk_36300
 21D1:4600       unk_36310
 21D1:4630       unk_36340
 21D1:4660       unk_36370
 21D1:467F       unk_3638F
 21D1:4698       unk_363A8
 21D1:46A4       unk_363B4
 21D1:46B0       unk_363C0
 21D1:46E0       unk_363F0
 21D1:46F0       unk_36400
 21D1:4710       unk_36420
 21D1:4720       unk_36430
 21D1:4730       unk_36440
 21D1:4750       unk_36460
 21D1:4760       unk_36470
 21D1:4780       unk_36490
 21D1:4790       unk_364A0
 21D1:47B0       unk_364C0
 21D1:47E0       unk_364F0
 21D1:47F0       unk_36500
 21D1:47FE       unk_3650E
 21D1:4800       unk_36510
 21D1:4810       unk_36520
 21D1:482E       unk_3653E
 21D1:4830       unk_36540
 21D1:483A       unk_3654A
 21D1:4840       unk_36550
 21D1:484A       unk_3655A
 21D1:4850       unk_36560
 21D1:4860       unk_36570
 21D1:4862       idk_Dseg_RepMovSw_SI
 21D1:4864       unk_36574
 21D1:4865       unk_36575
 21D1:486E       unk_3657E
 21D1:4878       unk_36588
 21D1:4880       unk_36590
 21D1:4882       unk_36592
 21D1:4883       unk_36593
 21D1:4888       unk_36598
 21D1:488B       unk_3659B
 21D1:4890       unk_365A0
 21D1:489A       unk_365AA
 21D1:48A8       unk_365B8
 21D1:48AD       unk_365BD
 21D1:48B0       unk_365C0
 21D1:48B2       unk_365C2
 21D1:48B3       unk_365C3
 21D1:48B8       unk_365C8
 21D1:48BB       unk_365CB
 21D1:48E0       unk_365F0
 21D1:48E8       unk_365F8
 21D1:48F2       unk_36602
 21D1:48F3       unk_36603
 21D1:48F8       unk_36608
 21D1:48FB       unk_3660B
 21D1:4910       unk_36620
 21D1:4920       unk_36630
 21D1:4930       unk_36640
 21D1:494E       unk_3665E
 21D1:4950       unk_36660
 21D1:4960       unk_36670
 21D1:497C       unk_3668C
 21D1:4980       unk_36690
 21D1:4990       unk_366A0
 21D1:499F       unk_366AF
 21D1:49AC       unk_366BC
 21D1:49B0       unk_366C0
 21D1:49C4       unk_366D4
 21D1:49C8       unk_366D8
 21D1:49CF       unk_366DF
 21D1:49D2       unk_366E2
 21D1:49D3       unk_366E3
 21D1:49D8       unk_366E8
 21D1:49DB       unk_366EB
 21D1:49E0       unk_366F0
 21D1:49F0       unk_36700
 21D1:49F4       unk_36704
 21D1:4A00       unk_36710
 21D1:4A0A       unk_3671A
 21D1:4A0F       unk_3671F
 21D1:4A10       unk_36720
 21D1:4A30       unk_36740
 21D1:4A34       unk_36744
 21D1:4A44       unk_36754
 21D1:4A5C       unk_3676C
 21D1:4A60       unk_36770
 21D1:4A76       unk_36786
 21D1:4A7E       unk_3678E
 21D1:4A88       unk_36798
 21D1:4A90       unk_367A0
 21D1:4AAE       unk_367BE
 21D1:4AB0       unk_367C0
 21D1:4AE0       unk_367F0
 21D1:4AEF       unk_367FF
 21D1:4AF8       unk_36808
 21D1:4B02       unk_36812
 21D1:4B03       unk_36813
 21D1:4B08       unk_36818
 21D1:4B0B       unk_3681B
 21D1:4B10       unk_36820
 21D1:4B14       unk_36824
 21D1:4B20       unk_36830
 21D1:4B28       unk_36838
 21D1:4B30       unk_36840
 21D1:4B32       unk_36842
 21D1:4B33       unk_36843
 21D1:4B38       unk_36848
 21D1:4B3B       unk_3684B
 21D1:4B3E       unk_3684E
 21D1:4B50       unk_36860
 21D1:4B5A       unk_3686A
 21D1:4B60       unk_36870
 21D1:4B6A       unk_3687A
 21D1:4B7E       unk_3688E
 21D1:4B80       unk_36890
 21D1:4B8A       unk_3689A
 21D1:4B90       unk_368A0
 21D1:4B9A       unk_368AA
 21D1:4BAE       unk_368BE
 21D1:4BB0       unk_368C0
 21D1:4BB8       unk_368C8
 21D1:4BC2       unk_368D2
 21D1:4BC3       unk_368D3
 21D1:4BC8       unk_368D8
 21D1:4BCA       unk_368DA
 21D1:4BCB       unk_368DB
 21D1:4BDA       unk_368EA
 21D1:4BF0       unk_36900
 21D1:4BF8       unk_36908
 21D1:4C00       unk_36910
 21D1:4C02       unk_36912
 21D1:4C03       unk_36913
 21D1:4C08       unk_36918
 21D1:4C0B       unk_3691B
 21D1:4C1F       unk_3692F
 21D1:4C20       unk_36930
 21D1:4C28       unk_36938
 21D1:4C2E       unk_3693E
 21D1:4C30       unk_36940
 21D1:4C32       unk_36942
 21D1:4C33       unk_36943
 21D1:4C38       unk_36948
 21D1:4C3B       unk_3694B
 21D1:4C44       unk_36954
 21D1:4C4F       unk_3695F
 21D1:4C5E       unk_3696E
 21D1:4C60       unk_36970
 21D1:4C74       unk_36984
 21D1:4C9C       unk_369AC
 21D1:4C9E       unk_369AE
 21D1:4CA8       unk_369B8
 21D1:4CAA       unk_369BA
 21D1:4CB0       unk_369C0
 21D1:4CB2       unk_369C2
 21D1:4CB3       unk_369C3
 21D1:4CB8       unk_369C8
 21D1:4CBA       unk_369CA
 21D1:4CBB       unk_369CB
 21D1:4CCC       unk_369DC
 21D1:4CCE       unk_369DE
 21D1:4CD8       unk_369E8
 21D1:4CDF       unk_369EF
 21D1:4CE0       unk_369F0
 21D1:4CE2       unk_369F2
 21D1:4CE3       unk_369F3
 21D1:4CE8       unk_369F8
 21D1:4CEB       unk_369FB
 21D1:4CFC       unk_36A0C
 21D1:4CFE       unk_36A0E
 21D1:4D00       unk_36A10
 21D1:4D04       unk_36A14
 21D1:4D0C       unk_36A1C
 21D1:4D10       unk_36A20
 21D1:4D12       word_36A22
 21D1:4D14       word_36A24
 21D1:4D16       word_36A26
 21D1:4D18       word_36A28
 21D1:4D1A       word_36A2A
 21D1:4D1C       idk_FLAG_w36A2C
 21D1:4D1E       idk_Kbd_w36A2E
 21D1:4D20       hrmMouseInstalled
 21D1:4D22       w36A32
 21D1:4D24       word_36A34
 21D1:4D26       word_36A36
 21D1:4D28       idk_Value_w36A38
 21D1:4D2A       word_36A3A
 21D1:4D2C       idk_InitRoland_w36A3C
 21D1:4D2E       word_36A3E
 21D1:4D3A       word_36A4A
 21D1:4D3C       idk_Flag_w36A4C
 21D1:4D3E       word_36A4E
 21D1:4D40       word_36A50
 21D1:4D42       word_36A52
 21D1:4D44       idk_CfgMom_w36A54
 21D1:4D46       word_36A56
 21D1:4D48       aNotInUse
 21D1:4D53       algn_36A63
 21D1:4D54       word_36A64
 21D1:4D56       word_36A66
 21D1:4D58       word_36A68
 21D1:4D5A       word_36A6A
 21D1:4D5C       word_36A6C
 21D1:4D5E       FLAG_w36A6E
 21D1:4D60       word_36A70
 21D1:4D62       word_36A72
 21D1:4D64       word_36A74
 21D1:4D66       word_36A76
 21D1:4D68       idk_Flag_Mouse_w36A78
 21D1:4D6A       idk_Flag_w36A7A
 21D1:4D6C       FLAG_GotKey
 21D1:4D6E       aRb_0
 21D1:4D71       aWb
 21D1:4D74       word_36A84
 21D1:4D78       word_36A88
 21D1:4D7A       idk_AIL_SndDrvNbr_w36A8A
 21D1:4D7C       AIL_playback_w36A8C
 21D1:4D7E       idk_AIL_w36A8E
 21D1:4D80       AIL_HDRIVER1
 21D1:4D82       AIL_HDRIVER2
 21D1:4D84       AIL_timbre_w36A94
 21D1:4D88       word_36A98
 21D1:4D8A       word_36A9A
 21D1:4D90       AIL_shutdown_w36AA0
 21D1:4D92       word_36AA2
 21D1:4D98       word_36AA8
 21D1:4DA0       word_36AB0
 21D1:4DA8       argFileNameBase
 21D1:4DB3       aFat_
 21D1:4DB8       aRb
 21D1:4DBB       name
 21D1:4DC3       strHexTable
 21D1:4DD4       aYouSelectedAnInvalidSoundDriver
 21D1:4DFB       aReconfigureHardwareOptions
 21D1:4E18       aYouSelectedAnInvalidDigiDriver
 21D1:4E3E       aSoundDriverIsNotAValidXmidiDriv
 21D1:4E69       aDigiDriverIsNotAValidDspDriver
 21D1:4E91       aMusic
 21D1:4E98       aIOParametersAreIncorrect
 21D1:4EB7       aMusicIOParametersAreIncorrect
 21D1:4EDC       aDigiDriver
 21D1:4EE9       aNotAValidSoundFile
 21D1:4F00       aCouldntLoadXmidiFile
 21D1:4F19       aSequenceDidNotRegister
 21D1:4F33       aTimbreNotFound
 21D1:4F44       aCouldNotLoad
 21D1:4F53       aNotAValid
 21D1:4F5F       aCouldNotLoadSoundFile
 21D1:4F7A       _atexitcnt
 21D1:4F7C       __ctype
 21D1:507E       ptr_exitbuf
 21D1:5082       ptr_exitfopen
 21D1:5086       ptr_exitopen
 21D1:508A       word_36D9A
 21D1:508C       word_36D9C
 21D1:508E       byte_36D9E
 21D1:5094       word_36DA4
 21D1:509A       word_36DAA
 21D1:509C       word_36DAC
 21D1:509E       byte_36DAE
 21D1:50A4       word_36DB4
 21D1:50AA       unk_36DBA
 21D1:50B0       unk_36DC0
 21D1:50BC       unk_36DCC
 21D1:50CC       unk_36DDC
 21D1:50D6       unk_36DE6
 21D1:50DA       unk_36DEA
 21D1:50E0       unk_36DF0
 21D1:50E4       unk_36DF4
 21D1:50F0       unk_36E00
 21D1:50FC       unk_36E0C
 21D1:5110       unk_36E20
 21D1:5114       unk_36E24
 21D1:5116       unk_36E26
 21D1:511F       unk_36E2F
 21D1:512C       unk_36E3C
 21D1:5130       unk_36E40
 21D1:513C       unk_36E4C
 21D1:5146       unk_36E56
 21D1:514F       unk_36E5F
 21D1:5150       unk_36E60
 21D1:515A       unk_36E6A
 21D1:5160       unk_36E70
 21D1:516C       unk_36E7C
 21D1:5180       unk_36E90
 21D1:518A       unk_36E9A
 21D1:518F       unk_36E9F
 21D1:5190       unk_36EA0
 21D1:5194       unk_36EA4
 21D1:519C       unk_36EAC
 21D1:51AC       unk_36EBC
 21D1:51B0       unk_36EC0
 21D1:51B4       unk_36EC4
 21D1:51B5       unk_36EC5
 21D1:51BE       unk_36ECE
 21D1:51C0       unk_36ED0
 21D1:51C4       unk_36ED4
 21D1:51C6       unk_36ED6
 21D1:51CA       __nfile
 21D1:51CC       unk_36EDC
 21D1:51D0       unk_36EE0
 21D1:51DC       unk_36EEC
 21D1:51E0       unk_36EF0
 21D1:51F0       unk_36F00
 21D1:51F4       word_36F04
 21D1:51F6       word_36F06
 21D1:51F8       __heaplen
 21D1:51FA       _doserrno
 21D1:51FC       _dosErrorToSV
 21D1:5256       __mkname_prefix
 21D1:525A       __mkname_extension
 21D1:5260       a_com
 21D1:5265       a_exe
 21D1:526A       aPath
 21D1:526F       unk_36F7F
 21D1:5270       __stklen
 21D1:5272       SegX_w36F82
 21D1:5274       LibMalloc_w36F84
 21D1:5276       word_36F86
 21D1:5278       LibMalloc_w36F88
 21D1:527A       word_36F8A
 21D1:527C       word_36F8C
 21D1:527E       word_36F8E
 21D1:5280       word_36F90
 21D1:5282       word_36F92
 21D1:5284       word_36F94
 21D1:5286       word_36F96
 21D1:5288       word_36F98
 21D1:528C       word_36F9C
 21D1:528E       word_36F9E
 21D1:5290       word_36FA0
 21D1:5292       word_36FA2
 21D1:5294       InitStart
 21D1:5296       unk_36FA6
 21D1:52A0       unk_36FB0
 21D1:52AC       InitEnd
 21D1:52AE       off_36FBE
 21D1:52B2       bdata@
 21D1:52B4       dest
 21D1:52B6       word_36FC6
 21D1:52B8       idk_LBX_w36FC8
 21D1:52BA       word_36FCA
 21D1:52BC       word_36FCC
 21D1:52BE       word_36FCE
 21D1:52C0       word_36FD0
 21D1:52C2       word_36FD2
 21D1:52C4       word_36FD4
 21D1:52C6       word_36FD6
 21D1:52D0       unk_36FE0
 21D1:52E0       unk_36FF0
 21D1:52E4       word_36FF4
 21D1:52E8       word_36FF8
 21D1:52EA       word_36FFA
 21D1:52EC       word_36FFC
 21D1:52EE       word_36FFE
 21D1:52F0       word_37000
 21D1:52F2       word_37002
 21D1:52F4       word_37004
 21D1:52F8       word_37008
 21D1:52FC       idk_CfgMom_w3700C
 21D1:52FE       word_3700E
 21D1:5300       word_37010
 21D1:5310       unk_37020
 21D1:5350       unk_37060
 21D1:5380       unk_37090
 21D1:539F       unk_370AF
 21D1:53B0       unk_370C0
 21D1:53CF       unk_370DF
 21D1:53D8       unk_370E8
 21D1:53E0       unk_370F0
 21D1:5440       unk_37150
 21D1:545F       unk_3716F
 21D1:5470       unk_37180
 21D1:549F       unk_371AF
 21D1:54CF       unk_371DF
 21D1:54D4       unk_371E4
 21D1:54D5       unk_371E5
 21D1:54DE       unk_371EE
 21D1:5500       unk_37210
 21D1:5504       unk_37214
 21D1:5505       unk_37215
 21D1:550E       unk_3721E
 21D1:551D       unk_3722D
 21D1:552E       unk_3723E
 21D1:5540       unk_37250
 21D1:5544       unk_37254
 21D1:5545       unk_37255
 21D1:554D       unk_3725D
 21D1:554E       unk_3725E
 21D1:554F       unk_3725F
 21D1:5570       unk_37280
 21D1:557F       unk_3728F
 21D1:558D       unk_3729D
 21D1:55B8       unk_372C8
 21D1:55BF       unk_372CF
 21D1:55C2       unk_372D2
 21D1:55EF       unk_372FF
 21D1:55F0       unk_37300
 21D1:561F       unk_3732F
 21D1:5620       unk_37330
 21D1:5624       unk_37334
 21D1:5625       unk_37335
 21D1:562E       unk_3733E
 21D1:564F       unk_3735F
 21D1:5660       unk_37370
 21D1:566D       unk_3737D
 21D1:5690       unk_373A0
 21D1:56C0       unk_373D0
 21D1:56F0       unk_37400
 21D1:56F8       unk_37408
 21D1:5728       unk_37438
 21D1:573C       unk_3744C
 21D1:573E       unk_3744E
 21D1:5754       unk_37464
 21D1:5755       unk_37465
 21D1:575E       unk_3746E
 21D1:5760       unk_37470
 21D1:5768       unk_37478
 21D1:5784       unk_37494
 21D1:5785       unk_37495
 21D1:578E       unk_3749E
 21D1:579D       unk_374AD
 21D1:57BA       unk_374CA
 21D1:57CD       unk_374DD
 21D1:5814       unk_37524
 21D1:5815       unk_37525
 21D1:581E       unk_3752E
 21D1:5848       unk_37558
 21D1:5854       unk_37564
 21D1:5855       unk_37565
 21D1:585D       unk_3756D
 21D1:585E       unk_3756E
 21D1:5884       unk_37594
 21D1:5885       unk_37595
 21D1:588E       unk_3759E
 21D1:589D       unk_375AD
 21D1:58CD       unk_375DD
 21D1:5904       unk_37614
 21D1:5905       unk_37615
 21D1:590E       unk_3761E
 21D1:592A       unk_3763A
 21D1:5934       unk_37644
 21D1:5935       unk_37645
 21D1:593E       unk_3764E
 21D1:594D       unk_3765D
 21D1:5974       unk_37684
 21D1:5975       unk_37685
 21D1:5978       unk_37688
 21D1:597D       unk_3768D
 21D1:597E       unk_3768E
 21D1:59A4       unk_376B4
 21D1:59A5       unk_376B5
 21D1:59A8       unk_376B8
 21D1:59AE       unk_376BE
 21D1:59BD       unk_376CD
 21D1:59D4       unk_376E4
 21D1:59D5       unk_376E5
 21D1:59DE       unk_376EE
 21D1:59ED       unk_376FD
 21D1:5A04       unk_37714
 21D1:5A05       unk_37715
 21D1:5A0E       unk_3771E
 21D1:5A1A       word_3772A
 21D1:5A1C       word_3772C
 21D1:5A1E       word_3772E
 21D1:5A20       word_37730
 21D1:5A22       word_37732
 21D1:5A24       word_37734
 21D1:5A26       word_37736
 21D1:5A28       word_37738
 21D1:5A2A       word_3773A
 21D1:5A2C       word_3773C
 21D1:5A2E       word_3773E
 21D1:5A30       word_37740
 21D1:5A32       word_37742
 21D1:5A34       word_37744
 21D1:5A38       unk_37748
 21D1:5A4D       unk_3775D
 21D1:5A78       unk_37788
 21D1:5AA8       unk_377B8
 21D1:5B28       unk_37838
 21D1:5B58       unk_37868
 21D1:5B98       unk_378A8
 21D1:5BAC       dword_378BC
 21D1:5BB0       word_378C0
 21D1:5BB2       word_378C2
 21D1:5BB4       word_378C4
 21D1:5BB6       word_378C6
 21D1:5BB8       word_378C8
 21D1:5BC8       unk_378D8
 21D1:5BF8       unk_37908
 21D1:5C28       unk_37938
 21D1:5C4A       unk_3795A
 21D1:5C68       word_37978
 21D1:5C6A       word_3797A
 21D1:5C6C       word_3797C
 21D1:5C7A       unk_3798A
 21D1:5CB0       idk_LBX_w379C0
 21D1:5CBA       unk_379CA
 21D1:5D9A       unk_37AAA
 21D1:5E68       word_37B78
 21D1:5ECA       unk_37BDA
 21D1:5EFA       unk_37C0A
 21D1:5F08       unk_37C18
 21D1:5F3F       unk_37C4F
 21D1:5F40       unk_37C50
 21D1:5F8A       unk_37C9A
 21D1:5FCA       unk_37CDA
 21D1:5FFA       unk_37D0A
 21D1:607A       unk_37D8A
 21D1:60AA       unk_37DBA
 21D1:60B0       unk_37DC0
 21D1:60EA       unk_37DFA
 21D1:610A       unk_37E1A
 21D1:611A       unk_37E2A
 21D1:614A       unk_37E5A
 21D1:617A       unk_37E8A
 21D1:61AC       word_37EBC
 21D1:61AE       idk_LBX_w37EBE
 21D1:61B0       word_37EC0
 21D1:61B8       dword_37EC8
 21D1:61E2       byte_37EF2
 21D1:6228       unk_37F38
 21D1:6258       unk_37F68
 21D1:628C       unk_37F9C
 21D1:6298       unk_37FA8
 21D1:62A4       unk_37FB4
 21D1:62B4       unk_37FC4
 21D1:62DC       unk_37FEC
 21D1:62F0       unk_38000
 21D1:62FB       byte_3800B
 21D1:6304       unk_38014
 21D1:6318       unk_38028
 21D1:632C       unk_3803C
 21D1:6340       unk_38050
 21D1:6360       unk_38070
 21D1:6362       byte_38072
 21D1:6378       unk_38088
 21D1:6390       unk_380A0
 21D1:63B4       byte_380C4
 21D1:63D0       unk_380E0
 21D1:6400       unk_38110
 21D1:6406       byte_38116
 21D1:642A       unk_3813A
 21D1:6440       unk_38150
 21D1:644E       unk_3815E
 21D1:6458       byte_38168
 21D1:645A       unk_3816A
 21D1:646D       byte_3817D
 21D1:6482       byte_38192
 21D1:6497       byte_381A7
 21D1:649A       unk_381AA
 21D1:64A8       unk_381B8
 21D1:64AC       byte_381BC
 21D1:64AE       idk_CfgMom_w381BE
 21D1:64B0       dword_381C0
 21D1:64B4       dword_381C4
 21D1:64D8       unk_381E8
 21D1:64E2       unk_381F2
 21D1:6520       unk_38230
 21D1:6568       unk_38278
 21D1:657A       unk_3828A
 21D1:65A0       word_382B0
 21D1:65A2       word_382B2
 21D1:65A8       unk_382B8
 21D1:65AC       idk_SavGamDS_w382BC
 21D1:65AE       idk_SavGamDS_w382BE
 21D1:65B0       word_382C0
 21D1:65B2       word_382C2
 21D1:65B4       word_382C4
 21D1:65B6       word_382C6
 21D1:65B8       word_382C8
 21D1:65BA       word_382CA
 21D1:65BC       word_382CC
 21D1:65BE       word_382CE
 21D1:65C0       word_382D0
 21D1:65C2       word_382D2
 21D1:65D8       unk_382E8
 21D1:662C       dword_3833C
 21D1:6650       unk_38360
 21D1:6658       unk_38368
 21D1:665C       unk_3836C
 21D1:665E       unk_3836E
 21D1:6680       unk_38390
 21D1:6688       unk_38398
 21D1:66AA       unk_383BA
 21D1:66C8       unk_383D8
 21D1:66DA       unk_383EA
 21D1:66E4       unk_383F4
 21D1:66F8       unk_38408
 21D1:670C       unk_3841C
 21D1:6710       unk_38420
 21D1:6712       dword_38422
 21D1:6728       unk_38438
 21D1:6740       unk_38450
 21D1:6750       word_38460
 21D1:6752       word_38462
 21D1:6754       word_38464
 21D1:6756       word_38466
 21D1:6758       word_38468
 21D1:676A       unk_3847A
 21D1:6780       unk_38490
 21D1:67AA       unk_384BA
 21D1:67DA       unk_384EA
 21D1:67F6       unk_38506
 21D1:6800       unk_38510
 21D1:6830       unk_38540
 21D1:685A       unk_3856A
 21D1:6870       unk_38580
 21D1:688A       unk_3859A
 21D1:68A0       unk_385B0
 21D1:68BE       unk_385CE
 21D1:68CA       unk_385DA
 21D1:68D0       unk_385E0
 21D1:68F6       word_38606
 21D1:68F8       dword_38608
 21D1:68FC       word_3860C
 21D1:68FE       word_3860E
 21D1:6900       byte_38610
 21D1:6901       unk_38611
 21D1:6915       byte_38625
 21D1:6916       byte_38626
 21D1:692A       unk_3863A
 21D1:695A       word_3866A
 21D1:695C       word_3866C
 21D1:695E       word_3866E
 21D1:6960       word_38670
 21D1:6962       word_38672
 21D1:6C56       word_38966
 21D1:6CE0       unk_389F0
 21D1:6D9E       unk_38AAE
 21D1:6DC4       word_38AD4
 21D1:6DC6       word_38AD6
 21D1:6E32       unk_38B42
 21D1:6E5F       unk_38B6F
 21D1:6E60       unk_38B70
 21D1:6FAC       unk_38CBC
 21D1:6FAE       unk_38CBE
 21D1:7000       unk_38D10
 21D1:7030       unk_38D40
 21D1:7070       unk_38D80
 21D1:70BE       unk_38DCE
 21D1:70EE       unk_38DFE
 21D1:712E       unk_38E3E
 21D1:7150       unk_38E60
 21D1:7152       unk_38E62
 21D1:7182       unk_38E92
 21D1:71AC       unk_38EBC
 21D1:71B8       unk_38EC8
 21D1:71C2       unk_38ED2
 21D1:71C4       unk_38ED4
 21D1:71D4       unk_38EE4
 21D1:71FC       unk_38F0C
 21D1:720E       unk_38F1E
 21D1:7210       unk_38F20
 21D1:7224       unk_38F34
 21D1:7238       unk_38F48
 21D1:724C       unk_38F5C
 21D1:7260       unk_38F70
 21D1:7280       unk_38F90
 21D1:72A2       unk_38FB2
 21D1:72B0       unk_38FC0
 21D1:72CC       unk_38FDC
 21D1:72CE       unk_38FDE
 21D1:72FC       unk_3900C
 21D1:72FE       unk_3900E
 21D1:733C       unk_3904C
 21D1:733E       unk_3904E
 21D1:7340       unk_39050
 21D1:736E       unk_3907E
 21D1:7380       unk_39090
 21D1:73B0       unk_390C0
 21D1:73D0       unk_390E0
 21D1:73D2       unk_390E2
 21D1:73FE       unk_3910E
 21D1:7402       unk_39112
 21D1:741C       unk_3912C
 21D1:741E       unk_3912E
 21D1:7430       unk_39140
 21D1:7434       unk_39144
 21D1:743E       unk_3914E
 21D1:7448       unk_39158
 21D1:7460       unk_39170
 21D1:7466       unk_39176
 21D1:746E       unk_3917E
 21D1:7492       unk_391A2
 21D1:74A0       unk_391B0
 21D1:74D0       unk_391E0
 21D1:74D2       unk_391E2
 21D1:74EE       unk_391FE
 21D1:7500       unk_39210
 21D1:7502       unk_39212
 21D1:751E       unk_3922E
 21D1:7530       unk_39240
 21D1:754C       unk_3925C
 21D1:754E       unk_3925E
 21D1:755E       unk_3926E
 21D1:757C       unk_3928C
 21D1:757E       unk_3928E
 21D1:7582       unk_39292
 21D1:758E       unk_3929E
 21D1:75B2       unk_392C2
 21D1:75BE       unk_392CE
 21D1:75EE       unk_392FE
 21D1:75F2       unk_39302
 21D1:7604       unk_39314
 21D1:760C       unk_3931C
 21D1:760E       unk_3931E
 21D1:7622       unk_39332
 21D1:762C       unk_3933C
 21D1:7634       unk_39344
 21D1:764C       unk_3935C
 21D1:764E       unk_3935E
 21D1:7652       unk_39362
 21D1:7660       unk_39370
 21D1:767C       unk_3938C
 21D1:767E       unk_3938E
 21D1:7682       unk_39392
 21D1:76FC       unk_3940C
 21D1:76FE       unk_3940E
 21D1:7716       unk_39426
 21D1:772C       unk_3943C
 21D1:772E       unk_3943E
 21D1:776C       unk_3947C
 21D1:776E       unk_3947E
 21D1:779C       unk_394AC
 21D1:779E       unk_394AE
 21D1:77AF       unk_394BF
 21D1:77B0       unk_394C0
 21D1:77CC       unk_394DC
 21D1:77CE       unk_394DE
 21D1:77DE       unk_394EE
 21D1:77FC       unk_3950C
 21D1:77FE       unk_3950E
 21D1:7ACF       unk_397DF
 21D1:7AD0       unk_397E0
 21D1:7AFC       unk_3980C
 21D1:7AFF       unk_3980F
 21D1:7B00       unk_39810
 21D1:7B08       unk_39818
 21D1:7B14       unk_39824
 21D1:7B24       unk_39834
 21D1:7B3F       unk_3984F
 21D1:7B40       unk_39850
 21D1:7B4C       unk_3985C
 21D1:7B60       unk_39870
 21D1:7B74       unk_39884
 21D1:7B88       unk_39898
 21D1:7B9C       unk_398AC
 21D1:7BB0       unk_398C0
 21D1:7BD0       unk_398E0
 21D1:7C00       unk_39910
 21D1:7C1F       unk_3992F
 21D1:7C20       unk_39930
 21D1:7D4F       unk_39A5F
 21D1:7D50       unk_39A60
 21D1:7D7F       unk_39A8F
 21D1:7D80       unk_39A90
 21D1:7E0F       unk_39B1F
 21D1:7E10       unk_39B20
 21D1:7E1C       unk_39B2C
 21D1:7E28       unk_39B38
 21D1:7E34       unk_39B44
 21D1:7E44       unk_39B54
 21D1:7E4C       unk_39B5C
 21D1:7E4F       unk_39B5F
 21D1:7E50       unk_39B60
 21D1:7E58       unk_39B68
 21D1:7E64       unk_39B74
 21D1:7E6C       unk_39B7C
 21D1:7E74       unk_39B84
 21D1:7E7F       unk_39B8F
 21D1:7E80       unk_39B90
 21D1:7E8C       unk_39B9C
 21D1:7E94       unk_39BA4
 21D1:7E98       unk_39BA8
 21D1:7E9C       unk_39BAC
 21D1:7EA4       unk_39BB4
 21D1:7EA8       unk_39BB8
 21D1:7EB0       unk_39BC0
 21D1:7EB4       unk_39BC4
 21D1:7EBC       unk_39BCC
 21D1:7EC4       unk_39BD4
 21D1:7ED0       unk_39BE0
 21D1:7ED8       unk_39BE8
 21D1:7EDC       unk_39BEC
 21D1:7EEC       unk_39BFC
 21D1:7EF0       unk_39C00
 21D1:7EFF       unk_39C0F
 21D1:7F00       unk_39C10
 21D1:7F04       unk_39C14
 21D1:7F18       unk_39C28
 21D1:7F20       unk_39C30
 21D1:7F2C       unk_39C3C
 21D1:7F2F       unk_39C3F
 21D1:7F30       unk_39C40
 21D1:7F40       unk_39C50
 21D1:7F54       unk_39C64
 21D1:7F60       unk_39C70
 21D1:7F6C       unk_39C7C
 21D1:7F6F       unk_39C7F
 21D1:7F70       unk_39C80
 21D1:7F78       unk_39C88
 21D1:7F7C       unk_39C8C
 21D1:7F84       unk_39C94
 21D1:7F94       unk_39CA4
 21D1:7F9F       unk_39CAF
 21D1:7FA0       unk_39CB0
 21D1:7FB0       unk_39CC0
 21D1:7FBC       unk_39CCC
 21D1:7FCF       unk_39CDF
 21D1:7FD0       unk_39CE0
 21D1:7FE4       unk_39CF4
 21D1:7FF8       unk_39D08
 21D1:7FFF       unk_39D0F
 21D1:8000       unk_39D10
 21D1:800C       unk_39D1C
 21D1:8020       unk_39D30
 21D1:8040       unk_39D50
 21D1:8066       unk_39D76
 21D1:809C       unk_39DAC
 21D1:80A8       unk_39DB8
 21D1:80B4       unk_39DC4
 21D1:80C4       unk_39DD4
 21D1:80CC       unk_39DDC
 21D1:80D8       unk_39DE8
 21D1:80E4       unk_39DF4
 21D1:80EC       unk_39DFC
 21D1:80F4       unk_39E04
 21D1:8100       unk_39E10
 21D1:8114       unk_39E24
 21D1:811C       unk_39E2C
 21D1:8128       unk_39E38
 21D1:812E       unk_39E3E
 21D1:8130       word_39E40
 21D1:813C       unk_39E4C
 21D1:8144       unk_39E54
 21D1:8150       unk_39E60
 21D1:8158       unk_39E68
 21D1:815C       unk_39E6C
 21D1:8168       unk_39E78
 21D1:816C       unk_39E7C
 21D1:8170       unk_39E80
 21D1:8174       unk_39E84
 21D1:8180       unk_39E90
 21D1:8184       unk_39E94
 21D1:819C       unk_39EAC
 21D1:81A0       unk_39EB0
 21D1:81A8       unk_39EB8
 21D1:81AC       unk_39EBC
 21D1:81B4       unk_39EC4
 21D1:81C0       unk_39ED0
 21D1:81C4       unk_39ED4
 21D1:81CC       unk_39EDC
 21D1:81D4       unk_39EE4
 21D1:81D8       unk_39EE8
 21D1:81E4       unk_39EF4
 21D1:81E8       unk_39EF8
 21D1:81EC       unk_39EFC
 21D1:81F4       unk_39F04
 21D1:81FC       unk_39F0C
 21D1:8200       unk_39F10
 21D1:8210       unk_39F20
 21D1:8214       unk_39F24
 21D1:821C       unk_39F2C
 21D1:8228       unk_39F38
 21D1:8230       unk_39F40
 21D1:823C       unk_39F4C
 21D1:8244       unk_39F54
 21D1:824C       unk_39F5C
 21D1:8250       unk_39F60
 21D1:8258       unk_39F68
 21D1:8264       unk_39F74
 21D1:826C       unk_39F7C
 21D1:8270       unk_39F80
 21D1:8274       unk_39F84
 21D1:827C       unk_39F8C
 21D1:8280       unk_39F90
 21D1:8288       unk_39F98
 21D1:8294       unk_39FA4
 21D1:829C       unk_39FAC
 21D1:82A0       unk_39FB0
 21D1:82A4       unk_39FB4
 21D1:82B0       unk_39FC0
 21D1:82BC       unk_39FCC
 21D1:82C4       unk_39FD4
 21D1:82C8       unk_39FD8
 21D1:82CC       unk_39FDC
 21D1:82D0       unk_39FE0
 21D1:82D4       unk_39FE4
 21D1:82D8       unk_39FE8
 21D1:82E0       unk_39FF0
 21D1:82E4       unk_39FF4
 21D1:82EC       unk_39FFC
 21D1:82F0       unk_3A000
 21D1:82F4       unk_3A004
 21D1:82F8       unk_3A008
 21D1:8300       unk_3A010
 21D1:8304       unk_3A014
 21D1:8308       unk_3A018
 21D1:830C       unk_3A01C
 21D1:8314       unk_3A024
 21D1:831C       unk_3A02C
 21D1:8320       unk_3A030
 21D1:8328       unk_3A038
 21D1:8330       unk_3A040
 21D1:8334       unk_3A044
 21D1:833C       unk_3A04C
 21D1:8340       unk_3A050
 21D1:8344       unk_3A054
 21D1:8348       unk_3A058
 21D1:834C       unk_3A05C
 21D1:8350       unk_3A060
 21D1:8354       unk_3A064
 21D1:8358       unk_3A068
 21D1:835C       unk_3A06C
 21D1:8364       unk_3A074
 21D1:8368       unk_3A078
 21D1:836C       unk_3A07C
 21D1:8370       unk_3A080
 21D1:8374       unk_3A084
 21D1:8378       unk_3A088
 21D1:8380       unk_3A090
 21D1:8386       unk_3A096
 21D1:838C       unk_3A09C
 21D1:8390       unk_3A0A0
 21D1:8394       unk_3A0A4
 21D1:839C       unk_3A0AC
 21D1:83A0       unk_3A0B0
 21D1:83A8       unk_3A0B8
 21D1:83B0       unk_3A0C0
 21D1:83B6       unk_3A0C6
 21D1:83BC       unk_3A0CC
 21D1:83C0       unk_3A0D0
 21D1:83C4       unk_3A0D4
 21D1:83D0       unk_3A0E0
 21D1:83D8       unk_3A0E8
 21D1:83EC       unk_3A0FC
 21D1:83F0       unk_3A100
 21D1:83F4       unk_3A104
 21D1:83F6       unk_3A106
 21D1:8400       unk_3A110
 21D1:8420       unk_3A130
 21D1:843C       byte_3A14C
 21D1:844E       unk_3A15E
 21D1:847E       unk_3A18E
 21D1:84BE       unk_3A1CE
 21D1:84D6       unk_3A1E6
 21D1:84F4       unk_3A204
 21D1:850C       unk_3A21C
 21D1:851C       unk_3A22C
 21D1:8524       unk_3A234
 21D1:8532       unk_3A242
 21D1:853C       unk_3A24C
 21D1:854C       unk_3A25C
 21D1:8550       unk_3A260
 21D1:8554       unk_3A264
 21D1:8580       unk_3A290
 21D1:859E       unk_3A2AE
 21D1:85B0       word_3A2C0
 21D1:85B2       word_3A2C2
 21D1:85B4       word_3A2C4
 21D1:85B6       word_3A2C6
 21D1:85B8       word_3A2C8
 21D1:85BA       word_3A2CA
 21D1:85BC       word_3A2CC
 21D1:85BE       word_3A2CE
 21D1:85C0       word_3A2D0
 21D1:85C2       word_3A2D2
 21D1:85C4       word_3A2D4
 21D1:85C6       word_3A2D6
 21D1:85C8       word_3A2D8
 21D1:85CA       word_3A2DA
 21D1:85CC       word_3A2DC
 21D1:85CE       word_3A2DE
 21D1:85D0       word_3A2E0
 21D1:85D2       word_3A2E2
 21D1:85D4       word_3A2E4
 21D1:85D6       word_3A2E6
 21D1:85D8       word_3A2E8
 21D1:85DA       word_3A2EA
 21D1:85DC       word_3A2EC
 21D1:85DE       word_3A2EE
 21D1:85E0       word_3A2F0
 21D1:85E4       unk_3A2F4
 21D1:85F4       unk_3A304
 21D1:8606       unk_3A316
 21D1:8610       unk_3A320
 21D1:861C       unk_3A32C
 21D1:8624       unk_3A334
 21D1:8636       unk_3A346
 21D1:863C       word_3A34C
 21D1:864C       unk_3A35C
 21D1:8650       unk_3A360
 21D1:8654       unk_3A364
 21D1:8680       unk_3A390
 21D1:86A4       unk_3A3B4
 21D1:86C6       unk_3A3D6
 21D1:86CC       unk_3A3DC
 21D1:86CE       unk_3A3DE
 21D1:86D4       unk_3A3E4
 21D1:86FC       unk_3A40C
 21D1:86FE       unk_3A40E
 21D1:8700       unk_3A410
 21D1:8704       unk_3A414
 21D1:8706       unk_3A416
 21D1:8714       unk_3A424
 21D1:8720       unk_3A430
 21D1:8730       unk_3A440
 21D1:8736       unk_3A446
 21D1:873C       unk_3A44C
 21D1:8744       unk_3A454
 21D1:876C       unk_3A47C
 21D1:8770       unk_3A480
 21D1:8774       unk_3A484
 21D1:878E       unk_3A49E
 21D1:8796       unk_3A4A6
 21D1:879C       unk_3A4AC
 21D1:87A0       unk_3A4B0
 21D1:87A4       arrConfigMomSettings
 21D1:87C4       unk_3A4D4
 21D1:87C6       unk_3A4D6
 21D1:87C8       word_3A4D8
 21D1:87CA       word_3A4DA
 21D1:87CC       word_3A4DC
 21D1:87CE       word_3A4DE
 21D1:87D0       word_3A4E0
 21D1:87D2       word_3A4E2
 21D1:87D4       MagSet_01
 21D1:87D6       MagSet_02
 21D1:87D8       MagSet_03
 21D1:87DA       MagSet_13
 21D1:87DC       MagSet_14
 21D1:87DE       MagSet_15
 21D1:87E0       MagSet_08
 21D1:87E2       MagSet_09
 21D1:87E4       MagSet_06
 21D1:87E6       MagSet_07
 21D1:87E8       MagSet_11
 21D1:87EA       MagSet_16
 21D1:87EC       MagSet_04
 21D1:87EE       MagSet_05
 21D1:87F0       MagSet_10
 21D1:87F2       MagSet_12
 21D1:87F4       MagSet_17
 21D1:87F6       MagSet_18
 21D1:87F8       LBX_FONTS_w3A508
 21D1:87FA       LBX_FONTS_w3A50A
 21D1:87FC       MagSet_20
 21D1:87FE       MagSet_21
 21D1:8800       MagSet_23
 21D1:8802       MagSet_22
 21D1:8804       idk_MagSet_w3A514
 21D1:8808       unk_3A518
 21D1:8826       unk_3A536
 21D1:883E       unk_3A54E
 21D1:8856       unk_3A566
 21D1:887E       unk_3A58E
 21D1:8886       unk_3A596
 21D1:88AE       unk_3A5BE
 21D1:88B4       MagSet_19
 21D1:88B6       tmpMagicSet
 21D1:88D0       unk_3A5E0
 21D1:88DE       unk_3A5EE
 21D1:88E4       unk_3A5F4
 21D1:88ED       unk_3A5FD
 21D1:88EE       unk_3A5FE
 21D1:891E       unk_3A62E
 21D1:8931       unk_3A641
 21D1:894E       unk_3A65E
 21D1:897E       word_3A68E
 21D1:898A       unk_3A69A
 21D1:8992       word_3A6A2
 21D1:89A6       word_3A6B6
 21D1:89A8       word_3A6B8
 21D1:89B2       word_3A6C2
 21D1:89B4       word_3A6C4
 21D1:89B6       word_3A6C6
 21D1:89B8       word_3A6C8
 21D1:89BA       word_3A6CA
 21D1:89BC       word_3A6CC
 21D1:89C2       dword_3A6D2
 21D1:89C6       dword_3A6D6
 21D1:89CA       dword_3A6DA
 21D1:89CE       dword_3A6DE
 21D1:89D2       dword_3A6E2
 21D1:89D6       dword_3A6E6
 21D1:89DA       dword_3A6EA
 21D1:89DE       dword_3A6EE
 21D1:89E2       dword_3A6F2
 21D1:89E6       dword_3A6F6
 21D1:89EA       word_3A6FA
 21D1:89EC       word_3A6FC
 21D1:89EE       word_3A6FE
 21D1:89F0       word_3A700
 21D1:89F2       dword_3A702
 21D1:89FC       word_3A70C
 21D1:8A02       word_3A712
 21D1:8A08       word_3A718
 21D1:8A0E       word_3A71E
 21D1:8A12       unk_3A722
 21D1:8A26       word_3A736
 21D1:8A2E       word_3A73E
 21D1:8A3A       idk_LoadLbx_w3A74A
 21D1:8A40       idk_LoadLbx_w3A750
 21D1:8A5A       word_3A76A
 21D1:8A74       word_3A784
 21D1:8A8E       word_3A79E
 21D1:8AA8       word_3A7B8
 21D1:8AC2       word_3A7D2
 21D1:8C40       unk_3A950
 21D1:8CA4       unk_3A9B4
 21D1:8CB8       unk_3A9C8
 21D1:8CD6       unk_3A9E6
 21D1:8D4E       word_3AA5E
 21D1:8D50       word_3AA60
 21D1:8DD6       word_3AAE6
 21D1:8DD8       word_3AAE8
 21D1:8DDA       word_3AAEA
 21D1:8DDC       word_3AAEC
 21D1:8DDE       word_3AAEE
 21D1:8DE0       word_3AAF0
 21D1:8DE2       word_3AAF2
 21D1:8E04       word_3AB14
 21D1:8E06       word_3AB16
 21D1:8E08       word_3AB18
 21D1:8E0A       word_3AB1A
 21D1:8E0C       word_3AB1C
 21D1:8E0E       word_3AB1E
 21D1:8E10       word_3AB20
 21D1:8E12       word_3AB22
 21D1:8E14       word_3AB24
 21D1:8E28       word_3AB38
 21D1:8E48       word_3AB58
 21D1:8E4A       idk_LBX_w3AB5A
 21D1:8E4C       idk_LBX_w3AB5C
 21D1:8E4E       idk_LBX_w3AB5E
 21D1:8E50       idk_LBX_w3AB60
 21D1:8E60       unk_3AB70
 21D1:8E68       idk_LBX_w3AB78
 21D1:8E8E       idk_LBX_w3AB9E
 21D1:8E90       word_3ABA0
 21D1:8E92       word_3ABA2
 21D1:8E94       word_3ABA4
 21D1:8E96       word_3ABA6
 21D1:8E98       word_3ABA8
 21D1:8E9C       word_3ABAC
 21D1:8E9E       word_3ABAE
 21D1:8EA0       word_3ABB0
 21D1:8EA2       word_3ABB2
 21D1:8EA4       word_3ABB4
 21D1:8EAA       word_3ABBA
 21D1:8EAC       word_3ABBC
 21D1:8EAE       word_3ABBE
 21D1:8F60       unk_3AC70
 21D1:8F90       unk_3ACA0
 21D1:8FC4       unk_3ACD4
 21D1:8FD0       unk_3ACE0
 21D1:8FD8       unk_3ACE8
 21D1:8FF4       unk_3AD04
 21D1:8FF6       unk_3AD06
 21D1:9008       unk_3AD18
 21D1:9026       unk_3AD36
 21D1:9034       unk_3AD44
 21D1:9040       word_3AD50
 21D1:9048       unk_3AD58
 21D1:904C       word_3AD5C
 21D1:904E       FLAG_w3AD5E
 21D1:9050       word_3AD60
 21D1:9052       word_3AD62
 21D1:9054       word_3AD64
 21D1:9056       word_3AD66
 21D1:9058       word_3AD68
 21D1:905A       word_3AD6A
 21D1:905C       word_3AD6C
 21D1:905E       word_3AD6E
 21D1:9066       unk_3AD76
 21D1:9074       word_3AD84
 21D1:9076       word_3AD86
 21D1:9078       word_3AD88
 21D1:907A       word_3AD8A
 21D1:907C       word_3AD8C
 21D1:9080       word_3AD90
 21D1:9082       word_3AD92
 21D1:9084       word_3AD94
 21D1:9086       word_3AD96
 21D1:9088       word_3AD98
 21D1:908A       word_3AD9A
 21D1:908C       word_3AD9C
 21D1:908E       word_3AD9E
 21D1:9090       word_3ADA0
 21D1:9092       word_3ADA2
 21D1:9094       word_3ADA4
 21D1:9096       word_3ADA6
 21D1:9098       word_3ADA8
 21D1:909A       word_3ADAA
 21D1:909C       word_3ADAC
 21D1:909E       word_3ADAE
 21D1:90A0       word_3ADB0
 21D1:90A2       word_3ADB2
 21D1:90A6       word_3ADB6
 21D1:90A8       word_3ADB8
 21D1:90AA       word_3ADBA
 21D1:90AC       word_3ADBC
 21D1:90AE       word_3ADBE
 21D1:90B0       word_3ADC0
 21D1:90B2       word_3ADC2
 21D1:90B4       word_3ADC4
 21D1:90B6       word_3ADC6
 21D1:90B8       word_3ADC8
 21D1:90BA       word_3ADCA
 21D1:90BC       word_3ADCC
 21D1:90BE       word_3ADCE
 21D1:90C0       word_3ADD0
 21D1:90C2       word_3ADD2
 21D1:90C4       word_3ADD4
 21D1:90C6       word_3ADD6
 21D1:90C8       word_3ADD8
 21D1:90CA       word_3ADDA
 21D1:90CC       word_3ADDC
 21D1:90CE       word_3ADDE
 21D1:90D0       word_3ADE0
 21D1:90D2       word_3ADE2
 21D1:90D4       word_3ADE4
 21D1:90E8       word_3ADF8
 21D1:90EA       word_3ADFA
 21D1:90FC       word_3AE0C
 21D1:90FE       word_3AE0E
 21D1:9100       word_3AE10
 21D1:9102       word_3AE12
 21D1:9104       word_3AE14
 21D1:9106       word_3AE16
 21D1:9108       word_3AE18
 21D1:910A       word_3AE1A
 21D1:910C       word_3AE1C
 21D1:910E       word_3AE1E
 21D1:9110       word_3AE20
 21D1:9112       word_3AE22
 21D1:9114       word_3AE24
 21D1:9128       unk_3AE38
 21D1:9146       unk_3AE56
 21D1:91E0       unk_3AEF0
 21D1:9210       unk_3AF20
 21D1:9244       unk_3AF54
 21D1:9258       unk_3AF68
 21D1:9274       unk_3AF84
 21D1:9276       unk_3AF86
 21D1:9288       unk_3AF98
 21D1:92A0       unk_3AFB0
 21D1:92A6       unk_3AFB6
 21D1:92C2       unk_3AFD2
 21D1:92E0       unk_3AFF0
 21D1:9304       unk_3B014
 21D1:9310       unk_3B020
 21D1:9318       unk_3B028
 21D1:9336       unk_3B046
 21D1:9344       unk_3B054
 21D1:9358       unk_3B068
 21D1:9374       unk_3B084
 21D1:9376       unk_3B086
 21D1:9388       unk_3B098
 21D1:9390       unk_3B0A0
 21D1:93A6       unk_3B0B6
 21D1:93C0       unk_3B0D0
 21D1:93F4       unk_3B104
 21D1:9400       unk_3B110
 21D1:9408       unk_3B118
 21D1:9424       unk_3B134
 21D1:9426       unk_3B136
 21D1:942C       unk_3B13C
 21D1:9430       unk_3B140
 21D1:9438       unk_3B148
 21D1:9452       unk_3B162
 21D1:9456       unk_3B166
 21D1:945C       unk_3B16C
 21D1:9460       unk_3B170
 21D1:9464       unk_3B174
 21D1:9478       unk_3B188
 21D1:9484       word_3B194
 21D1:9486       word_3B196
 21D1:948A       word_3B19A
 21D1:948C       word_3B19C
 21D1:948E       idl_OVL_w3B19E
 21D1:9490       idk_EmmRsrvExcdErrMsg
 21D1:9494       unk_3B1A4
 21D1:9496       unk_3B1A6
 21D1:94A8       unk_3B1B8
 21D1:94C4       unk_3B1D4
 21D1:94C6       unk_3B1D6
 21D1:94D8       unk_3B1E8
 21D1:94F4       idk_ItoAbuf_w3B204
 21D1:94F6       unk_3B206
 21D1:9508       idk_EmsErrStr_w3B218
 21D1:9526       idk_EmsErrStr_w3B236
 21D1:9640       unk_3B350
 21D1:96B6       unk_3B3C6
 21D1:96D0       unk_3B3E0
 21D1:9728       unk_3B438
 21D1:9740       unk_3B450
 21D1:975E       unk_3B46E
 21D1:97B0       unk_3B4C0
 21D1:97F0       unk_3B500
 21D1:97FE       unk_3B50E
 21D1:9804       unk_3B514
 21D1:980E       unk_3B51E
 21D1:983F       unk_3B54F
 21D1:9851       unk_3B561
 21D1:98AA       unk_3B5BA
 21D1:9AD0       unk_3B7E0
 21D1:9B00       unk_3B810
 21D1:9B40       unk_3B850
 21D1:9C20       unk_3B930
 21D1:9D50       unk_3BA60
 21D1:9D7C       unk_3BA8C
 21D1:9D80       unk_3BA90
 21D1:9DA2       unk_3BAB2
 21D1:9DAC       unk_3BABC
 21D1:9E10       unk_3BB20
 21D1:9E50       unk_3BB60
 21D1:9E80       unk_3BB90
 21D1:9F00       unk_3BC10
 21D1:9F30       unk_3BC40
 21D1:9F40       unk_3BC50
 21D1:9F70       unk_3BC80
 21D1:9F90       unk_3BCA0
 21D1:9FA0       unk_3BCB0
 21D1:9FD0       unk_3BCE0
 21D1:A000       unk_3BD10
 21D1:A006       unk_3BD16
 21D1:A020       unk_3BD30
 21D1:A078       unk_3BD88
 21D1:A09C       unk_3BDAC
 21D1:A0AE       unk_3BDBE
 21D1:A0C2       unk_3BDD2
 21D1:A0CC       unk_3BDDC
 21D1:A0F2       unk_3BE02
 21D1:A0FC       unk_3BE0C
 21D1:A10C       unk_3BE1C
 21D1:A132       unk_3BE42
 21D1:A13C       unk_3BE4C
 21D1:A140       unk_3BE50
 21D1:A14E       unk_3BE5E
 21D1:A154       unk_3BE64
 21D1:A15E       unk_3BE6E
 21D1:A1A1       unk_3BEB1
 21D1:A1EC       unk_3BEFC
 21D1:A1FA       unk_3BF0A
 21D1:A212       unk_3BF22
 21D1:A21C       unk_3BF2C
 21D1:A2B0       unk_3BFC0
 21D1:A2E0       unk_3BFF0
 21D1:A31C       unk_3C02C
 21D1:A320       unk_3C030
 21D1:A326       unk_3C036
 21D1:A340       unk_3C050
 21D1:A342       unk_3C052
 21D1:A34C       unk_3C05C
 21D1:A356       unk_3C066
 21D1:A5C0       g_FarHeapAllocOffset
 21D1:A5C2       g_FarHeapAllocSegment
 21D1:A5C4       g_RequiredMEM_583B
 21D1:A5C6       g_CurrentLbxEntryCount
 21D1:A5C8       g_CurrentLbxFilePosition
 21D1:A5CA       g_ptrBufferReadFile
 21D1:A5CC       g_CurrentLbxFileNameBase
 21D1:A5CE       unk_3C2DE
 21D1:A5D6       unk_3C2E6
 21D1:A5DC       SvGm_NbrBytWrt
 21D1:A5DE       ptrDosFileHandle
 21D1:A5E0       word_3C2F0
 21D1:A5E2       word_3C2F2
 21D1:A5E4       word_3C2F4
 21D1:A5E6       EmsHndl_w3C2F6
 21D1:A5EA       idk_AddrEmsHandle
 21D1:A5EC       idk_LBX_w3C2FC
 21D1:A5EE       idk_EMM_w3C2FE
 21D1:A5F0       word_3C300
 21D1:A5F2       Emm_PgCnt_w3C302
 21D1:A5FB       idk_LBX_b3C30B
 21D1:A5FC       idk_LBX_w3C30C
 21D1:A5FE       idk_LBX_w3C30E
 21D1:A607       idk_LBX_b3C317
 21D1:A608       idk_LBX_w3C318
 21D1:A611       unk_3C321
 21D1:A618       unk_3C328
 21D1:A630       unk_3C340
 21D1:A648       unk_3C358
 21D1:A64E       unk_3C35E
 21D1:A660       unk_3C370
 21D1:A666       unk_3C376
 21D1:A66A       unk_3C37A
 21D1:A67E       unk_3C38E
 21D1:A680       unk_3C390
 21D1:A6A6       unk_3C3B6
 21D1:A6C0       unk_3C3D0
 21D1:A6D6       unk_3C3E6
 21D1:A6D8       unk_3C3E8
 21D1:A6E0       unk_3C3F0
 21D1:A6EE       unk_3C3FE
 21D1:A6F0       unk_3C400
 21D1:A6F4       unk_3C404
 21D1:A6FE       unk_3C40E
 21D1:A70E       unk_3C41E
 21D1:A710       unk_3C420
 21D1:A718       unk_3C428
 21D1:A71E       unk_3C42E
 21D1:A724       unk_3C434
 21D1:A72E       unk_3C43E
 21D1:A741       unk_3C451
 21D1:A748       unk_3C458
 21D1:A74E       unk_3C45E
 21D1:A750       unk_3C460
 21D1:A756       unk_3C466
 21D1:A75F       unk_3C46F
 21D1:A770       unk_3C480
 21D1:A771       unk_3C481
 21D1:A77E       unk_3C48E
 21D1:A780       unk_3C490
 21D1:A786       unk_3C496
 21D1:A79A       unk_3C4AA
 21D1:A7A0       unk_3C4B0
 21D1:A7AE       unk_3C4BE
 21D1:A7B0       unk_3C4C0
 21D1:A7B4       unk_3C4C4
 21D1:A7BE       unk_3C4CE
 21D1:A7C6       unk_3C4D6
 21D1:A7C8       unk_3C4D8
 21D1:A7CA       unk_3C4DA
 21D1:A7D2       nRequiredEMS_2700
 21D1:A7D4       idk_FontsLbx1_32B
 21D1:A7D6       idk_FontsLbx1_1024_@48
 21D1:A7D8       ptrFontsLbx2_@336
 21D1:A7DA       idk_FontsLbx1_6144B
 21D1:A7DC       idk_FontsLbx1_768B
 21D1:A7DE       idk_FontsLbx1_1024B
 21D1:A7E0       g_FontsFileName
 21D1:A7EE       unk_3C4FE
 21D1:A7F0       idk_FontsLbx1_e_96
 21D1:A7F2       ptrFontsLbx2
 21D1:A7F4       idk_FontsLbx1_5568
 21D1:A7F6       unk_3C506
 21D1:A7F8       unk_3C508
 21D1:A7FE       unk_3C50E
 21D1:A801       unk_3C511
 21D1:A806       byte_3C516
 21D1:A807       byte_3C517
 21D1:A808       byte_3C518
 21D1:A809       byte_3C519
 21D1:A80A       word_3C51A
 21D1:A80C       word_3C51C
 21D1:A80E       idk_w3C51E
 21D1:A810       idk_w3C520
 21D1:A812       word_3C522
 21D1:A814       word_3C524
 21D1:A816       bufFontsLbxEntry0
 21D1:A818       bufFontsLbxEntry1
 21D1:A81A       ptrFontsLbx2_@80
 21D1:A81C       ptrFontsLbx2_@64
 21D1:A81E       ptrFontsLbx2_@48
 21D1:A820       dword_3C530
 21D1:A824       dword_3C534
 21D1:A828       dword_3C538
 21D1:A82C       dword_3C53C
 21D1:A830       word_3C540
 21D1:A832       word_3C542
 21D1:A838       unk_3C548
 21D1:A83A       word_3C54A
 21D1:A840       unk_3C550
 21D1:A841       unk_3C551
 21D1:A842       word_3C552
 21D1:A84A       word_3C55A
 21D1:A852       word_3C562
 21D1:A854       idk_PalNbr_w3C564
 21D1:A856       g_IntroLbxFileName
 21D1:A85A       unk_3C56A
 21D1:A866       g_IntroLbxEntryNumber
 21D1:A868       idk_Flag_w3C578
 21D1:A86A       word_3C57A
 21D1:A86C       word_3C57C
 21D1:A86E       word_3C57E
 21D1:A870       idk2_b3C580
 21D1:A88E       word_3C59E
 21D1:A890       idk_MousePosX_w3C5A0
 21D1:A892       idk_MousePosX_w3C5A2
 21D1:A894       idk_Mouse_w3C5A4
 21D1:A896       word_3C5A6
 21D1:A898       idk_Mouse_w3C5A8
 21D1:A89A       word_3C5AA
 21D1:A89C       word_3C5AC
 21D1:A89E       dword_3C5AE
 21D1:A8A2       idk2_dw3C5B2
 21D1:A8A6       word_3C5B6
 21D1:A8AE       unk_3C5BE
 21D1:A8C0       itr_tokens_AIDT
 21D1:A8C2       byte_3C5D2
 21D1:A8C3       byte_3C5D3
 21D1:A8C4       word_3C5D4
 21D1:A8C6       word_3C5D6
 21D1:A8C8       idk_FAT_FileExtension_w3C5D8
 21D1:A8CA       unk_3C5DA
 21D1:A8CE       unk_3C5DE
 21D1:A8D4       unk_3C5E4
 21D1:A8DE       dword_3C5EE
 21D1:A8E2       word_3C5F2
 21D1:A8E4       word_3C5F4
 21D1:A8E6       AIL_driver_base_addr2a
 21D1:A8E8       AIL_driver_base_addr2b
 21D1:A8EA       AIL_driver_base_addr1a
 21D1:A8EC       AIL_driver_base_addr1b
 21D1:A8EE       idk_AIL_DrvDesc2_d3C5FE
 21D1:A8F2       idk_AIL_DrvDesc1_d3C602
 21D1:A8F6       LdSndDrv_w3C606
 21D1:A8F8       LdSndDrv_w3C608
 21D1:A8FA       word_3C60A
 21D1:A8FC       word_3C60C
 21D1:A8FE       idk_FileName_w3C60E
 21D1:A900       unk_3C610
 21D1:A90E       idk_DosFileHandle_w3C61E
 21D1:A910       _atexittbl
 21D1:A990       unk_3C6A0
 21D1:A991       unk_3C6A1
 21D1:A99E       unk_3C6AE
 21D1:A9A4       unk_3C6B4
 21D1:A9AE       byte_3C6BE
 21D1:A9AF       byte_3C6BF
 21D1:A9BA       unk_3C6CA
 21D1:A9C1       unk_3C6D1
 21D1:A9EA       unk_3C6FA
 21D1:A9F1       unk_3C701
 21D1:A9F5       unk_3C705
 21D1:AA1A       unk_3C72A
 21D1:AA46       fgetc_b3C756
 21D1:AA48       fputc_b3C758
 2C76:0000       byte_3C760
 2C7E:0000       OVR_SaveGame_MagicSet
 2C7E:0300       loc_3CAE0
 2C7E:03F2       loc_3CBD2
 2C7E:03F8       ST_LoadSaveGamByNbr
 2C7E:0458       loc_3CC38
 2C7E:045B       loc_3CC3B
 2C7E:046C       loc_3CC4C
 2C7E:046D       loc_3CC4D
 2C7E:04C8       loc_3CCA8
 2C7E:04DD       loc_3CCBD
 2C7E:055A       loc_3CD3A
 2C7E:07BF       loc_3CF9F
 2C7E:07D3       loc_3CFB3
 2CFC:0000       sub_3CFC0
 2CFC:0006       loc_3CFC6
 2CFC:004C       loc_3D00C
 2CFC:006B       loc_3D02B
 2CFC:0070       loc_3D030
 2CFC:0074       loc_3D034
 2CFC:0093       loc_3D053
 2CFC:0098       loc_3D058
 2CFC:009C       loc_3D05C
 2CFC:00BB       loc_3D07B
 2CFC:00C0       loc_3D080
 2CFC:00DA       Read_MagicSet
 2CFC:010C       loc_3D0CC
 2CFC:011F       loc_3D0DF
 2CFC:0121       loc_3D0E1
 2CFC:0126       loc_3D0E6
 2CFC:013F       loc_3D0FF
 2CFC:014B       loc_3D10B
 2CFC:015A       loc_3D11A
 2CFC:015C       loc_3D11C
 2CFC:015F       loc_3D11F
 2CFC:0164       loc_3D124
 2CFC:0170       loc_3D130
 2CFC:017F       loc_3D13F
 2CFC:0186       loc_3D146
 2CFC:018E       loc_3D14E
 2CFC:01A2       loc_3D162
 2CFC:01AF       loc_3D16F
 2CFC:01D0       loc_3D190
 2CFC:01E5       loc_3D1A5
 2CFC:01F5       loc_3D1B5
 2CFC:01FD       loc_3D1BD
 2CFC:0200       loc_3D1C0
 2CFC:0203       loc_3D1C3
 2CFC:0220       loc_3D1E0
 2CFC:022C       loc_3D1EC
 2CFC:022D       loc_3D1ED
 2CFC:0241       loc_3D201
 2CFC:0246       loc_3D206
 2CFC:026E       loc_3D22E
 2CFC:027D       loc_3D23D
 2CFC:0295       loc_3D255
 2CFC:029D       loc_3D25D
 2CFC:02AA       loc_3D26A
 2CFC:02AF       loc_3D26F
 2CFC:02B8       Write_MagicSet
 2CFC:02EF       loc_3D2AF
 2CFC:02F3       loc_3D2B3
 2CFC:02FE       loc_3D2BE
 2CFC:0301       loc_3D2C1
 2CFC:0307       loc_3D2C7
 2CFC:0322       loc_3D2E2
 2CFC:0330       loc_3D2F0
 2CFC:034A       loc_3D30A
 2CFC:034B       loc_3D30B
 2CFC:035F       loc_3D31F
 2CFC:0362       loc_3D322
 2CFC:0382       loc_3D342
 2CFC:038C       loc_3D34C
 2CFC:0395       loc_3D355
 2CFC:039F       loc_3D35F
 2CFC:03AC       loc_3D36C
 2CFC:03B8       sub_3D378
 2CFC:03C3       loc_3D383
 2CFC:03CD       loc_3D38D
 2CFC:03D5       loc_3D395
 2CFC:03D9       loc_3D399
 2CFC:03E7       loc_3D3A7
 2CFC:03F1       loc_3D3B1
 2CFC:041C       loc_3D3DC
 2CFC:043D       loc_3D3FD
 2CFC:044D       loc_3D40D
 2CFC:044F       loc_3D40F
 2CFC:0454       loc_3D414
 2CFC:045C       loc_3D41C
 2CFC:0466       loc_3D426
 2CFC:046B       loc_3D42B
 2CFC:046D       loc_3D42D
 2CFC:046F       loc_3D42F
 2CFC:047F       loc_3D43F
 2CFC:0493       loc_3D453
 2CFC:049F       loc_3D45F
 2CFC:04A3       loc_3D463
 2CFC:04BC       loc_3D47C
 2CFC:04BF       loc_3D47F
 2CFC:04C5       loc_3D485
 2CFC:04CD       loc_3D48D
 2CFC:04DD       loc_3D49D
 2CFC:04ED       loc_3D4AD
 2CFC:04F0       loc_3D4B0
 2CFC:04FA       loc_3D4BA
 2CFC:04FE       loc_3D4BE
 2CFC:051A       loc_3D4DA
 2CFC:0520       loc_3D4E0
 2CFC:052A       loc_3D4EA
 2CFC:053F       loc_3D4FF
 2CFC:054F       loc_3D50F
 2CFC:0563       loc_3D523
 2CFC:0573       loc_3D533
 2CFC:057A       loc_3D53A
 2CFC:057E       loc_3D53E
 2CFC:058C       loc_3D54C
 2CFC:0595       loc_3D555
 2CFC:05A7       loc_3D567
 2CFC:05B9       loc_3D579
 2CFC:05BF       loc_3D57F
 2CFC:05C9       loc_3D589
 2CFC:05D8       loc_3D598
 2CFC:05E2       loc_3D5A2
 2CFC:05EE       loc_3D5AE
 2CFC:05F4       loc_3D5B4
 2CFC:05F8       loc_3D5B8
 2CFC:061E       loc_3D5DE
 2CFC:0626       loc_3D5E6
 2CFC:0629       loc_3D5E9
 2CFC:064E       loc_3D60E
 2CFC:0689       loc_3D649
 2CFC:06A7       loc_3D667
 2CFC:0729       loc_3D6E9
 2CFC:079E       loc_3D75E
 2CFC:07CE       loc_3D78E
 2CFC:07EC       loc_3D7AC
 2CFC:0800       loc_3D7C0
 2CFC:081E       loc_3D7DE
 2CFC:0827       ST_MagicSet_ReadCreateWrite
 2CFC:0850       CHECK_SIZE
 2CFC:0855       DNE_MAGIC_SET
 2CFC:087F       SIZE_GOOD
 2CFC:08A2       loc_3D862
 2CFC:08B9       loc_3D879
 2CFC:08C6       loc_3D886
 2CFC:08D3       loc_3D893
 2CFC:08E0       loc_3D8A0
 2CFC:08EB       loc_3D8AB
 2CFC:0916       LOOP_x10
 2CFC:0948       loc_3D908
 2CFC:094E       ST_DefaultMagicSet
 2CFC:09EC       loc_3D9AC
 2CFC:09F7       LOOP_x8
 2CFC:0A00       loc_3D9C0
 2CFC:0A2B       LOOP_x10
 2CFC:0A33       LBX_HelpEntry_s3D9F3
 2DA3:0000       sub_3DA30
 2DA3:0006       loc_3DA36
 2DA3:000E       loc_3DA3E
 2DA3:002A       loc_3DA5A
 2DA3:0038       loc_3DA68
 2DA3:0040       loc_3DA70
 2DA3:0043       loc_3DA73
 2DA3:0045       loc_3DA75
 2DA3:0048       loc_3DA78
 2DA3:004C       loc_3DA7C
 2DA3:004E       loc_3DA7E
 2DA3:0051       loc_3DA81
 2DA3:0052       loc_3DA82
 2DA3:0056       loc_3DA86
 2DA3:0058       loc_3DA88
 2DA3:005A       loc_3DA8A
 2DA3:005C       loc_3DA8C
 2DA3:005F       loc_3DA8F
 2DA3:0061       loc_3DA91
 2DA3:0064       loc_3DA94
 2DA3:0066       loc_3DA96
 2DA3:0069       loc_3DA99
 2DA3:006B       loc_3DA9B
 2DA3:006D       loc_3DA9D
 2DA3:006F       loc_3DA9F
 2DA3:0070       loc_3DAA0
 2DA3:0071       loc_3DAA1
 2DA3:0074       loc_3DAA4
 2DA3:0076       loc_3DAA6
 2DA3:0078       loc_3DAA8
 2DA3:007F       loc_3DAAF
 2DA3:0089       loc_3DAB9
 2DA3:008B       loc_3DABB
 2DA3:008E       loc_3DABE
 2DA3:0090       loc_3DAC0
 2DA3:0095       loc_3DAC5
 2DA3:0098       loc_3DAC8
 2DA3:009A       loc_3DACA
 2DA3:009D       loc_3DACD
 2DA3:009F       loc_3DACF
 2DA3:00A0       loc_3DAD0
 2DA3:00A6       loc_3DAD6
 2DA3:00A8       loc_3DAD8
 2DA3:00AB       loc_3DADB
 2DA3:00AD       loc_3DADD
 2DA3:00AE       loc_3DADE
 2DA3:00B4       loc_3DAE4
 2DA3:00B9       loc_3DAE9
 2DA3:00BB       loc_3DAEB
 2DA3:00BD       loc_3DAED
 2DA3:00C0       loc_3DAF0
 2DA3:00C2       loc_3DAF2
 2DA3:00C5       loc_3DAF5
 2DA3:00C7       loc_3DAF7
 2DA3:00C8       loc_3DAF8
 2DA3:00CC       loc_3DAFC
 2DA3:00CE       loc_3DAFE
 2DA3:00D5       loc_3DB05
 2DA3:00DE       loc_3DB0E
 2DA3:0101       loc_3DB31
 2DA3:0107       word_3DB37
 2DA3:011B       off_3DB4B
 2DA3:012F       sub_3DB5F
 2DA3:015B       loc_3DB8B
 2DA3:0176       sub_3DBA6
 2DA3:02B6       loc_3DCE6
 2DA3:02BB       loc_3DCEB
 2DA3:02DE       loc_3DD0E
 2DA3:02EC       loc_3DD1C
 2DA3:02FD       loc_3DD2D
 2DA3:0302       loc_3DD32
 2DA3:0308       loc_3DD38
 2DA3:0344       loc_3DD74
 2DA3:0395       loc_3DDC5
 2DA3:03A8       loc_3DDD8
 2DA3:03B4       loc_3DDE4
 2DA3:03B5       loc_3DDE5
 2DA3:03BE       loc_3DDEE
 2DA3:03C2       loc_3DDF2
 2DA3:03C5       loc_3DDF5
 2DA3:03CC       loc_3DDFC
 2DA3:03D5       loc_3DE05
 2DA3:03D9       loc_3DE09
 2DA3:03E8       loc_3DE18
 2DA3:03F1       loc_3DE21
 2DA3:0423       loc_3DE53
 2DA3:046C       loc_3DE9C
 2DA3:0472       loc_3DEA2
 2DA3:0483       loc_3DEB3
 2DA3:0498       loc_3DEC8
 2DA3:049A       loc_3DECA
 2DA3:04A9       loc_3DED9
 2DA3:04AC       loc_3DEDC
 2DA3:04B5       loc_3DEE5
 2DA3:04B6       loc_3DEE6
 2DA3:04C7       loc_3DEF7
 2DA3:04CC       loc_3DEFC
 2DA3:04D4       loc_3DF04
 2DA3:04F5       loc_3DF25
 2DA3:0503       loc_3DF33
 2DA3:0511       loc_3DF41
 2DA3:053B       loc_3DF6B
 2DA3:0545       loc_3DF75
 2DA3:054C       loc_3DF7C
 2DA3:055C       sub_3DF8C
 2DA3:0582       loc_3DFB2
 2DA3:058E       loc_3DFBE
 2DA3:05BE       loc_3DFEE
 2DA3:05D9       loc_3E009
 2DA3:0601       loc_3E031
 2DA3:066B       loc_3E09B
 2DA3:067E       loc_3E0AE
 2DA3:0689       loc_3E0B9
 2DA3:06BA       loc_3E0EA
 2DA3:06C3       loc_3E0F3
 2DA3:06D9       loc_3E109
 2DA3:06E4       loc_3E114
 2DA3:0703       loc_3E133
 2DA3:070E       loc_3E13E
 2DA3:0734       loc_3E164
 2DA3:073F       loc_3E16F
 2DA3:074A       loc_3E17A
 2DA3:075E       loc_3E18E
 2DA3:07AE       sub_3E1DE
 2DA3:07C8       loc_3E1F8
 2DA3:08EF       loc_3E31F
 2DA3:08F6       loc_3E326
 2DA3:08FE       loc_3E32E
 2DA3:0923       loc_3E353
 2DA3:0931       loc_3E361
 2DA3:0937       loc_3E367
 2DA3:093C       loc_3E36C
 2DA3:0945       loc_3E375
 2DA3:094B       loc_3E37B
 2DA3:0959       loc_3E389
 2DA3:095F       loc_3E38F
 2DA3:096D       loc_3E39D
 2DA3:0973       loc_3E3A3
 2DA3:09BB       loc_3E3EB
 2DA3:0A0D       loc_3E43D
 2DA3:0A8A       loc_3E4BA
 2DA3:0ABB       loc_3E4EB
 2DA3:0ADA       loc_3E50A
 2DA3:0ADD       loc_3E50D
 2DA3:0B3D       loc_3E56D
 2DA3:0B54       loc_3E584
 2DA3:0B6B       loc_3E59B
 2DA3:0B82       loc_3E5B2
 2DA3:0B99       loc_3E5C9
 2DA3:0BC5       loc_3E5F5
 2DA3:0BCF       loc_3E5FF
 2DA3:0BD8       loc_3E608
 2DA3:0BDE       sub_3E60E
 2DA3:0C35       loc_3E665
 2DA3:0C90       loc_3E6C0
 2DA3:0D0F       loc_3E73F
 2DA3:0D5A       loc_3E78A
 2DA3:0D64       loc_3E794
 2DA3:0D96       loc_3E7C6
 2DA3:0DA7       loc_3E7D7
 2DA3:0DFB       loc_3E82B
 2DA3:0E07       loc_3E837
 2DA3:0E25       loc_3E855
 2DA3:0E74       loc_3E8A4
 2DA3:0ED9       loc_3E909
 2DA3:0F07       loc_3E937
 2DA3:0F49       loc_3E979
 2DA3:0F52       loc_3E982
 2DA3:0FB7       loc_3E9E7
 2DA3:0FFE       loc_3EA2E
 2DA3:1030       loc_3EA60
 2DA3:1095       loc_3EAC5
 2DA3:10A2       sub_3EAD2
 2DA3:10D8       loc_3EB08
 2DA3:10EC       loc_3EB1C
 2DA3:1158       loc_3EB88
 2DA3:1161       loc_3EB91
 2DA3:116C       loc_3EB9C
 2DA3:1170       sub_3EBA0
 2DA3:1186       loc_3EBB6
 2DA3:1189       loc_3EBB9
 2DA3:119C       loc_3EBCC
 2DA3:11A3       loc_3EBD3
 2DA3:11C2       loc_3EBF2
 2DA3:11D4       loc_3EC04
 2DA3:11DB       loc_3EC0B
 2DA3:11EF       loc_3EC1F
 2DA3:120E       loc_3EC3E
 2DA3:1247       loc_3EC77
 2DA3:127E       loc_3ECAE
 2DA3:1287       loc_3ECB7
 2DA3:12BE       loc_3ECEE
 2DA3:12C0       loc_3ECF0
 2DA3:12EE       loc_3ED1E
 2DA3:12F1       loc_3ED21
 2DA3:12F8       loc_3ED28
 2DA3:1305       loc_3ED35
 2DA3:131C       loc_3ED4C
 2DA3:131E       loc_3ED4E
 2DA3:1322       loc_3ED52
 2DA3:1345       loc_3ED75
 2DA3:1346       loc_3ED76
 2DA3:1363       loc_3ED93
 2DA3:1388       loc_3EDB8
 2DA3:1392       loc_3EDC2
 2DA3:139B       loc_3EDCB
 2DA3:13A1       sub_3EDD1
 2DA3:13EC       loc_3EE1C
 2DA3:142D       loc_3EE5D
 2DA3:1430       loc_3EE60
 2DA3:14EE       loc_3EF1E
 2DA3:152C       loc_3EF5C
 2DA3:153A       loc_3EF6A
 2DA3:1562       loc_3EF92
 2DA3:1567       loc_3EF97
 2DA3:1593       loc_3EFC3
 2DA3:15A0       loc_3EFD0
 2DA3:15AA       loc_3EFDA
 2DA3:15AF       loc_3EFDF
 2DA3:15B8       loc_3EFE8
 2DA3:15E4       loc_3F014
 2DA3:15E9       loc_3F019
 2DA3:15EF       loc_3F01F
 2DA3:1602       loc_3F032
 2DA3:1605       loc_3F035
 2DA3:1613       loc_3F043
 2DA3:1614       loc_3F044
 2DA3:1619       loc_3F049
 2DA3:161D       loc_3F04D
 2DA3:1621       loc_3F051
 2DA3:1627       loc_3F057
 2DA3:1661       loc_3F091
 2DA3:1663       loc_3F093
 2DA3:166B       loc_3F09B
 2DA3:1682       loc_3F0B2
 2DA3:1694       loc_3F0C4
 2DA3:1698       loc_3F0C8
 2DA3:169D       loc_3F0CD
 2DA3:16A1       loc_3F0D1
 2DA3:16E1       loc_3F111
 2DA3:1715       loc_3F145
 2DA3:171F       loc_3F14F
 2DA3:1727       loc_3F157
 2DA3:1739       loc_3F169
 2DA3:173E       loc_3F16E
 2DA3:17C2       loc_3F1F2
 2DA3:17D4       loc_3F204
 2DA3:17E9       loc_3F219
 2DA3:183A       loc_3F26A
 2DA3:1844       loc_3F274
 2DA3:184C       loc_3F27C
 2DA3:1860       loc_3F290
 2DA3:186A       loc_3F29A
 2DA3:1874       loc_3F2A4
 2DA3:189A       loc_3F2CA
 2DA3:18F4       loc_3F324
 2DA3:1905       loc_3F335
 2DA3:190F       loc_3F33F
 2DA3:1990       loc_3F3C0
 2DA3:1996       sub_3F3C6
 2DA3:19BB       loc_3F3EB
 2DA3:19DE       loc_3F40E
 2DA3:1A26       loc_3F456
 2DA3:1A62       loc_3F492
 2DA3:1A6F       loc_3F49F
 2DA3:1AAB       loc_3F4DB
 2DA3:1AE4       loc_3F514
 2DA3:1AFC       loc_3F52C
 2DA3:1AFE       loc_3F52E
 2DA3:1B05       loc_3F535
 2DA3:1B3D       loc_3F56D
 2DA3:1B40       loc_3F570
 2DA3:1B64       loc_3F594
 2DA3:1B6E       loc_3F59E
 2DA3:1B75       loc_3F5A5
 2DA3:1B7A       loc_3F5AA
 2DA3:1B80       idk_Load_NEWGAME_LBX
 2DA3:1C66       loc_3F696
 2DA3:1C83       loc_3F6B3
 2DA3:1C87       loc_3F6B7
 2DA3:1C8B       loc_3F6BB
 2DA3:1C8F       sub_3F6BF
 2DA3:1D0A       loc_3F73A
 2DA3:1D77       loc_3F7A7
 2DA3:1D7A       loc_3F7AA
 2DA3:1D87       loc_3F7B7
 2DA3:1D8C       loc_3F7BC
 2DA3:1D8E       loc_3F7BE
 2DA3:1D9A       loc_3F7CA
 2DA3:1DA4       loc_3F7D4
 2DA3:1DA8       sub_3F7D8
 2DA3:1DC6       loc_3F7F6
 2DA3:1DC9       loc_3F7F9
 2DA3:1DEC       loc_3F81C
 2DA3:1DF3       loc_3F823
 2DA3:1DF9       loc_3F829
 2DA3:1E00       loc_3F830
 2DA3:1E09       loc_3F839
 2DA3:1E0B       loc_3F83B
 2DA3:1E0D       loc_3F83D
 2DA3:1E12       loc_3F842
 2DA3:1E36       loc_3F866
 2DA3:1E4D       loc_3F87D
 2DA3:1E61       loc_3F891
 2DA3:1E69       loc_3F899
 2DA3:1E6C       loc_3F89C
 2DA3:1E74       loc_3F8A4
 2DA3:1E78       loc_3F8A8
 2DA3:1E7C       loc_3F8AC
 2DA3:1E80       loc_3F8B0
 2DA3:1E84       loc_3F8B4
 2DA3:1EB9       loc_3F8E9
 2DA3:1EC2       loc_3F8F2
 2DA3:1EE1       loc_3F911
 2DA3:1EF8       loc_3F928
 2DA3:1F01       loc_3F931
 2DA3:1F02       loc_3F932
 2DA3:1F05       loc_3F935
 2DA3:1F08       loc_3F938
 2DA3:1F21       loc_3F951
 2DA3:1F39       loc_3F969
 2DA3:1F3C       loc_3F96C
 2DA3:1F40       loc_3F970
 2DA3:1F5B       loc_3F98B
 2DA3:1F60       loc_3F990
 2DA3:1F62       loc_3F992
 2DA3:1F69       loc_3F999
 2DA3:1F70       loc_3F9A0
 2DA3:1F77       loc_3F9A7
 2DA3:1F7E       loc_3F9AE
 2DA3:1F81       loc_3F9B1
 2DA3:1F82       loc_3F9B2
 2DA3:1FAA       loc_3F9DA
 2DA3:1FB4       loc_3F9E4
 2DA3:1FBB       loc_3F9EB
 2DA3:1FCB       loc_3F9FB
 2DA3:1FD2       off_3FA02
 2DA3:1FDC       sub_3FA0C
 2DA3:1FE9       loc_3FA19
 2DA3:201A       loc_3FA4A
 2DA3:2048       loc_3FA78
 2DA3:2058       loc_3FA88
 2DA3:2074       loc_3FAA4
 2DA3:208A       loc_3FABA
 2DA3:20BA       loc_3FAEA
 2DA3:20DC       loc_3FB0C
 2DA3:20EA       loc_3FB1A
 2DA3:20FB       loc_3FB2B
 2DA3:2105       loc_3FB35
 2DA3:2124       loc_3FB54
 2DA3:212E       loc_3FB5E
 2DA3:214D       loc_3FB7D
 2DA3:2157       loc_3FB87
 2DA3:2176       loc_3FBA6
 2DA3:2180       loc_3FBB0
 2DA3:219F       loc_3FBCF
 2DA3:21B0       sub_3FBE0
 2DA3:225F       loc_3FC8F
 2DA3:2276       loc_3FCA6
 2DA3:2295       loc_3FCC5
 2DA3:22C1       loc_3FCF1
 2DA3:22DF       loc_3FD0F
 2DA3:22F8       loc_3FD28
 2DA3:2301       loc_3FD31
 2DA3:2338       loc_3FD68
 2DA3:2366       loc_3FD96
 2DA3:237E       loc_3FDAE
 2DA3:2381       loc_3FDB1
 2DA3:2385       loc_3FDB5
 2DA3:23A5       loc_3FDD5
 2DA3:23A6       loc_3FDD6
 2DA3:23B0       loc_3FDE0
 2DA3:23D9       loc_3FE09
 2DA3:23DB       loc_3FE0B
 2DA3:241F       loc_3FE4F
 2DA3:2420       loc_3FE50
 2DA3:244A       loc_3FE7A
 2DA3:2454       loc_3FE84
 2DA3:245D       loc_3FE8D
 2DA3:2462       loc_3FE92
 2DA3:246C       loc_3FE9C
 2DA3:2480       loc_3FEB0
 2DA3:24C5       loc_3FEF5
 2DA3:24CA       loc_3FEFA
 2DA3:24CD       loc_3FEFD
 2DA3:2509       loc_3FF39
 2DA3:250A       loc_3FF3A
 2DA3:2512       loc_3FF42
 2DA3:2518       loc_3FF48
 2DA3:252C       loc_3FF5C
 2DA3:256F       loc_3FF9F
 2DA3:2574       loc_3FFA4
 2DA3:2579       loc_3FFA9
 2DA3:257C       loc_3FFAC
 2DA3:2586       loc_3FFB6
 2DA3:25B0       loc_3FFE0
 2DA3:25BB       loc_3FFEB
 2DA3:25BC       loc_3FFEC
 2DA3:25C4       loc_3FFF4
 2DA3:25D9       loc_40009
 2DA3:25DE       loc_4000E
 2DA3:25E9       loc_40019
 2DA3:25EC       loc_4001C
 2DA3:25EE       loc_4001E
 2DA3:25F1       loc_40021
 2DA3:2601       loc_40031
 2DA3:2606       locret_40036
 2DA3:2607       sub_40037
 2DA3:260E       loc_4003E
 2DA3:260F       loc_4003F
 2DA3:262E       loc_4005E
 2DA3:264E       loc_4007E
 2DA3:268B       loc_400BB
 2DA3:2690       loc_400C0
 2DA3:26E6       loc_40116
 2DA3:2718       loc_40148
 2DA3:2740       loc_40170
 2DA3:2760       loc_40190
 2DA3:2763       loc_40193
 2DA3:2779       loc_401A9
 2DA3:279B       loc_401CB
 2DA3:27A5       loc_401D5
 2DA3:27C7       loc_401F7
 2DA3:27D1       loc_40201
 2DA3:27F3       loc_40223
 2DA3:27FD       loc_4022D
 2DA3:27FF       loc_4022F
 2DA3:2807       loc_40237
 2DA3:281F       loc_4024F
 2DA3:2829       loc_40259
 2DA3:282D       loc_4025D
 2DA3:2833       loc_40263
 2DA3:2837       loc_40267
 2DA3:284B       loc_4027B
 2DA3:2863       loc_40293
 2DA3:286D       loc_4029D
 2DA3:2878       loc_402A8
 2DA3:288D       loc_402BD
 2DA3:28AE       loc_402DE
 2DA3:28BD       loc_402ED
 2DA3:28D1       loc_40301
 2DA3:28DB       loc_4030B
 2DA3:28DE       loc_4030E
 2DA3:28E3       loc_40313
 2DA3:28E9       loc_40319
 2DA3:28EE       loc_4031E
 2DA3:28F1       loc_40321
 2DA3:2918       loc_40348
 2DA3:291B       loc_4034B
 2DA3:2920       loc_40350
 2DA3:292F       loc_4035F
 2DA3:2932       loc_40362
 2DA3:2933       loc_40363
 2DA3:2957       loc_40387
 2DA3:299A       loc_403CA
 2DA3:29AE       loc_403DE
 2DA3:29B1       loc_403E1
 2DA3:29BF       loc_403EF
 2DA3:29CE       loc_403FE
 2DA3:29F3       loc_40423
 2DA3:29F8       loc_40428
 2DA3:29FC       loc_4042C
 2DA3:2A01       loc_40431
 2DA3:2A04       loc_40434
 2DA3:2A0A       sub_4043A
 2DA3:2A2C       loc_4045C
 2DA3:2A30       loc_40460
 2DA3:2A31       loc_40461
 2DA3:2A3E       loc_4046E
 2DA3:2A53       loc_40483
 2DA3:2A56       loc_40486
 2DA3:2A5E       loc_4048E
 2DA3:2A5F       loc_4048F
 2DA3:2A74       loc_404A4
 2DA3:2A79       loc_404A9
 2DA3:2A7D       loc_404AD
 2DA3:2A80       loc_404B0
 2DA3:2AAB       loc_404DB
 2DA3:2AAD       loc_404DD
 2DA3:2AAE       loc_404DE
 2DA3:2AB1       loc_404E1
 2DA3:2ABB       loc_404EB
 2DA3:2ABF       loc_404EF
 2DA3:2AC0       loc_404F0
 2DA3:2AC7       loc_404F7
 2DA3:2AD3       loc_40503
 2DA3:2AD8       loc_40508
 2DA3:2B29       loc_40559
 2DA3:2B53       locret_40583
 2DA3:2B54       sub_40584
 2DA3:2B8F       loc_405BF
 2DA3:2B9B       loc_405CB
 2DA3:2BC0       loc_405F0
 2DA3:2BDB       loc_4060B
 2DA3:2BDC       loc_4060C
 2DA3:2BEB       loc_4061B
 2DA3:2C0B       loc_4063B
 2DA3:2C0F       loc_4063F
 2DA3:2C14       loc_40644
 2DA3:2C1C       loc_4064C
 2DA3:2C1E       loc_4064E
 2DA3:2C35       loc_40665
 2DA3:2C42       loc_40672
 2DA3:2C47       loc_40677
 2DA3:2C4D       sub_4067D
 2DA3:2CC4       LOOP_x15
 2DA3:2CE3       loc_40713
 2DA3:2DBD       LOOP_x18
 2DA3:2DC6       loc_407F6
 2DA3:2DCB       loc_407FB
 2DA3:2ED9       loc_40909
 2DA3:2EDD       loc_4090D
 2DA3:2EE8       loc_40918
 2DA3:2EFB       loc_4092B
 2DA3:2F07       loc_40937
 2DA3:2F26       loc_40956
 2DA3:2F28       loc_40958
 2DA3:2F34       loc_40964
 2DA3:2F4C       loc_4097C
 2DA3:2F6A       loc_4099A
 2DA3:2F70       loc_409A0
 2DA3:2F75       loc_409A5
 2DA3:2F7C       loc_409AC
 2DA3:2F84       loc_409B4
 2DA3:2FCB       loc_409FB
 2DA3:2FE3       loc_40A13
 2DA3:2FE6       loc_40A16
 2DA3:2FEF       loc_40A1F
 2DA3:2FF6       loc_40A26
 2DA3:2FFB       loc_40A2B
 2DA3:3004       loc_40A34
 2DA3:3011       loc_40A41
 2DA3:3012       loc_40A42
 2DA3:3027       loc_40A57
 2DA3:3037       loc_40A67
 2DA3:303D       loc_40A6D
 2DA3:3047       loc_40A77
 2DA3:3054       loc_40A84
 2DA3:305B       loc_40A8B
 2DA3:305E       loc_40A8E
 2DA3:305F       loc_40A8F
 2DA3:306A       loc_40A9A
 2DA3:306E       loc_40A9E
 2DA3:3073       loc_40AA3
 2DA3:30BD       loc_40AED
 2DA3:30D1       loc_40B01
 2DA3:30D6       loc_40B06
 2DA3:30E0       loc_40B10
 2DA3:30EA       loc_40B1A
 2DA3:315F       loc_40B8F
 2DA3:3160       loc_40B90
 2DA3:3168       loc_40B98
 2DA3:316B       loc_40B9B
 2DA3:317A       loc_40BAA
 2DA3:317F       loc_40BAF
 2DA3:31D0       PLURAL_PicksInAny
 2DA3:31D5       SINGULAR_PickInAny
 2DA3:31D8       loc_40C08
 2DA3:3231       loc_40C61
 2DA3:3234       loc_40C64
 2DA3:3244       loc_40C74
 2DA3:324E       loc_40C7E
 2DA3:326A       loc_40C9A
 2DA3:3280       loc_40CB0
 2DA3:32F3       loc_40D23
 2DA3:32F4       loc_40D24
 2DA3:32FC       loc_40D2C
 2DA3:32FE       loc_40D2E
 2DA3:3304       loc_40D34
 2DA3:330A       loc_40D3A
 2DA3:3310       loc_40D40
 2DA3:3312       loc_40D42
 2DA3:3350       loc_40D80
 2DA3:3355       loc_40D85
 2DA3:3365       loc_40D95
 2DA3:338A       loc_40DBA
 2DA3:3394       loc_40DC4
 2DA3:33A3       loc_40DD3
 2DA3:33AC       loc_40DDC
 2DA3:33C8       loc_40DF8
 2DA3:33D8       loc_40E08
 2DA3:33DD       loc_40E0D
 2DA3:33DE       loc_40E0E
 2DA3:33FB       loc_40E2B
 2DA3:33FD       loc_40E2D
 2DA3:3404       loc_40E34
 2DA3:3409       loc_40E39
 2DA3:341F       loc_40E4F
 2DA3:3424       loc_40E54
 2DA3:3426       loc_40E56
 2DA3:342C       loc_40E5C
 2DA3:342D       loc_40E5D
 2DA3:3435       loc_40E65
 2DA3:345A       loc_40E8A
 2DA3:3464       loc_40E94
 2DA3:346D       loc_40E9D
 2DA3:347D       loc_40EAD
 2DA3:3484       off_40EB4
 2DA3:3490       sub_40EC0
 2DA3:3493       loc_40EC3
 2DA3:3496       loc_40EC6
 2DA3:34B4       loc_40EE4
 2DA3:34E6       loc_40F16
 2DA3:3510       loc_40F40
 2DA3:352F       loc_40F5F
 2DA3:3530       loc_40F60
 2DA3:353B       loc_40F6B
 2DA3:355C       loc_40F8C
 2DA3:3569       loc_40F99
 2DA3:356A       loc_40F9A
 2DA3:3579       loc_40FA9
 2DA3:358F       loc_40FBF
 2DA3:3597       loc_40FC7
 2DA3:3598       loc_40FC8
 2DA3:35AA       loc_40FDA
 2DA3:35C4       loc_40FF4
 2DA3:35D2       loc_41002
 2DA3:35E2       loc_41012
 2DA3:35EC       loc_4101C
 2DA3:35F3       loc_41023
 2DA3:3601       loc_41031
 2DA3:360A       loc_4103A
 2DA3:360F       loc_4103F
 2DA3:3613       loc_41043
 2DA3:3618       loc_41048
 2DA3:361B       loc_4104B
 2DA3:3625       loc_41055
 2DA3:362C       loc_4105C
 2DA3:3634       loc_41064
 2DA3:364B       loc_4107B
 2DA3:364E       loc_4107E
 2DA3:365C       loc_4108C
 2DA3:3665       loc_41095
 2DA3:366A       loc_4109A
 2DA3:366C       loc_4109C
 2DA3:366E       loc_4109E
 2DA3:3673       loc_410A3
 2DA3:3676       loc_410A6
 2DA3:3680       loc_410B0
 2DA3:368F       loc_410BF
 2DA3:3694       loc_410C4
 2DA3:36A6       loc_410D6
 2DA3:36A9       loc_410D9
 2DA3:36B7       loc_410E7
 2DA3:36BC       loc_410EC
 2DA3:36C0       loc_410F0
 2DA3:36C5       loc_410F5
 2DA3:36D2       loc_41102
 2DA3:36E6       loc_41116
 2DA3:36F8       loc_41128
 2DA3:36FB       loc_4112B
 2DA3:3707       loc_41137
 2DA3:3709       loc_41139
 2DA3:3710       loc_41140
 2DA3:3712       loc_41142
 2DA3:3717       loc_41147
 2DA3:3724       loc_41154
 2DA3:372B       loc_4115B
 2DA3:374A       loc_4117A
 2DA3:374C       loc_4117C
 2DA3:375A       loc_4118A
 2DA3:3763       loc_41193
 2DA3:3768       loc_41198
 2DA3:3775       loc_411A5
 2DA3:378E       loc_411BE
 2DA3:379B       loc_411CB
 2DA3:379D       loc_411CD
 2DA3:37B0       loc_411E0
 2DA3:37B5       loc_411E5
 2DA3:37BB       loc_411EB
 2DA3:37C8       loc_411F8
 2DA3:37C9       loc_411F9
 2DA3:37CE       loc_411FE
 2DA3:37D1       loc_41201
 2DA3:37D4       loc_41204
 2DA3:37DB       loc_4120B
 2DA3:37E5       loc_41215
 2DA3:3821       loc_41251
 2DA3:3825       loc_41255
 2DA3:382B       loc_4125B
 2DA3:383F       loc_4126F
 2DA3:3853       loc_41283
 2DA3:385D       loc_4128D
 2DA3:3871       loc_412A1
 2DA3:387B       loc_412AB
 2DA3:387F       loc_412AF
 2DA3:38C1       loc_412F1
 2DA3:38C9       loc_412F9
 2DA3:38CB       loc_412FB
 2DA3:38DD       loc_4130D
 2DA3:38DF       loc_4130F
 2DA3:38E7       loc_41317
 2DA3:38EC       loc_4131C
 2DA3:38EF       loc_4131F
 2DA3:38F3       loc_41323
 2DA3:3904       loc_41334
 2DA3:3910       loc_41340
 2DA3:3911       loc_41341
 2DA3:3915       loc_41345
 2DA3:391B       loc_4134B
 2DA3:3929       loc_41359
 2DA3:393C       loc_4136C
 2DA3:3941       loc_41371
 2DA3:3961       loc_41391
 2DA3:3984       loc_413B4
 2DA3:398F       loc_413BF
 2DA3:3990       loc_413C0
 2DA3:399A       loc_413CA
 2DA3:39BD       loc_413ED
 2DA3:39D0       loc_41400
 2DA3:39E3       loc_41413
 2DA3:39F6       loc_41426
 2DA3:3A01       loc_41431
 2DA3:3A09       loc_41439
 2DA3:3A18       loc_41448
 2DA3:3A1C       loc_4144C
 2DA3:3A2A       loc_4145A
 2DA3:3A35       loc_41465
 2DA3:3A38       loc_41468
 2DA3:3A46       loc_41476
 2DA3:3A47       loc_41477
 2DA3:3A52       loc_41482
 2DA3:3A56       loc_41486
 2DA3:3A5C       loc_4148C
 2DA3:3A60       loc_41490
 2DA3:3A64       loc_41494
 2DA3:3A66       loc_41496
 2DA3:3A74       loc_414A4
 2DA3:3A78       loc_414A8
 2DA3:3A7A       loc_414AA
 2DA3:3A7F       loc_414AF
 2DA3:3A88       loc_414B8
 2DA3:3A8A       loc_414BA
 2DA3:3A8D       loc_414BD
 2DA3:3A8F       loc_414BF
 2DA3:3A99       loc_414C9
 2DA3:3A9A       loc_414CA
 2DA3:3AB3       loc_414E3
 2DA3:3ACC       loc_414FC
 2DA3:3AD0       loc_41500
 2DA3:3AD8       loc_41508
 2DA3:3ADC       loc_4150C
 2DA3:3ADF       loc_4150F
 2DA3:3AE1       loc_41511
 2DA3:3AE4       loc_41514
 2DA3:3AE6       loc_41516
 2DA3:3AEB       loc_4151B
 2DA3:3AF4       loc_41524
 2DA3:3AFF       loc_4152F
 2DA3:3B02       loc_41532
 2DA3:3B10       loc_41540
 2DA3:3B1A       loc_4154A
 2DA3:3B24       loc_41554
 2DA3:3B34       loc_41564
 2DA3:3B3F       loc_4156F
 2DA3:3B56       loc_41586
 2DA3:3B5F       loc_4158F
 2DA3:3B64       loc_41594
 2DA3:3B67       loc_41597
 2DA3:3B6B       loc_4159B
 2DA3:3B8E       loc_415BE
 2DA3:3BCF       loc_415FF
 2DA3:3BE5       loc_41615
 2DA3:3BEA       loc_4161A
 2DA3:3BEC       loc_4161C
 2DA3:3BFF       loc_4162F
 2DA3:3C16       loc_41646
 2DA3:3C19       loc_41649
 2DA3:3C20       loc_41650
 2DA3:3C24       loc_41654
 2DA3:3C32       loc_41662
 2DA3:3C47       loc_41677
 2DA3:3C54       loc_41684
 2DA3:3C5B       loc_4168B
 2DA3:3C79       loc_416A9
 2DA3:3C7E       loc_416AE
 2DA3:3C86       loc_416B6
 2DA3:3C8B       loc_416BB
 2DA3:3C9C       loc_416CC
 2DA3:3CA3       loc_416D3
 2DA3:3CAF       loc_416DF
 2DA3:3CB6       loc_416E6
 2DA3:3CBA       loc_416EA
 2DA3:3CC4       loc_416F4
 2DA3:3CC8       loc_416F8
 2DA3:3CCB       loc_416FB
 2DA3:3CD1       loc_41701
 2DA3:3CE5       loc_41715
 2DA3:3CFB       loc_4172B
 2DA3:3CFF       loc_4172F
 2DA3:3D0A       loc_4173A
 2DA3:3D0E       loc_4173E
 2DA3:3D22       loc_41752
 2DA3:3D26       loc_41756
 2DA3:3D37       loc_41767
 2DA3:3D4A       loc_4177A
 2DA3:3D4B       loc_4177B
 2DA3:3D50       loc_41780
 2DA3:3D53       loc_41783
 2DA3:3D54       loc_41784
 2DA3:3D5C       loc_4178C
 2DA3:3D61       loc_41791
 2DA3:3D68       loc_41798
 2DA3:3D6E       loc_4179E
 2DA3:3D76       loc_417A6
 2DA3:3D7A       loc_417AA
 2DA3:3D7F       loc_417AF
 2DA3:3D89       loc_417B9
 2DA3:3D90       loc_417C0
 2DA3:3D96       loc_417C6
 2DA3:3D97       loc_417C7
 2DA3:3D99       loc_417C9
 2DA3:3DA2       loc_417D2
 2DA3:3DA8       loc_417D8
 2DA3:3DAA       loc_417DA
 2DA3:3DAE       loc_417DE
 2DA3:3DB9       loc_417E9
 2DA3:3DC2       loc_417F2
 2DA3:3DC5       loc_417F5
 2DA3:3DC8       loc_417F8
 2DA3:3DC9       loc_417F9
 2DA3:3DD2       loc_41802
 2DA3:3DD7       loc_41807
 2DA3:3DDB       loc_4180B
 2DA3:3DDD       loc_4180D
 2DA3:3DE1       loc_41811
 2DA3:3DEC       loc_4181C
 2DA3:3E03       loc_41833
 2DA3:3E06       loc_41836
 2DA3:3E07       loc_41837
 2DA3:3E0A       loc_4183A
 2DA3:3E10       loc_41840
 2DA3:3E16       loc_41846
 2DA3:3E18       loc_41848
 2DA3:3E1A       loc_4184A
 2DA3:3E1D       loc_4184D
 2DA3:3E38       loc_41868
 2DA3:3E3F       loc_4186F
 2DA3:3E4A       loc_4187A
 2DA3:3E4F       loc_4187F
 2DA3:3E69       loc_41899
 2DA3:3E70       loc_418A0
 2DA3:3E72       loc_418A2
 2DA3:3E7D       loc_418AD
 2DA3:3E87       loc_418B7
 2DA3:3E8E       loc_418BE
 2DA3:3E96       loc_418C6
 2DA3:3E9E       loc_418CE
 2DA3:3EA3       loc_418D3
 2DA3:3EAD       loc_418DD
 2DA3:3EC2       loc_418F2
 2DA3:3EC8       loc_418F8
 2DA3:3ECE       loc_418FE
 2DA3:3EDD       loc_4190D
 2DA3:3EE0       loc_41910
 2DA3:3EE1       loc_41911
 2DA3:3EE6       loc_41916
 2DA3:3EE9       loc_41919
 2DA3:3EEC       loc_4191C
 2DA3:3EF0       loc_41920
 2DA3:3EF9       loc_41929
 2DA3:3EFB       loc_4192B
 2DA3:3EFF       loc_4192F
 2DA3:3F05       loc_41935
 2DA3:3F0C       loc_4193C
 2DA3:3F10       loc_41940
 2DA3:3F1C       loc_4194C
 2DA3:3F1D       loc_4194D
 2DA3:3F25       loc_41955
 2DA3:3F2C       loc_4195C
 2DA3:3F2D       loc_4195D
 2DA3:3F57       loc_41987
 2DA3:3F5D       loc_4198D
 2DA3:3F70       loc_419A0
 2DA3:3F7B       loc_419AB
 2DA3:3F87       loc_419B7
 2DA3:3F8F       loc_419BF
 2DA3:3F9D       loc_419CD
 2DA3:3F9E       loc_419CE
 2DA3:3FA2       loc_419D2
 2DA3:3FAA       loc_419DA
 2DA3:3FB6       loc_419E6
 2DA3:3FC0       loc_419F0
 2DA3:3FC4       loc_419F4
 2DA3:3FC9       loc_419F9
 2DA3:3FD0       loc_41A00
 2DA3:3FD4       loc_41A04
 2DA3:3FDC       loc_41A0C
 2DA3:3FE8       loc_41A18
 2DA3:3FF5       loc_41A25
 2DA3:3FF8       loc_41A28
 2DA3:3FFF       loc_41A2F
 2DA3:4000       loc_41A30
 2DA3:400A       loc_41A3A
 2DA3:400B       loc_41A3B
 2DA3:400F       loc_41A3F
 2DA3:4013       loc_41A43
 2DA3:4018       loc_41A48
 2DA3:4021       loc_41A51
 2DA3:4025       off_41A55
 2DA3:402F       LBX_NewGame_s41A5F
 2DA3:4030       loc_41A60
 2DA3:4036       loc_41A66
 2DA3:4042       loc_41A72
 2DA3:4045       loc_41A75
 2DA3:404A       loc_41A7A
 2DA3:4051       loc_41A81
 2DA3:4055       loc_41A85
 2DA3:405A       loc_41A8A
 2DA3:405D       loc_41A8D
 2DA3:4060       loc_41A90
 2DA3:4064       loc_41A94
 2DA3:4074       loc_41AA4
 2DA3:4077       loc_41AA7
 2DA3:4088       loc_41AB8
 2DA3:408B       loc_41ABB
 2DA3:408E       loc_41ABE
 2DA3:409A       loc_41ACA
 2DA3:40A2       loc_41AD2
 2DA3:40A9       loc_41AD9
 2DA3:40B0       loc_41AE0
 2DA3:40B6       loc_41AE6
 2DA3:40BC       loc_41AEC
 2DA3:40C8       loc_41AF8
 2DA3:40D3       loc_41B03
 2DA3:40D7       loc_41B07
 2DA3:40DA       loc_41B0A
 2DA3:40DB       loc_41B0B
 2DA3:40DF       loc_41B0F
 2DA3:40E4       loc_41B14
 2DA3:40E7       loc_41B17
 2DA3:40EA       loc_41B1A
 2DA3:40EE       loc_41B1E
 2DA3:40F6       loc_41B26
 2DA3:40FB       loc_41B2B
 2DA3:4103       loc_41B33
 2DA3:4105       loc_41B35
 2DA3:410F       loc_41B3F
 2DA3:4113       loc_41B43
 2DA3:4118       loc_41B48
 2DA3:411F       loc_41B4F
 2DA3:4124       loc_41B54
 2DA3:4127       loc_41B57
 2DA3:4129       loc_41B59
 2DA3:412D       loc_41B5D
 2DA3:4144       loc_41B74
 2DA3:4148       loc_41B78
 2DA3:4151       loc_41B81
 2DA3:4154       loc_41B84
 2DA3:4157       loc_41B87
 2DA3:415B       loc_41B8B
 2DA3:415E       loc_41B8E
 2DA3:415F       loc_41B8F
 2DA3:4168       loc_41B98
 2DA3:416E       loc_41B9E
 2DA3:4174       loc_41BA4
 2DA3:417A       loc_41BAA
 2DA3:4182       loc_41BB2
 2DA3:418B       loc_41BBB
 2DA3:4190       loc_41BC0
 2DA3:4192       loc_41BC2
 2DA3:4196       loc_41BC6
 2DA3:419C       loc_41BCC
 2DA3:41AA       loc_41BDA
 2DA3:41BA       loc_41BEA
 2DA3:41C4       loc_41BF4
 2DA3:41C5       loc_41BF5
 2DA3:41C8       loc_41BF8
 2DA3:41CA       loc_41BFA
 2DA3:41D2       loc_41C02
 2DA3:41D8       loc_41C08
 2DA3:41D9       loc_41C09
 2DA3:41DC       loc_41C0C
 2DA3:41DD       loc_41C0D
 2DA3:41E9       loc_41C19
 2DA3:41F1       loc_41C21
 2DA3:41F6       loc_41C26
 2DA3:41F9       loc_41C29
 2DA3:4202       loc_41C32
 2DA3:4205       loc_41C35
 2DA3:420B       loc_41C3B
 2DA3:421A       loc_41C4A
 2DA3:4224       loc_41C54
 2DA3:4234       loc_41C64
 2DA3:4235       loc_41C65
 2DA3:423A       loc_41C6A
 2DA3:4240       loc_41C70
 2DA3:4242       loc_41C72
 2DA3:4244       loc_41C74
 2DA3:4246       loc_41C76
 2DA3:4248       loc_41C78
 2DA3:424E       loc_41C7E
 2DA3:424F       loc_41C7F
 2DA3:4254       loc_41C84
 2DA3:4264       loc_41C94
 2DA3:4266       loc_41C96
 2DA3:4269       loc_41C99
 2DA3:426E       loc_41C9E
 2DA3:4278       loc_41CA8
 2DA3:427A       loc_41CAA
 2DA3:427F       loc_41CAF
 2DA3:4289       loc_41CB9
 2DA3:4290       loc_41CC0
 2DA3:4295       loc_41CC5
 2DA3:429A       loc_41CCA
 2DA3:429F       loc_41CCF
 2DA3:42A6       loc_41CD6
 2DA3:42AB       loc_41CDB
 2DA3:42B5       loc_41CE5
 2DA3:42BC       loc_41CEC
 2DA3:42C1       loc_41CF1
 2DA3:42C6       loc_41CF6
 2DA3:42CB       loc_41CFB
 2DA3:42D2       loc_41D02
 2DA3:42D7       loc_41D07
 2DA3:42DC       loc_41D0C
 2DA3:42E1       loc_41D11
 2DA3:42FA       loc_41D2A
 2DA3:4311       loc_41D41
 2DA3:4320       loc_41D50
 2DA3:4338       loc_41D68
 2DA3:433A       loc_41D6A
 2DA3:433D       loc_41D6D
 2DA3:4342       loc_41D72
 2DA3:4348       loc_41D78
 2DA3:434A       loc_41D7A
 2DA3:434C       loc_41D7C
 2DA3:434E       loc_41D7E
 2DA3:4358       loc_41D88
 2DA3:435C       loc_41D8C
 2DA3:435F       loc_41D8F
 2DA3:4366       loc_41D96
 2DA3:4369       loc_41D99
 2DA3:436E       loc_41D9E
 2DA3:4374       loc_41DA4
 2DA3:4377       loc_41DA7
 2DA3:4390       loc_41DC0
 2DA3:4393       loc_41DC3
 2DA3:43A8       loc_41DD8
 2DA3:43B1       loc_41DE1
 2DA3:43BA       loc_41DEA
 2DA3:43C3       loc_41DF3
 2DA3:43DE       loc_41E0E
 2DA3:43ED       loc_41E1D
 2DA3:43F2       loc_41E22
 2DA3:43FA       loc_41E2A
 2DA3:43FD       loc_41E2D
 2DA3:4400       loc_41E30
 2DA3:4420       loc_41E50
 2DA3:442E       loc_41E5E
 2DA3:4437       loc_41E67
 2DA3:445F       loc_41E8F
 2DA3:4460       loc_41E90
 2DA3:4475       loc_41EA5
 2DA3:4483       loc_41EB3
 2DA3:4489       loc_41EB9
 2DA3:4495       loc_41EC5
 2DA3:449E       loc_41ECE
 2DA3:44A8       loc_41ED8
 2DA3:44A9       loc_41ED9
 2DA3:44B4       loc_41EE4
 2DA3:44C0       loc_41EF0
 2DA3:44C3       loc_41EF3
 2DA3:44CC       loc_41EFC
 2DA3:44CD       loc_41EFD
 2DA3:44D5       loc_41F05
 2DA3:44D8       loc_41F08
 2DA3:44E7       loc_41F17
 2DA3:44EC       loc_41F1C
 2DA3:44F4       loc_41F24
 2DA3:4534       loc_41F64
 2DA3:453D       loc_41F6D
 2DA3:456B       loc_41F9B
 2DA3:456C       loc_41F9C
 2DA3:456F       loc_41F9F
 2DA3:4581       loc_41FB1
 2DA3:4598       loc_41FC8
 2DA3:45A4       loc_41FD4
 2DA3:45BA       loc_41FEA
 2DA3:45BB       loc_41FEB
 2DA3:45C6       loc_41FF6
 2DA3:45D2       loc_42002
 2DA3:45D5       loc_42005
 2DA3:45DE       loc_4200E
 2DA3:45DF       loc_4200F
 2DA3:45E7       loc_42017
 2DA3:45EA       loc_4201A
 2DA3:45F9       loc_42029
 2DA3:45FE       loc_4202E
 2DA3:4606       loc_42036
 2DA3:461A       loc_4204A
 2DA3:4629       loc_42059
 2DA3:4646       loc_42076
 2DA3:464F       loc_4207F
 2DA3:466F       loc_4209F
 2DA3:467D       loc_420AD
 2DA3:467E       loc_420AE
 2DA3:4693       loc_420C3
 2DA3:46AA       loc_420DA
 2DA3:46B6       loc_420E6
 2DA3:46CC       loc_420FC
 2DA3:46CD       loc_420FD
 2DA3:46D8       loc_42108
 2DA3:46E4       loc_42114
 2DA3:46E7       loc_42117
 2DA3:46F0       loc_42120
 2DA3:46F1       loc_42121
 2DA3:46F9       loc_42129
 2DA3:46FC       loc_4212C
 2DA3:4712       loc_42142
 2DA3:4715       loc_42145
 2DA3:4724       loc_42154
 2DA3:4729       loc_42159
 2DA3:472B       loc_4215B
 2DA3:4734       loc_42164
 2DA3:4735       loc_42165
 2DA3:473E       loc_4216E
 2DA3:4755       loc_42185
 2DA3:475C       loc_4218C
 2DA3:4770       loc_421A0
 2DA3:477A       loc_421AA
 2DA3:477D       loc_421AD
 2DA3:4784       loc_421B4
 2DA3:478A       loc_421BA
 2DA3:478D       loc_421BD
 2DA3:4790       loc_421C0
 2DA3:4799       loc_421C9
 2DA3:47A4       loc_421D4
 2DA3:47AA       sub_421DA
 2DA3:47B2       loc_421E2
 2DA3:47B5       loc_421E5
 2DA3:47BC       loc_421EC
 2DA3:47DD       loc_4220D
 2DA3:47E2       loc_42212
 2DA3:47E9       loc_42219
 2DA3:47EE       loc_4221E
 2DA3:47FA       loc_4222A
 2DA3:4806       loc_42236
 2DA3:4812       loc_42242
 2DA3:4820       loc_42250
 2DA3:4833       loc_42263
 2DA3:483C       loc_4226C
 2DA3:4843       loc_42273
 2DA3:4851       loc_42281
 2DA3:4855       loc_42285
 2DA3:4867       loc_42297
 2DA3:486C       loc_4229C
 2DA3:4876       loc_422A6
 2DA3:487A       loc_422AA
 2DA3:487E       loc_422AE
 2DA3:4890       loc_422C0
 2DA3:48CE       loc_422FE
 2DA3:48D4       loc_42304
 2DA3:48DD       loc_4230D
 2DA3:48E0       loc_42310
 2DA3:4904       loc_42334
 2DA3:490C       loc_4233C
 2DA3:491B       loc_4234B
 2DA3:492D       loc_4235D
 2DA3:4931       loc_42361
 2DA3:4956       loc_42386
 2DA3:496C       loc_4239C
 2DA3:4981       loc_423B1
 2DA3:4987       loc_423B7
 2DA3:4990       loc_423C0
 2DA3:49B9       loc_423E9
 2DA3:49C1       loc_423F1
 2DA3:49D0       loc_42400
 2DA3:49D8       loc_42408
 2DA3:49E0       loc_42410
 2DA3:49E2       loc_42412
 2DA3:49E6       loc_42416
 2DA3:4A36       loc_42466
 2DA3:4A3C       loc_4246C
 2DA3:4A45       loc_42475
 2DA3:4A6E       loc_4249E
 2DA3:4A76       loc_424A6
 2DA3:4A8B       sub_424BB
 2DA3:4B84       loc_425B4
 2DA3:4BA3       loc_425D3
 2DA3:4BAD       loc_425DD
 2DA3:4BCC       loc_425FC
 2DA3:4BD6       loc_42606
 2DA3:4BDE       loc_4260E
 2DA3:4BE0       loc_42610
 2DA3:4BF5       loc_42625
 2DA3:4BFF       loc_4262F
 2DA3:4C1E       loc_4264E
 2DA3:4C28       loc_42658
 2DA3:4C47       loc_42677
 2DA3:4C6A       loc_4269A
 2DA3:4C75       loc_426A5
 2DA3:4C80       loc_426B0
 2DA3:4CA3       loc_426D3
 2DA3:4CD5       loc_42705
 2DA3:4CDB       loc_4270B
 2DA3:4D2D       loc_4275D
 2DA3:4D3F       sub_4276F
 2DA3:4D90       loc_427C0
 2DA3:4D96       loc_427C6
 2DA3:4D9E       loc_427CE
 2DA3:4DA8       loc_427D8
 2DA3:4DAF       loc_427DF
 2DA3:4DB3       loc_427E3
 2DA3:4DB8       loc_427E8
 2DA3:4DBF       loc_427EF
 2DA3:4DCD       loc_427FD
 2DA3:4DDD       loc_4280D
 2DA3:4DE2       loc_42812
 2DA3:4DF7       loc_42827
 2DA3:4E0C       loc_4283C
 2DA3:4E10       loc_42840
 2DA3:4E17       loc_42847
 2DA3:4EAA       loc_428DA
 2DA3:4ECD       loc_428FD
 2DA3:4EF4       loc_42924
 2DA3:4EF8       loc_42928
 2DA3:4F29       loc_42959
 2DA3:4F2A       loc_4295A
 2DA3:4F3E       loc_4296E
 2DA3:4F4D       loc_4297D
 2DA3:4F7D       loc_429AD
 2DA3:4F93       loc_429C3
 2DA3:4F9C       loc_429CC
 2DA3:4FDB       loc_42A0B
 2DA3:4FDE       loc_42A0E
 2DA3:5009       loc_42A39
 2DA3:5011       loc_42A41
 2DA3:507A       loc_42AAA
 2DA3:5089       loc_42AB9
 2DA3:5098       loc_42AC8
 2DA3:50AD       loc_42ADD
 2DA3:50B0       loc_42AE0
 2DA3:50DE       loc_42B0E
 2DA3:50FE       loc_42B2E
 2DA3:510C       loc_42B3C
 2DA3:5143       loc_42B73
 2DA3:514C       loc_42B7C
 2DA3:514D       loc_42B7D
 2DA3:5155       loc_42B85
 2DA3:5158       loc_42B88
 2DA3:517B       loc_42BAB
 2DA3:517F       loc_42BAF
 2DA3:51B3       loc_42BE3
 2DA3:51B4       loc_42BE4
 2DA3:51B7       loc_42BE7
 2DA3:51C8       loc_42BF8
 2DA3:51CB       loc_42BFB
 2DA3:51E0       loc_42C10
 2DA3:51FC       loc_42C2C
 2DA3:5259       loc_42C89
 2DA3:525F       loc_42C8F
 2DA3:5292       loc_42CC2
 2DA3:529A       loc_42CCA
 2DA3:52AB       loc_42CDB
 2DA3:52C4       loc_42CF4
 2DA3:52DF       loc_42D0F
 2DA3:52FE       loc_42D2E
 2DA3:5305       loc_42D35
 2DA3:5338       loc_42D68
 2DA3:533B       loc_42D6B
 2DA3:5389       loc_42DB9
 2DA3:5397       loc_42DC7
 2DA3:53CE       loc_42DFE
 2DA3:53D7       loc_42E07
 2DA3:53D8       loc_42E08
 2DA3:53E0       loc_42E10
 2DA3:53E3       loc_42E13
 2DA3:5406       loc_42E36
 2DA3:540A       loc_42E3A
 2DA3:543E       loc_42E6E
 2DA3:543F       loc_42E6F
 2DA3:5453       loc_42E83
 2DA3:5487       loc_42EB7
 2DA3:5507       loc_42F37
 2DA3:551D       loc_42F4D
 2DA3:5525       loc_42F55
 2DA3:5590       loc_42FC0
 2DA3:55C3       loc_42FF3
 2DA3:55C6       loc_42FF6
 2DA3:5614       loc_43044
 2DA3:5622       loc_43052
 2DA3:5630       loc_43060
 2DA3:564E       loc_4307E
 2DA3:5659       loc_43089
 2DA3:5662       loc_43092
 2DA3:5663       loc_43093
 2DA3:566B       loc_4309B
 2DA3:566E       loc_4309E
 2DA3:5674       sub_430A4
 2DA3:568A       loc_430BA
 2DA3:56AE       loc_430DE
 2DA3:56E0       loc_43110
 2DA3:56F0       loc_43120
 2DA3:56FA       loc_4312A
 2DA3:5702       loc_43132
 2DA3:5703       loc_43133
 2DA3:570A       loc_4313A
 2DA3:570C       loc_4313C
 2DA3:573F       loc_4316F
 2DA3:5751       loc_43181
 2DA3:5762       loc_43192
 2DA3:5770       loc_431A0
 2DA3:5781       loc_431B1
 2DA3:579C       loc_431CC
 2DA3:57A9       loc_431D9
 2DA3:57BA       loc_431EA
 2DA3:57C8       loc_431F8
 2DA3:57D9       loc_43209
 2DA3:57F4       loc_43224
 2DA3:5801       loc_43231
 2DA3:5812       loc_43242
 2DA3:5820       loc_43250
 2DA3:5831       loc_43261
 2DA3:584C       loc_4327C
 2DA3:5859       loc_43289
 2DA3:586A       loc_4329A
 2DA3:5878       loc_432A8
 2DA3:5889       loc_432B9
 2DA3:58A4       loc_432D4
 2DA3:58B1       loc_432E1
 2DA3:58C2       loc_432F2
 2DA3:58D0       loc_43300
 2DA3:58E1       loc_43311
 2DA3:58FC       loc_4332C
 2DA3:5919       sub_43349
 2DA3:5922       loc_43352
 2DA3:5949       loc_43379
 2DA3:5951       sub_43381
 2DA3:595A       loc_4338A
 2DA3:5981       loc_433B1
 2DA3:5988       LBX_HelpEntry_s433B8
 2DA3:59BB       LBX_HelpEntry_s433EB
 2DA3:59EE       LBX_HelpEntry_s4341E
 2DA3:5A04       loc_43434
 2DA3:5A0D       loc_4343D
 2DA3:5A21       LBX_HelpEntry_s43451
 2DA3:5A4B       loc_4347B
 2DA3:5A54       LBX_HelpEntry_s43484
 2DA3:5A82       loc_434B2
 2DA3:5A93       LBX_HelpEntry_s434C3
 2DA3:5AC6       LBX_HelpEntry_s434F6
 2DA3:5AF9       sub_43529
 2DA3:5B21       loc_43551
 2DA3:5B23       loc_43553
 2DA3:5B34       loc_43564
 2DA3:5B38       filebuf::terminate(void)
 2DA3:5B3D       filebuf::terminate(void)
 2DA3:5B42       sub_43572
 3358:0000       idk_BuildingWorlds
 3358:0004       loc_43584
 3358:0005       loc_43585
 3358:0008       loc_43588
 3358:0009       loc_43589
 3358:000C       loc_4358C
 3358:000D       loc_4358D
 3358:0124       loc_436A4
 3358:020E       loc_4378E
 3358:0212       loc_43792
 3358:0213       loc_43793
 3358:0220       loc_437A0
 3358:0226       loc_437A6
 3358:022A       loc_437AA
 3358:022B       loc_437AB
 3358:023F       loc_437BF
 3358:0240       loc_437C0
 3358:0247       loc_437C7
 3358:02B9       sub_43839
 3358:02BD       loc_4383D
 3358:02C1       loc_43841
 3358:0300       loc_43880
 3358:0309       loc_43889
 3358:033C       loc_438BC
 3358:033F       loc_438BF
 3358:0344       sub_438C4
 3358:0352       loc_438D2
 3358:0358       loc_438D8
 3358:0387       loc_43907
 3358:0399       loc_43919
 3358:03B7       loc_43937
 3358:03BA       loc_4393A
 3358:03C0       loc_43940
 3358:03C5       loc_43945
 3358:03CE       loc_4394E
 3358:03D9       loc_43959
 3358:03DE       loc_4395E
 3358:03E8       loc_43968
 3358:03F1       loc_43971
 3358:03F6       loc_43976
 3358:040E       loc_4398E
 3358:0426       loc_439A6
 3358:043E       loc_439BE
 3358:0450       loc_439D0
 3358:0466       loc_439E6
 3358:046A       loc_439EA
 3358:0495       loc_43A15
 3358:04AF       loc_43A2F
 3358:04C8       loc_43A48
 3358:04CD       loc_43A4D
 3358:04EF       loc_43A6F
 3358:04F6       loc_43A76
 3358:054A       loc_43ACA
 3358:0551       loc_43AD1
 3358:0556       loc_43AD6
 3358:0559       loc_43AD9
 3358:0561       loc_43AE1
 3358:05B5       loc_43B35
 3358:05BC       loc_43B3C
 3358:05C1       loc_43B41
 3358:05C4       loc_43B44
 3358:05C6       loc_43B46
 3358:05CE       loc_43B4E
 3358:05D0       loc_43B50
 3358:05DC       loc_43B5C
 3358:0624       loc_43BA4
 3358:0629       loc_43BA9
 3358:062B       loc_43BAB
 3358:0630       loc_43BB0
 3358:0632       loc_43BB2
 3358:0635       loc_43BB5
 3358:0689       loc_43C09
 3358:0690       loc_43C10
 3358:0695       loc_43C15
 3358:0697       loc_43C17
 3358:06DC       loc_43C5C
 3358:06DF       loc_43C5F
 3358:06EA       loc_43C6A
 3358:06EB       loc_43C6B
 3358:06F3       loc_43C73
 3358:06F4       loc_43C74
 3358:06FC       loc_43C7C
 3358:0703       off_43C83
 3358:0715       sub_43C95
 3358:0727       loc_43CA7
 3358:0739       loc_43CB9
 3358:078F       loc_43D0F
 3358:07A2       loc_43D22
 3358:07A6       loc_43D26
 3358:07CD       loc_43D4D
 3358:07D0       loc_43D50
 3358:07E3       loc_43D63
 3358:07E4       loc_43D64
 3358:07EC       loc_43D6C
 3358:07FD       loc_43D7D
 3358:082B       loc_43DAB
 3358:082C       loc_43DAC
 3358:084D       loc_43DCD
 3358:0862       loc_43DE2
 3358:08C1       loc_43E41
 3358:08C9       loc_43E49
 3358:08CF       sub_43E4F
 3358:08E1       loc_43E61
 3358:08F2       loc_43E72
 3358:08FD       loc_43E7D
 3358:0902       loc_43E82
 3358:0911       loc_43E91
 3358:0919       loc_43E99
 3358:0937       loc_43EB7
 3358:095F       loc_43EDF
 3358:0986       loc_43F06
 3358:098A       loc_43F0A
 3358:09DA       loc_43F5A
 3358:09DF       loc_43F5F
 3358:09E0       loc_43F60
 3358:09E9       loc_43F69
 3358:0A0F       loc_43F8F
 3358:0A4A       loc_43FCA
 3358:0A4B       loc_43FCB
 3358:0A54       loc_43FD4
 3358:0A5A       loc_43FDA
 3358:0A5E       loc_43FDE
 3358:0A8C       loc_4400C
 3358:0A98       loc_44018
 3358:0A99       loc_44019
 3358:0AA2       loc_44022
 3358:0B03       loc_44083
 3358:0B04       loc_44084
 3358:0B19       loc_44099
 3358:0B4D       loc_440CD
 3358:0B50       loc_440D0
 3358:0BAC       loc_4412C
 3358:0BBC       loc_4413C
 3358:0BC6       loc_44146
 3358:0BD4       loc_44154
 3358:0BF2       loc_44172
 3358:0C06       loc_44186
 3358:0C1F       loc_4419F
 3358:0C34       loc_441B4
 3358:0C49       loc_441C9
 3358:0C5E       loc_441DE
 3358:0C73       loc_441F3
 3358:0C88       loc_44208
 3358:0C8B       loc_4420B
 3358:0C95       loc_44215
 3358:0CAE       loc_4422E
 3358:0CC3       loc_44243
 3358:0CD8       loc_44258
 3358:0CED       loc_4426D
 3358:0D02       loc_44282
 3358:0D17       loc_44297
 3358:0D1A       loc_4429A
 3358:0D2F       loc_442AF
 3358:0D36       loc_442B6
 3358:0D4C       loc_442CC
 3358:0D5A       loc_442DA
 3358:0D62       loc_442E2
 3358:0D77       loc_442F7
 3358:0D8C       loc_4430C
 3358:0DA1       loc_44321
 3358:0DAF       loc_4432F
 3358:0DB6       loc_44336
 3358:0DCB       loc_4434B
 3358:0DE0       loc_44360
 3358:0DF5       loc_44375
 3358:0E08       loc_44388
 3358:0E0A       loc_4438A
 3358:0E22       loc_443A2
 3358:0F06       loc_44486
 3358:0F22       loc_444A2
 3358:0F36       loc_444B6
 3358:0F6F       loc_444EF
 3358:1000       loc_44580
 3358:102D       loc_445AD
 3358:1030       loc_445B0
 3358:10C0       loc_44640
 3358:10EE       loc_4466E
 3358:113B       loc_446BB
 3358:1151       loc_446D1
 3358:11D8       loc_44758
 3358:11DF       loc_4475F
 3358:11E4       loc_44764
 3358:11EC       loc_4476C
 3358:120D       loc_4478D
 3358:1212       loc_44792
 3358:1217       loc_44797
 3358:121C       loc_4479C
 3358:1221       loc_447A1
 3358:1226       loc_447A6
 3358:122B       loc_447AB
 3358:1230       loc_447B0
 3358:1235       loc_447B5
 3358:123A       loc_447BA
 3358:123D       loc_447BD
 3358:123F       loc_447BF
 3358:1244       loc_447C4
 3358:1249       loc_447C9
 3358:124E       loc_447CE
 3358:1253       loc_447D3
 3358:125F       loc_447DF
 3358:12B3       loc_44833
 3358:12B6       loc_44836
 3358:12BF       loc_4483F
 3358:12C2       loc_44842
 3358:12CA       loc_4484A
 3358:12EB       loc_4486B
 3358:12F0       loc_44870
 3358:12F5       loc_44875
 3358:12FA       loc_4487A
 3358:12FF       loc_4487F
 3358:1304       loc_44884
 3358:1309       loc_44889
 3358:130E       loc_4488E
 3358:1313       loc_44893
 3358:1318       loc_44898
 3358:131D       loc_4489D
 3358:1322       loc_448A2
 3358:1327       loc_448A7
 3358:132C       loc_448AC
 3358:1331       loc_448B1
 3358:1391       loc_44911
 3358:13DF       loc_4495F
 3358:13EB       loc_4496B
 3358:13F2       off_44972
 3358:140E       off_4498E
 3358:142A       off_449AA
 3358:143C       off_449BC
 3358:1446       off_449C6
 3358:1450       sub_449D0
 3358:145E       loc_449DE
 3358:1462       loc_449E2
 3358:1480       loc_44A00
 3358:1486       loc_44A06
 3358:148E       sub_44A0E
 3358:14AC       loc_44A2C
 3358:14E7       loc_44A67
 3358:14EC       loc_44A6C
 3358:14F1       loc_44A71
 3358:14F6       loc_44A76
 3358:14F9       loc_44A79
 3358:1520       loc_44AA0
 3358:1525       loc_44AA5
 3358:1527       loc_44AA7
 3358:152A       loc_44AAA
 3358:152D       loc_44AAD
 3358:1537       loc_44AB7
 3358:1539       loc_44AB9
 3358:153B       loc_44ABB
 3358:1541       loc_44AC1
 3358:154D       loc_44ACD
 3358:154F       loc_44ACF
 3358:1553       loc_44AD3
 3358:1560       loc_44AE0
 3358:1565       loc_44AE5
 3358:1567       loc_44AE7
 3358:156D       loc_44AED
 3358:1579       loc_44AF9
 3358:157B       loc_44AFB
 3358:1581       loc_44B01
 3358:158D       loc_44B0D
 3358:1590       loc_44B10
 3358:15A4       loc_44B24
 3358:15AA       loc_44B2A
 3358:15B7       loc_44B37
 3358:15C4       loc_44B44
 3358:15CB       loc_44B4B
 3358:15CE       loc_44B4E
 3358:15D3       loc_44B53
 3358:15E0       loc_44B60
 3358:15FB       loc_44B7B
 3358:1600       loc_44B80
 3358:1610       loc_44B90
 3358:1620       loc_44BA0
 3358:1638       loc_44BB8
 3358:164A       loc_44BCA
 3358:1658       loc_44BD8
 3358:165E       loc_44BDE
 3358:1661       loc_44BE1
 3358:1664       loc_44BE4
 3358:167E       loc_44BFE
 3358:168B       loc_44C0B
 3358:16A2       loc_44C22
 3358:172C       loc_44CAC
 3358:1735       loc_44CB5
 3358:173B       sub_44CBB
 3358:1749       loc_44CC9
 3358:174E       loc_44CCE
 3358:1796       loc_44D16
 3358:17C9       loc_44D49
 3358:17D1       loc_44D51
 3358:1817       loc_44D97
 3358:184D       loc_44DCD
 3358:184E       loc_44DCE
 3358:1856       loc_44DD6
 3358:1857       loc_44DD7
 3358:185F       loc_44DDF
 3358:1867       loc_44DE7
 3358:18D1       loc_44E51
 3358:18D9       loc_44E59
 3358:1914       loc_44E94
 3358:194A       loc_44ECA
 3358:1956       loc_44ED6
 3358:1961       loc_44EE1
 3358:196C       loc_44EEC
 3358:1983       loc_44F03
 3358:19AB       loc_44F2B
 3358:19B4       loc_44F34
 3358:19BB       loc_44F3B
 3358:19BE       loc_44F3E
 3358:19C9       loc_44F49
 3358:19CC       loc_44F4C
 3358:19D5       loc_44F55
 3358:19D8       loc_44F58
 3358:19DE       loc_44F5E
 3358:19E1       loc_44F61
 3358:19E9       loc_44F69
 3358:1A04       loc_44F84
 3358:1A15       loc_44F95
 3358:1A2B       loc_44FAB
 3358:1A34       loc_44FB4
 3358:1A3E       loc_44FBE
 3358:1A5F       loc_44FDF
 3358:1A67       loc_44FE7
 3358:1A94       loc_45014
 3358:1A9A       loc_4501A
 3358:1AA2       loc_45022
 3358:1AD8       loc_45058
 3358:1AE4       loc_45064
 3358:1AEF       loc_4506F
 3358:1AFA       loc_4507A
 3358:1B16       loc_45096
 3358:1B32       loc_450B2
 3358:1B4A       loc_450CA
 3358:1B4D       loc_450CD
 3358:1B58       loc_450D8
 3358:1B5B       loc_450DB
 3358:1B64       loc_450E4
 3358:1B67       loc_450E7
 3358:1B70       loc_450F0
 3358:1B76       sub_450F6
 3358:1B89       loc_45109
 3358:1B8E       loc_4510E
 3358:1BB4       loc_45134
 3358:1BDA       loc_4515A
 3358:1BDC       loc_4515C
 3358:1C0D       loc_4518D
 3358:1C20       loc_451A0
 3358:1C44       loc_451C4
 3358:1C66       loc_451E6
 3358:1C69       loc_451E9
 3358:1CA9       loc_45229
 3358:1CAE       loc_4522E
 3358:1CB0       loc_45230
 3358:1CE3       loc_45263
 3358:1D05       loc_45285
 3358:1D06       loc_45286
 3358:1D0E       loc_4528E
 3358:1D11       loc_45291
 3358:1D1A       loc_4529A
 3358:1D1F       loc_4529F
 3358:1D74       loc_452F4
 3358:1D8A       loc_4530A
 3358:1D93       loc_45313
 3358:1D96       loc_45316
 3358:1DA3       loc_45323
 3358:1DA5       loc_45325
 3358:1DB4       loc_45334
 3358:1DC8       loc_45348
 3358:1DDC       loc_4535C
 3358:1DE8       loc_45368
 3358:1DF0       loc_45370
 3358:1DFA       loc_4537A
 3358:1DFB       loc_4537B
 3358:1E03       loc_45383
 3358:1E04       loc_45384
 3358:1E09       sub_45389
 3358:1E15       loc_45395
 3358:1E17       loc_45397
 3358:1E19       loc_45399
 3358:1E2C       loc_453AC
 3358:1E3C       loc_453BC
 3358:1E3F       loc_453BF
 3358:1E42       loc_453C2
 3358:1E4B       loc_453CB
 3358:1E4F       loc_453CF
 3358:1E5F       loc_453DF
 3358:1E68       loc_453E8
 3358:1E6E       loc_453EE
 3358:1E9A       loc_4541A
 3358:1EA1       loc_45421
 3358:1EA8       loc_45428
 3358:1EAF       loc_4542F
 3358:1EB2       loc_45432
 3358:1EBC       loc_4543C
 3358:1F07       loc_45487
 3358:1F2C       loc_454AC
 3358:1F44       loc_454C4
 3358:1F57       loc_454D7
 3358:1F60       loc_454E0
 3358:1F64       loc_454E4
 3358:1F69       loc_454E9
 3358:1F78       loc_454F8
 3358:1F87       loc_45507
 3358:1FAD       loc_4552D
 3358:1FD5       loc_45555
 3358:2008       loc_45588
 3358:2031       loc_455B1
 3358:2036       loc_455B6
 3358:203B       loc_455BB
 3358:2067       loc_455E7
 3358:206F       loc_455EF
 3358:2077       loc_455F7
 3358:207D       loc_455FD
 3358:2084       loc_45604
 3358:2093       loc_45613
 3358:20A6       loc_45626
 3358:20A9       loc_45629
 3358:20B4       loc_45634
 3358:20BF       loc_4563F
 3358:20C5       sub_45645
 3358:20D2       loc_45652
 3358:2125       loc_456A5
 3358:2134       loc_456B4
 3358:2143       loc_456C3
 3358:2152       loc_456D2
 3358:215B       loc_456DB
 3358:2164       loc_456E4
 3358:216D       loc_456ED
 3358:2176       loc_456F6
 3358:21A3       loc_45723
 3358:21A7       loc_45727
 3358:21E3       loc_45763
 3358:21E6       loc_45766
 3358:21E7       loc_45767
 3358:220B       loc_4578B
 3358:2214       loc_45794
 3358:223D       loc_457BD
 3358:22C1       loc_45841
 3358:22F6       loc_45876
 3358:232F       loc_458AF
 3358:2337       loc_458B7
 3358:233D       loc_458BD
 3358:2396       loc_45916
 3358:23A5       loc_45925
 3358:23B4       loc_45934
 3358:23BD       loc_4593D
 3358:23C3       loc_45943
 3358:23CC       loc_4594C
 3358:23D5       loc_45955
 3358:23DE       loc_4595E
 3358:23E7       loc_45967
 3358:2414       loc_45994
 3358:2418       loc_45998
 3358:246B       loc_459EB
 3358:246C       loc_459EC
 3358:24AE       loc_45A2E
 3358:24B0       loc_45A30
 3358:2546       loc_45AC6
 3358:25B4       loc_45B34
 3358:25BC       loc_45B3C
 3358:25C2       sub_45B42
 3358:25E2       loc_45B62
 3358:2625       loc_45BA5
 3358:2644       loc_45BC4
 3358:2645       loc_45BC5
 3358:2661       loc_45BE1
 3358:2666       loc_45BE6
 3358:266F       loc_45BEF
 3358:2686       loc_45C06
 3358:2693       loc_45C13
 3358:2699       loc_45C19
 3358:26D2       loc_45C52
 3358:26E7       loc_45C67
 3358:26F0       loc_45C70
 3358:2705       loc_45C85
 3358:270F       loc_45C8F
 3358:2710       loc_45C90
 3358:272C       loc_45CAC
 3358:2731       loc_45CB1
 3358:273A       loc_45CBA
 3358:2751       loc_45CD1
 3358:2754       loc_45CD4
 3358:2759       loc_45CD9
 3358:275F       sub_45CDF
 3358:2767       loc_45CE7
 3358:2781       loc_45D01
 3358:2784       loc_45D04
 3358:27C2       loc_45D42
 3358:27CB       loc_45D4B
 3358:27CF       loc_45D4F
 3358:27D3       loc_45D53
 3358:27FC       loc_45D7C
 3358:27FE       loc_45D7E
 3358:2808       loc_45D88
 3358:2811       loc_45D91
 3358:281A       loc_45D9A
 3358:281C       loc_45D9C
 3358:281D       loc_45D9D
 3358:2823       loc_45DA3
 3358:2835       loc_45DB5
 3358:2839       loc_45DB9
 3358:283A       loc_45DBA
 3358:2843       loc_45DC3
 3358:2849       sub_45DC9
 3358:284C       loc_45DCC
 3358:2860       loc_45DE0
 3358:2862       loc_45DE2
 3358:2865       loc_45DE5
 3358:286E       loc_45DEE
 3358:2874       loc_45DF4
 3358:287A       loc_45DFA
 3358:2886       loc_45E06
 3358:289A       loc_45E1A
 3358:289D       loc_45E1D
 3358:28AF       loc_45E2F
 3358:28BE       loc_45E3E
 3358:28CC       loc_45E4C
 3358:28D1       loc_45E51
 3358:28E2       loc_45E62
 3358:28E8       loc_45E68
 3358:28EE       loc_45E6E
 3358:28F1       loc_45E71
 3358:2909       loc_45E89
 3358:290C       loc_45E8C
 3358:2932       loc_45EB2
 3358:2978       loc_45EF8
 3358:297B       loc_45EFB
 3358:297C       loc_45EFC
 3358:2984       loc_45F04
 3358:2A10       loc_45F90
 3358:2A51       loc_45FD1
 3358:2A88       loc_46008
 3358:2AA3       loc_46023
 3358:2AA9       sub_46029
 3358:2ABC       loc_4603C
 3358:2B07       loc_46087
 3358:2B54       loc_460D4
 3358:2B9F       loc_4611F
 3358:2BEC       loc_4616C
 3358:2C37       loc_461B7
 3358:2C50       loc_461D0
 3358:2C7A       loc_461FA
 3358:2C82       loc_46202
 3358:2C84       loc_46204
 3358:2CB0       loc_46230
 3358:2CCF       loc_4624F
 3358:2D1A       loc_4629A
 3358:2D66       loc_462E6
 3358:2D67       loc_462E7
 3358:2D91       loc_46311
 3358:2D9F       loc_4631F
 3358:2DB3       loc_46333
 3358:2DCA       loc_4634A
 3358:2DEA       loc_4636A
 3358:2DED       loc_4636D
 3358:2DF9       loc_46379
 3358:2E00       loc_46380
 3358:2E2B       loc_463AB
 3358:2E44       loc_463C4
 3358:2E47       loc_463C7
 3358:2E50       loc_463D0
 3358:2E56       loc_463D6
 3358:2E59       loc_463D9
 3358:2E61       loc_463E1
 3358:2E80       loc_46400
 3358:2E86       sub_46406
 3358:2E97       loc_46417
 3358:2ECF       loc_4644F
 3358:2EE1       loc_46461
 3358:2EEB       loc_4646B
 3358:2F31       loc_464B1
 3358:2F34       loc_464B4
 3358:2F3B       loc_464BB
 3358:2F48       loc_464C8
 3358:2F65       loc_464E5
 3358:2F68       loc_464E8
 3358:2F70       loc_464F0
 3358:3016       loc_46596
 3358:301E       loc_4659E
 3358:3023       loc_465A3
 3358:3045       loc_465C5
 3358:304A       loc_465CA
 3358:3057       loc_465D7
 3358:305B       loc_465DB
 3358:305C       loc_465DC
 3358:3062       loc_465E2
 3358:3069       loc_465E9
 3358:3070       loc_465F0
 3358:30B1       loc_46631
 3358:30B4       loc_46634
 3358:30BE       loc_4663E
 3358:30D8       loc_46658
 3358:30EA       loc_4666A
 3358:310A       loc_4668A
 3358:3112       loc_46692
 3358:3117       loc_46697
 3358:3156       loc_466D6
 3358:315D       loc_466DD
 3358:3164       loc_466E4
 3358:3188       loc_46708
 3358:31A5       loc_46725
 3358:31A8       loc_46728
 3358:31B0       loc_46730
 3358:31C0       loc_46740
 3358:31C3       loc_46743
 3358:31D1       loc_46751
 3358:31D2       loc_46752
 3358:31E0       loc_46760
 3358:31F2       loc_46772
 3358:31FA       loc_4677A
 3358:3204       loc_46784
 3358:3217       loc_46797
 3358:3227       sub_467A7
 3358:3260       loc_467E0
 3358:32B1       loc_46831
 3358:32C5       loc_46845
 3358:32D9       loc_46859
 3358:32ED       loc_4686D
 3358:3301       loc_46881
 3358:3322       loc_468A2
 3358:33D4       loc_46954
 3358:33E2       loc_46962
 3358:33F0       loc_46970
 3358:340F       loc_4698F
 3358:3416       loc_46996
 3358:3418       loc_46998
 3358:341F       loc_4699F
 3358:3426       loc_469A6
 3358:342D       loc_469AD
 3358:3434       loc_469B4
 3358:3437       loc_469B7
 3358:3473       loc_469F3
 3358:348C       loc_46A0C
 3358:3493       loc_46A13
 3358:3495       loc_46A15
 3358:3497       loc_46A17
 3358:349E       loc_46A1E
 3358:34A0       loc_46A20
 3358:34B9       loc_46A39
 3358:34BE       loc_46A3E
 3358:34C3       loc_46A43
 3358:34C8       loc_46A48
 3358:34CD       loc_46A4D
 3358:34D2       loc_46A52
 3358:34D7       loc_46A57
 3358:34FD       loc_46A7D
 3358:3530       loc_46AB0
 3358:355F       loc_46ADF
 3358:3562       loc_46AE2
 3358:357C       loc_46AFC
 3358:3586       loc_46B06
 3358:3618       loc_46B98
 3358:363E       loc_46BBE
 3358:3678       loc_46BF8
 3358:3694       loc_46C14
 3358:36AB       loc_46C2B
 3358:36E6       loc_46C66
 3358:3760       loc_46CE0
 3358:3763       loc_46CE3
 3358:376D       loc_46CED
 3358:3780       loc_46D00
 3358:378A       loc_46D0A
 3358:37AB       loc_46D2B
 3358:37CF       loc_46D4F
 3358:37DA       loc_46D5A
 3358:3828       loc_46DA8
 3358:382A       loc_46DAA
 3358:383E       loc_46DBE
 3358:384E       loc_46DCE
 3358:3850       loc_46DD0
 3358:3855       loc_46DD5
 3358:385B       loc_46DDB
 3358:3874       loc_46DF4
 3358:3881       loc_46E01
 3358:38DE       loc_46E5E
 3358:38E0       loc_46E60
 3358:390E       loc_46E8E
 3358:392F       loc_46EAF
 3358:393F       loc_46EBF
 3358:3948       loc_46EC8
 3358:3961       loc_46EE1
 3358:3998       loc_46F18
 3358:399B       loc_46F1B
 3358:39A4       loc_46F24
 3358:39B0       loc_46F30
 3358:39B7       loc_46F37
 3358:39C0       loc_46F40
 3358:39D1       loc_46F51
 3358:39D4       loc_46F54
 3358:39FD       loc_46F7D
 3358:3A17       loc_46F97
 3358:3A33       loc_46FB3
 3358:3A40       loc_46FC0
 3358:3A43       loc_46FC3
 3358:3A50       loc_46FD0
 3358:3A5A       loc_46FDA
 3358:3A63       loc_46FE3
 3358:3A80       loc_47000
 3358:3AA8       loc_47028
 3358:3AB6       loc_47036
 3358:3ACD       loc_4704D
 3358:3ADB       loc_4705B
 3358:3AE6       loc_47066
 3358:3AE9       loc_47069
 3358:3AFC       loc_4707C
 3358:3B19       loc_47099
 3358:3B1C       loc_4709C
 3358:3B26       loc_470A6
 3358:3B5E       loc_470DE
 3358:3B70       loc_470F0
 3358:3B7C       loc_470FC
 3358:3B82       loc_47102
 3358:3B8D       loc_4710D
 3358:3BA6       loc_47126
 3358:3BA8       loc_47128
 3358:3BCE       loc_4714E
 3358:3BD9       loc_47159
 3358:3BEA       loc_4716A
 3358:3BEC       loc_4716C
 3358:3BF7       loc_47177
 3358:3BFD       loc_4717D
 3358:3BFF       loc_4717F
 3358:3C04       loc_47184
 3358:3C0A       loc_4718A
 3358:3C13       loc_47193
 3358:3C15       loc_47195
 3358:3C1D       loc_4719D
 3358:3C2A       loc_471AA
 3358:3C51       loc_471D1
 3358:3C7B       loc_471FB
 3358:3C81       off_47201
 3358:3C9F       off_4721F
 3358:3CA9       off_47229
 3358:3CB1       off_47231
 3358:3CBD       off_4723D
 3358:3CC7       sub_47247
 3358:3CC8       loc_47248
 3358:3CCF       loc_4724F
 3358:3CD6       loc_47256
 3358:3CFD       loc_4727D
 3358:3CFF       loc_4727F
 3358:3D01       loc_47281
 3358:3D0D       loc_4728D
 3358:3D1E       loc_4729E
 3358:3D20       loc_472A0
 3358:3D23       loc_472A3
 3358:3D25       loc_472A5
 3358:3D36       loc_472B6
 3358:3D37       loc_472B7
 3358:3D41       loc_472C1
 3358:3D47       LBX_Terrtype_s472C7
 3358:3D81       loc_47301
 3358:3D86       loc_47306
 3358:3D8B       loc_4730B
 3358:3DA2       loc_47322
 3358:3DB2       loc_47332
 3358:3DB9       loc_47339
 3358:3DC0       loc_47340
 3358:3E25       loc_473A5
 3358:3E28       loc_473A8
 3358:3E31       loc_473B1
 3358:3E37       loc_473B7
 3358:3E38       loc_473B8
 3358:3E40       loc_473C0
 3358:3E41       loc_473C1
 3358:3E49       loc_473C9
 3358:3E4C       loc_473CC
 3358:3E55       loc_473D5
 3358:3E5D       loc_473DD
 3358:3E62       loc_473E2
 3358:3E67       loc_473E7
 3358:3E6A       loc_473EA
 3358:3E8E       loc_4740E
 3358:3EDC       loc_4745C
 3358:3F02       loc_47482
 3358:3F21       loc_474A1
 3358:3F4A       loc_474CA
 3358:3F57       loc_474D7
 3358:3F67       loc_474E7
 3358:3F8F       loc_4750F
 3358:3F9F       loc_4751F
 3358:3FAB       loc_4752B
 3358:3FAF       loc_4752F
 3358:3FDA       loc_4755A
 3358:3FFA       loc_4757A
 3358:3FFF       loc_4757F
 3358:4000       loc_47580
 3358:400A       loc_4758A
 3358:4022       loc_475A2
 3358:4032       loc_475B2
 3358:4036       loc_475B6
 3358:403B       loc_475BB
 3358:4040       loc_475C0
 3358:405C       loc_475DC
 3358:4079       loc_475F9
 3358:4089       loc_47609
 3358:409B       loc_4761B
 3358:409C       loc_4761C
 3358:40A4       loc_47624
 3358:40A5       loc_47625
 3358:40AD       loc_4762D
 3358:40B0       loc_47630
 3358:40B9       loc_47639
 3358:40BF       LBX_Terrtype_s4763F
 3358:40F9       loc_47679
 3358:40FE       loc_4767E
 3358:4103       loc_47683
 3358:4106       loc_47686
 3358:4128       loc_476A8
 3358:412D       loc_476AD
 3358:4143       loc_476C3
 3358:4157       loc_476D7
 3358:4177       loc_476F7
 3358:417A       loc_476FA
 3358:4184       loc_47704
 3358:4197       loc_47717
 3358:419A       loc_4771A
 3358:41B6       loc_47736
 3358:41CB       loc_4774B
 3358:41EC       loc_4776C
 3358:41FD       loc_4777D
 3358:421C       loc_4779C
 3358:4240       loc_477C0
 3358:4242       loc_477C2
 3358:4252       loc_477D2
 3358:4263       loc_477E3
 3358:4296       loc_47816
 3358:42AD       loc_4782D
 3358:42B1       loc_47831
 3358:42C2       loc_47842
 3358:4307       loc_47887
 3358:4317       loc_47897
 3358:4336       loc_478B6
 3358:433D       loc_478BD
 3358:434E       loc_478CE
 3358:4358       loc_478D8
 3358:435C       loc_478DC
 3358:4366       loc_478E6
 3358:436C       loc_478EC
 3358:437D       loc_478FD
 3358:4385       loc_47905
 3358:43B1       loc_47931
 3358:43CE       loc_4794E
 3358:43D2       loc_47952
 3358:43DD       loc_4795D
 3358:43E3       loc_47963
 3358:43EB       loc_4796B
 3358:43FF       loc_4797F
 3358:442D       loc_479AD
 3358:4432       loc_479B2
 3358:4465       loc_479E5
 3358:4468       loc_479E8
 3358:4471       loc_479F1
 3358:4472       loc_479F2
 3358:447A       loc_479FA
 3358:447D       loc_479FD
 3358:4486       loc_47A06
 3358:448E       loc_47A0E
 3358:4493       loc_47A13
 3358:449B       loc_47A1B
 3358:44B0       loc_47A30
 3358:44C3       loc_47A43
 3358:453D       loc_47ABD
 3358:454B       loc_47ACB
 3358:45BD       loc_47B3D
 3358:45C6       loc_47B46
 3358:463B       loc_47BBB
 3358:464D       loc_47BCD
 3358:46BF       loc_47C3F
 3358:46CC       loc_47C4C
 3358:4741       loc_47CC1
 3358:4753       loc_47CD3
 3358:47C5       loc_47D45
 3358:47CE       loc_47D4E
 3358:47DF       loc_47D5F
 3358:4843       loc_47DC3
 3358:4852       loc_47DD2
 3358:48C4       loc_47E44
 3358:48CF       loc_47E4F
 3358:48DD       loc_47E5D
 3358:4904       loc_47E84
 3358:4907       loc_47E87
 3358:4910       loc_47E90
 3358:4911       loc_47E91
 3358:4919       loc_47E99
 3358:491C       loc_47E9C
 3358:4925       loc_47EA5
 3358:492D       loc_47EAD
 3358:4932       loc_47EB2
 3358:493A       loc_47EBA
 3358:4962       loc_47EE2
 3358:4978       loc_47EF8
 3358:49DF       loc_47F5F
 3358:49EA       loc_47F6A
 3358:49F2       loc_47F72
 3358:4A5D       loc_47FDD
 3358:4A64       loc_47FE4
 3358:4A6D       loc_47FED
 3358:4A7A       loc_47FFA
 3358:4A7E       loc_47FFE
 3358:4AA2       loc_48022
 3358:4AAA       loc_4802A
 3358:4AAC       loc_4802C
 3358:4AB5       loc_48035
 3358:4AB8       loc_48038
 3358:4ADE       loc_4805E
 3358:4AF0       loc_48070
 3358:4AF9       loc_48079
 3358:4B0A       loc_4808A
 3358:4B5C       loc_480DC
 3358:4B79       loc_480F9
 3358:4B86       loc_48106
 3358:4B97       loc_48117
 3358:4BDC       loc_4815C
 3358:4C09       loc_48189
 3358:4C12       loc_48192
 3358:4C84       loc_48204
 3358:4C8D       loc_4820D
 3358:4C90       loc_48210
 3358:4C9E       loc_4821E
 3358:4CE1       loc_48261
 3358:4CEA       loc_4826A
 3358:4CF2       loc_48272
 3358:4CFA       loc_4827A
 3358:4D05       loc_48285
 3358:4D10       loc_48290
 3358:4D19       loc_48299
 3358:4D1D       loc_4829D
 3358:4D20       loc_482A0
 3358:4D2A       loc_482AA
 3358:4D2D       loc_482AD
 3358:4D77       loc_482F7
 3358:4D92       loc_48312
 3358:4D97       loc_48317
 3358:4D99       loc_48319
 3358:4D9E       loc_4831E
 3358:4DA7       loc_48327
 3358:4DAE       loc_4832E
 3358:4DB0       loc_48330
 3358:4DB3       loc_48333
 3358:4DB7       loc_48337
 3358:4DBA       loc_4833A
 3358:4DC0       loc_48340
 3358:4DC2       loc_48342
 3358:4DD6       loc_48356
 3358:4DD9       loc_48359
 3358:4DDF       loc_4835F
 3358:4DE2       loc_48362
 3358:4DE3       loc_48363
 3358:4DEB       loc_4836B
 3358:4DEE       loc_4836E
 3358:4DF7       loc_48377
 3358:4DFF       loc_4837F
 3358:4E04       loc_48384
 3358:4E0C       loc_4838C
 3358:4E34       loc_483B4
 3358:4E3F       loc_483BF
 3358:4E4D       loc_483CD
 3358:4E54       loc_483D4
 3358:4E5E       loc_483DE
 3358:4E9F       loc_4841F
 3358:4EAE       loc_4842E
 3358:4EBC       loc_4843C
 3358:4ECD       loc_4844D
 3358:4EF3       loc_48473
 3358:4EFA       loc_4847A
 3358:4F2E       loc_484AE
 3358:4F37       loc_484B7
 3358:4F7C       loc_484FC
 3358:4FAC       loc_4852C
 3358:4FBE       loc_4853E
 3358:4FDD       loc_4855D
 3358:5030       loc_485B0
 3358:503D       loc_485BD
 3358:5089       loc_48609
 3358:5099       loc_48619
 3358:50B2       loc_48632
 3358:50C4       loc_48644
 3358:50DF       loc_4865F
 3358:5136       loc_486B6
 3358:513F       loc_486BF
 3358:51B4       loc_48734
 3358:51C3       loc_48743
 3358:51CB       loc_4874B
 3358:51E0       loc_48760
 3358:51FC       loc_4877C
 3358:5235       loc_487B5
 3358:5240       loc_487C0
 3358:5258       loc_487D8
 3358:5260       loc_487E0
 3358:527A       loc_487FA
 3358:527D       loc_487FD
 3358:5286       loc_48806
 3358:5287       loc_48807
 3358:528F       loc_4880F
 3358:5292       loc_48812
 3358:529B       loc_4881B
 3358:52A1       LBX_Terrtype_s48821
 3358:52C6       loc_48846
 3358:52DB       loc_4885B
 3358:52E0       loc_48860
 3358:52E5       loc_48865
 3358:5300       loc_48880
 3358:530C       loc_4888C
 3358:5325       loc_488A5
 3358:532C       loc_488AC
 3358:533F       loc_488BF
 3358:5350       loc_488D0
 3358:5374       loc_488F4
 3358:5398       loc_48918
 3358:53BC       loc_4893C
 3358:53E0       loc_48960
 3358:53E3       loc_48963
 3358:5404       loc_48984
 3358:5428       loc_489A8
 3358:544C       loc_489CC
 3358:5470       loc_489F0
 3358:5497       loc_48A17
 3358:54B0       loc_48A30
 3358:54B7       loc_48A37
 3358:54DB       loc_48A5B
 3358:54FF       loc_48A7F
 3358:5523       loc_48AA3
 3358:5547       loc_48AC7
 3358:556E       loc_48AEE
 3358:558F       loc_48B0F
 3358:55B3       loc_48B33
 3358:55D7       loc_48B57
 3358:55FB       loc_48B7B
 3358:5622       loc_48BA2
 3358:5643       loc_48BC3
 3358:564F       loc_48BCF
 3358:5667       loc_48BE7
 3358:568B       loc_48C0B
 3358:56AF       loc_48C2F
 3358:56B0       loc_48C30
 3358:56B8       loc_48C38
 3358:56B9       loc_48C39
 3358:56C1       loc_48C41
 3358:56C4       loc_48C44
 3358:56CD       loc_48C4D
 3358:56D3       off_48C53
 3358:56DB       off_48C5B
 3358:56E3       sub_48C63
 3358:572F       loc_48CAF
 3358:5731       loc_48CB1
 3358:5734       loc_48CB4
 3358:574E       loc_48CCE
 3358:5766       loc_48CE6
 3358:5780       loc_48D00
 3358:5798       loc_48D18
 3358:57AE       loc_48D2E
 3358:57C7       loc_48D47
 3358:57E2       loc_48D62
 3358:57FB       loc_48D7B
 3358:5816       loc_48D96
 3358:582D       loc_48DAD
 3358:5844       loc_48DC4
 3358:585B       loc_48DDB
 3358:5872       loc_48DF2
 3358:58AB       loc_48E2B
 3358:58C0       loc_48E40
 3358:58C8       loc_48E48
 3358:58E6       loc_48E66
 3358:593F       loc_48EBF
 3358:5962       loc_48EE2
 3358:5979       loc_48EF9
 3358:5990       loc_48F10
 3358:59A7       loc_48F27
 3358:59BE       loc_48F3E
 3358:59D7       loc_48F57
 3358:5A04       loc_48F84
 3358:5A0D       loc_48F8D
 3358:5A14       loc_48F94
 3358:5A2F       loc_48FAF
 3358:5A3E       loc_48FBE
 3358:5A48       loc_48FC8
 3358:5A4C       loc_48FCC
 3358:5A63       loc_48FE3
 3358:5A7E       loc_48FFE
 3358:5A87       loc_49007
 3358:5A8D       loc_4900D
 3358:5A96       loc_49016
 3358:5A9F       loc_4901F
 3358:5AD7       loc_49057
 3358:5AF0       loc_49070
 3358:5B07       loc_49087
 3358:5B20       loc_490A0
 3358:5B39       loc_490B9
 3358:5B40       loc_490C0
 3358:5B7B       loc_490FB
 3358:5B89       loc_49109
 3358:5B8F       sub_4910F
 3358:5B9C       loc_4911C
 3358:5BA1       loc_49121
 3358:5BDB       loc_4915B
 3358:5BE5       loc_49165
 3358:5C14       loc_49194
 3358:5C17       loc_49197
 3358:5C27       loc_491A7
 3358:5C41       loc_491C1
 3358:5C45       loc_491C5
 3358:5C6F       loc_491EF
 3358:5C73       loc_491F3
 3358:5C9D       loc_4921D
 3358:5CA1       loc_49221
 3358:5CB0       loc_49230
 3358:5CDC       loc_4925C
 3358:5CF9       loc_49279
 3358:5D12       loc_49292
 3358:5D2B       loc_492AB
 3358:5D44       loc_492C4
 3358:5D4D       loc_492CD
 3358:5D58       loc_492D8
 3358:5D5F       loc_492DF
 3358:5D84       loc_49304
 3358:5DA9       loc_49329
 3358:5DAF       loc_4932F
 3358:5DCE       loc_4934E
 3358:5DF0       loc_49370
 3358:5E0A       loc_4938A
 3358:5E17       loc_49397
 3358:5E3C       loc_493BC
 3358:5E7A       loc_493FA
 3358:5E9F       loc_4941F
 3358:5EE7       loc_49467
 3358:5F0C       loc_4948C
 3358:5F2E       loc_494AE
 3358:5F4B       loc_494CB
 3358:5F70       loc_494F0
 3358:5FB8       loc_49538
 3358:5FDD       loc_4955D
 3358:601B       loc_4959B
 3358:6057       loc_495D7
 3358:6060       loc_495E0
 3358:607D       loc_495FD
 3358:60FF       loc_4967F
 3358:610B       loc_4968B
 3358:610E       loc_4968E
 3358:6111       loc_49691
 3358:611A       loc_4969A
 3358:6128       loc_496A8
 3358:612F       loc_496AF
 3358:6157       loc_496D7
 3358:615A       loc_496DA
 3358:6179       loc_496F9
 3358:6182       loc_49702
 3358:6185       loc_49705
 3358:61AD       loc_4972D
 3358:61B0       loc_49730
 3358:61D8       loc_49758
 3358:61DB       loc_4975B
 3358:6203       loc_49783
 3358:6206       loc_49786
 3358:622E       loc_497AE
 3358:6231       loc_497B1
 3358:6259       loc_497D9
 3358:625C       loc_497DC
 3358:6284       loc_49804
 3358:6287       loc_49807
 3358:62AF       loc_4982F
 3358:62B2       loc_49832
 3358:62DA       loc_4985A
 3358:62DD       loc_4985D
 3358:6305       loc_49885
 3358:6308       loc_49888
 3358:6330       loc_498B0
 3358:6333       loc_498B3
 3358:635B       loc_498DB
 3358:635D       loc_498DD
 3358:6385       loc_49905
 3358:6387       loc_49907
 3358:63AF       loc_4992F
 3358:63B1       loc_49931
 3358:63D9       loc_49959
 3358:63DB       loc_4995B
 3358:63DE       loc_4995E
 3358:63E7       loc_49967
 3358:63F0       loc_49970
 3358:63FE       loc_4997E
 3358:6405       loc_49985
 3358:642D       loc_499AD
 3358:6455       loc_499D5
 3358:647D       loc_499FD
 3358:6480       loc_49A00
 3358:64A8       loc_49A28
 3358:64AE       loc_49A2E
 3358:64D0       loc_49A50
 3358:64F8       loc_49A78
 3358:64FB       loc_49A7B
 3358:6523       loc_49AA3
 3358:654B       loc_49ACB
 3358:6573       loc_49AF3
 3358:6576       loc_49AF6
 3358:659E       loc_49B1E
 3358:65C6       loc_49B46
 3358:65EE       loc_49B6E
 3358:65F1       loc_49B71
 3358:6619       loc_49B99
 3358:6641       loc_49BC1
 3358:6669       loc_49BE9
 3358:666C       loc_49BEC
 3358:6694       loc_49C14
 3358:66BC       loc_49C3C
 3358:66E4       loc_49C64
 3358:66E7       loc_49C67
 3358:670F       loc_49C8F
 3358:6737       loc_49CB7
 3358:6758       loc_49CD8
 3358:675F       loc_49CDF
 3358:6762       loc_49CE2
 3358:678A       loc_49D0A
 3358:67B2       loc_49D32
 3358:67DA       loc_49D5A
 3358:67DD       loc_49D5D
 3358:6805       loc_49D85
 3358:682D       loc_49DAD
 3358:6855       loc_49DD5
 3358:6858       loc_49DD8
 3358:6880       loc_49E00
 3358:68A8       loc_49E28
 3358:68D0       loc_49E50
 3358:68D3       loc_49E53
 3358:68FB       loc_49E7B
 3358:68FF       loc_49E7F
 3358:6914       loc_49E94
 3358:6923       loc_49EA3
 3358:694B       loc_49ECB
 3358:694E       loc_49ECE
 3358:695A       loc_49EDA
 3358:6976       loc_49EF6
 3358:699E       loc_49F1E
 3358:69C6       loc_49F46
 3358:69C9       loc_49F49
 3358:69F1       loc_49F71
 3358:6A19       loc_49F99
 3358:6A41       loc_49FC1
 3358:6A44       loc_49FC4
 3358:6A6C       loc_49FEC
 3358:6A94       loc_4A014
 3358:6ABC       loc_4A03C
 3358:6ABF       loc_4A03F
 3358:6AE7       loc_4A067
 3358:6B0F       loc_4A08F
 3358:6B37       loc_4A0B7
 3358:6B39       loc_4A0B9
 3358:6B61       loc_4A0E1
 3358:6B89       loc_4A109
 3358:6BB1       loc_4A131
 3358:6BB3       loc_4A133
 3358:6BB6       loc_4A136
 3358:6BBF       loc_4A13F
 3358:6BC8       loc_4A148
 3358:6BF9       loc_4A179
 3358:6C29       loc_4A1A9
 3358:6C54       loc_4A1D4
 3358:6C7C       loc_4A1FC
 3358:6C85       loc_4A205
 3358:6C8E       loc_4A20E
 3358:6CBF       loc_4A23F
 3358:6CEF       loc_4A26F
 3358:6D42       loc_4A2C2
 3358:6D5D       loc_4A2DD
 3358:6D6B       loc_4A2EB
 3358:6D72       loc_4A2F2
 3358:6D78       loc_4A2F8
 3358:6D9D       loc_4A31D
 3358:6DA5       loc_4A325
 3358:6DAD       loc_4A32D
 3358:6DB3       loc_4A333
 3358:6DF2       loc_4A372
 3358:6DFA       loc_4A37A
 3358:6E24       loc_4A3A4
 3358:6E6F       loc_4A3EF
 3358:6E89       loc_4A409
 3358:6E96       loc_4A416
 3358:6EB1       loc_4A431
 3358:6EBD       loc_4A43D
 3358:6EC4       loc_4A444
 3358:6ECA       loc_4A44A
 3358:6EEF       loc_4A46F
 3358:6EF7       loc_4A477
 3358:6EFF       loc_4A47F
 3358:6F05       loc_4A485
 3358:6F4E       loc_4A4CE
 3358:6F92       loc_4A512
 3358:6F9B       loc_4A51B
 3358:6FE9       loc_4A569
 3358:7000       loc_4A580
 3358:700C       loc_4A58C
 3358:700F       loc_4A58F
 3358:702A       loc_4A5AA
 3358:7036       loc_4A5B6
 3358:703D       loc_4A5BD
 3358:7043       loc_4A5C3
 3358:7068       loc_4A5E8
 3358:7070       loc_4A5F0
 3358:7078       loc_4A5F8
 3358:707E       loc_4A5FE
 3358:70C7       loc_4A647
 3358:710B       loc_4A68B
 3358:7114       loc_4A694
 3358:7179       loc_4A6F9
 3358:7185       loc_4A705
 3358:7188       loc_4A708
 3358:71A3       loc_4A723
 3358:71AF       loc_4A72F
 3358:71B6       loc_4A736
 3358:71BC       loc_4A73C
 3358:71E1       loc_4A761
 3358:71E9       loc_4A769
 3358:71F1       loc_4A771
 3358:71F7       loc_4A777
 3358:7236       loc_4A7B6
 3358:7260       loc_4A7E0
 3358:7268       loc_4A7E8
 3358:72B3       loc_4A833
 3358:72CD       loc_4A84D
 3358:72DA       loc_4A85A
 3358:72DB       loc_4A85B
 3358:72E3       loc_4A863
 3358:72E4       loc_4A864
 3358:72EC       loc_4A86C
 3358:72F2       off_4A872
 3358:7300       off_4A880
 3358:7316       off_4A896
 3358:7330       off_4A8B0
 3358:734A       off_4A8CA
 3358:736A       off_4A8EA
 3358:73A2       off_4A922
 3358:73C2       sub_4A942
 3358:73D5       loc_4A955
 3358:73DE       loc_4A95E
 3358:73F7       loc_4A977
 3358:7403       loc_4A983
 3358:740F       loc_4A98F
 3358:741B       loc_4A99B
 3358:741D       loc_4A99D
 3358:741F       loc_4A99F
 3358:742B       loc_4A9AB
 3358:7437       loc_4A9B7
 3358:7439       loc_4A9B9
 3358:7445       loc_4A9C5
 3358:7447       loc_4A9C7
 3358:7449       loc_4A9C9
 3358:7455       loc_4A9D5
 3358:7461       loc_4A9E1
 3358:7463       loc_4A9E3
 3358:747C       loc_4A9FC
 3358:7488       loc_4AA08
 3358:7494       loc_4AA14
 3358:74A0       loc_4AA20
 3358:74AC       loc_4AA2C
 3358:74B8       loc_4AA38
 3358:74B9       loc_4AA39
 3358:74C2       loc_4AA42
 3358:74C7       loc_4AA47
 3358:7519       loc_4AA99
 3358:752F       loc_4AAAF
 3358:7569       loc_4AAE9
 3358:756D       loc_4AAED
 3358:75A8       loc_4AB28
 3358:75A9       loc_4AB29
 3358:75B3       loc_4AB33
 3358:75EE       loc_4AB6E
 3358:760C       loc_4AB8C
 3358:760D       loc_4AB8D
 3358:7617       loc_4AB97
 3358:766B       loc_4ABEB
 3358:766C       loc_4ABEC
 3358:7675       loc_4ABF5
 3358:7681       loc_4AC01
 3358:76B0       loc_4AC30
 3358:76B1       loc_4AC31
 3358:76BA       loc_4AC3A
 3358:770E       loc_4AC8E
 3358:770F       loc_4AC8F
 3358:7724       loc_4ACA4
 3358:7730       loc_4ACB0
 3358:774D       loc_4ACCD
 3358:7762       loc_4ACE2
 3358:7769       loc_4ACE9
 3358:777F       loc_4ACFF
 3358:7795       loc_4AD15
 3358:77AB       loc_4AD2B
 3358:77C6       loc_4AD46
 3358:77D9       loc_4AD59
 3358:77DB       loc_4AD5B
 3358:77DD       loc_4AD5D
 3358:77F2       loc_4AD72
 3358:77FA       loc_4AD7A
 3358:77FE       loc_4AD7E
 3358:7807       loc_4AD87
 3358:7809       loc_4AD89
 3358:781E       loc_4AD9E
 3358:7821       loc_4ADA1
 3358:7823       loc_4ADA3
 3358:7838       loc_4ADB8
 3358:7846       loc_4ADC6
 3358:784D       loc_4ADCD
 3358:7850       loc_4ADD0
 3358:7869       loc_4ADE9
 3358:787E       loc_4ADFE
 3358:7893       loc_4AE13
 3358:78A8       loc_4AE28
 3358:78BD       loc_4AE3D
 3358:78D2       loc_4AE52
 3358:791D       loc_4AE9D
 3358:79DF       loc_4AF5F
 3358:7C25       loc_4B1A5
 3358:7C3B       loc_4B1BB
 3358:7C73       loc_4B1F3
 3358:7C7A       loc_4B1FA
 3358:7C8D       loc_4B20D
 3358:7CA0       loc_4B220
 3358:7CB3       loc_4B233
 3358:7CC6       loc_4B246
 3358:7CD9       loc_4B259
 3358:7CEC       loc_4B26C
 3358:7CFF       loc_4B27F
 3358:7D12       loc_4B292
 3358:7D25       loc_4B2A5
 3358:7D38       loc_4B2B8
 3358:7D3F       loc_4B2BF
 3358:7D7C       loc_4B2FC
 3358:7DA5       loc_4B325
 3358:7DBF       loc_4B33F
 3358:7E14       loc_4B394
 3358:7E16       loc_4B396
 3358:7E6E       loc_4B3EE
 3358:7E83       loc_4B403
 3358:7E84       loc_4B404
 3358:7E8C       loc_4B40C
 3358:7E92       loc_4B412
 3358:7F13       loc_4B493
 3358:7F14       loc_4B494
 3358:7F1C       loc_4B49C
 3358:7F27       loc_4B4A7
 3358:7F51       loc_4B4D1
 3358:7FB4       loc_4B534
 3358:7FFF       loc_4B57F
 3358:8014       loc_4B594
 3358:8065       loc_4B5E5
 3358:8068       loc_4B5E8
 3358:8069       loc_4B5E9
 3358:8072       loc_4B5F2
 3358:807D       loc_4B5FD
 3358:80A7       loc_4B627
 3358:810A       loc_4B68A
 3358:816A       loc_4B6EA
 3358:81BE       loc_4B73E
 3358:81BF       loc_4B73F
 3358:81C8       loc_4B748
 3358:81CC       loc_4B74C
 3358:821C       loc_4B79C
 3358:823E       loc_4B7BE
 3358:8248       loc_4B7C8
 3358:8298       loc_4B818
 3358:82BA       loc_4B83A
 3358:82BC       loc_4B83C
 3358:82C0       loc_4B840
 3358:8310       loc_4B890
 3358:8332       loc_4B8B2
 3358:834B       loc_4B8CB
 3358:8358       loc_4B8D8
 3358:8361       loc_4B8E1
 3358:8366       loc_4B8E6
 3358:8372       loc_4B8F2
 3358:8375       loc_4B8F5
 3358:837B       off_4B8FB
 3358:83AB       off_4B92B
 3358:83B5       off_4B935
 3358:83CF       off_4B94F
 3358:83D9       off_4B959
 3358:83F3       LBX_Cityname_s4B973
 3358:8427       loc_4B9A7
 3358:843C       loc_4B9BC
 3358:8484       loc_4BA04
 3358:84A8       loc_4BA28
 3358:84A9       loc_4BA29
 3358:84D3       sub_4BA53
 3358:84E6       loc_4BA66
 3358:84ED       loc_4BA6D
 3358:850E       loc_4BA8E
 3358:8517       loc_4BA97
 3358:8525       loc_4BAA5
 3358:855B       loc_4BADB
 3358:85A1       loc_4BB21
 3358:85BB       loc_4BB3B
 3358:85D3       loc_4BB53
 3358:85EB       loc_4BB6B
 3358:862C       loc_4BBAC
 3358:8648       loc_4BBC8
 3358:8679       loc_4BBF9
 3358:86E4       loc_4BC64
 3358:870D       loc_4BC8D
 3358:875C       loc_4BCDC
 3358:87A4       loc_4BD24
 3358:87AB       loc_4BD2B
 3358:87AE       loc_4BD2E
 3358:87C0       loc_4BD40
 3358:87C9       loc_4BD49
 3358:87D1       loc_4BD51
 3358:87D4       loc_4BD54
 3358:87FE       loc_4BD7E
 3358:8801       loc_4BD81
 3358:8803       loc_4BD83
 3358:886F       loc_4BDEF
 3358:8872       loc_4BDF2
 3358:887E       loc_4BDFE
 3358:8881       loc_4BE01
 3358:888D       loc_4BE0D
 3358:8890       loc_4BE10
 3358:889C       loc_4BE1C
 3358:88A4       loc_4BE24
 3358:88B6       loc_4BE36
 3358:897E       loc_4BEFE
 3358:898F       loc_4BF0F
 3358:8992       loc_4BF12
 3358:899E       loc_4BF1E
 3358:89A4       sub_4BF24
 3358:89F9       loc_4BF79
 3358:89FF       loc_4BF7F
 3358:8A08       loc_4BF88
 3358:8A12       locret_4BF92
 3358:8A13       sub_4BF93
 3358:8A1F       loc_4BF9F
 3358:8A23       loc_4BFA3
 3358:8A5E       loc_4BFDE
 3358:8A64       loc_4BFE4
 3358:8A76       loc_4BFF6
 3358:8A7B       loc_4BFFB
 3358:8A83       loc_4C003
 3358:8A8B       loc_4C00B
 3358:8AC2       loc_4C042
 3358:8B0C       loc_4C08C
 3358:8B0F       loc_4C08F
 3358:8B1C       loc_4C09C
 3358:8B4C       loc_4C0CC
 3358:8B4F       loc_4C0CF
 3358:8B5C       loc_4C0DC
 3358:8BA7       loc_4C127
 3358:8BAA       loc_4C12A
 3358:8BD5       loc_4C155
 3358:8BDE       loc_4C15E
 3358:8BE4       loc_4C164
 3358:8BE7       loc_4C167
 3358:8BFE       loc_4C17E
 3358:8C25       loc_4C1A5
 3358:8C37       loc_4C1B7
 3358:8C50       loc_4C1D0
 3358:8C65       loc_4C1E5
 3358:8C74       loc_4C1F4
 3358:8C76       loc_4C1F6
 3358:8C78       loc_4C1F8
 3358:8C7A       loc_4C1FA
 3358:8C7C       loc_4C1FC
 3358:8CA0       loc_4C220
 3358:8CC4       loc_4C244
 3358:8CF3       loc_4C273
 3358:8D2C       loc_4C2AC
 3358:8D65       loc_4C2E5
 3358:8D94       loc_4C314
 3358:8DCD       loc_4C34D
 3358:8DD3       loc_4C353
 3358:8DDC       loc_4C35C
 3358:8DE2       loc_4C362
 3358:8DEB       loc_4C36B
 3358:8DF1       off_4C371
 3358:8DFF       sub_4C37F
 3358:8E18       loc_4C398
 3358:8E25       loc_4C3A5
 3358:8E36       loc_4C3B6
 3358:8E3B       loc_4C3BB
 3358:8E40       loc_4C3C0
 3358:8E45       loc_4C3C5
 3358:8E4D       off_4C3CD
 3358:8E61       sub_4C3E1
 3358:8E7A       loc_4C3FA
 3358:8E87       loc_4C407
 3358:8E98       loc_4C418
 3358:8E9D       loc_4C41D
 3358:8E9F       loc_4C41F
 3358:8EA1       loc_4C421
 3358:8EA3       loc_4C423
 3358:8EA8       loc_4C428
 3358:8EAD       loc_4C42D
 3358:8EB2       loc_4C432
 3358:8EB7       loc_4C437
 3358:8EBC       loc_4C43C
 3358:8EC5       off_4C445
 3358:8EED       sub_4C46D
 3358:8EFE       loc_4C47E
 3358:8F06       loc_4C486
 3358:8F13       loc_4C493
 3358:8F24       loc_4C4A4
 3358:8F29       loc_4C4A9
 3358:8F2B       loc_4C4AB
 3358:8F2D       loc_4C4AD
 3358:8F2F       loc_4C4AF
 3358:8F31       loc_4C4B1
 3358:8F36       loc_4C4B6
 3358:8F3B       loc_4C4BB
 3358:8F40       loc_4C4C0
 3358:8F45       loc_4C4C5
 3358:8F4A       loc_4C4CA
 3358:8F52       off_4C4D2
 3358:8F7A       sub_4C4FA
 3358:8F80       loc_4C500
 3358:8F89       loc_4C509
 3358:8F8D       loc_4C50D
 3358:8F8F       loc_4C50F
 3358:8F91       loc_4C511
 3358:8FAF       loc_4C52F
 3358:8FB5       loc_4C535
 3358:8FBD       loc_4C53D
 3358:8FEB       loc_4C56B
 3358:9004       loc_4C584
 3358:900F       loc_4C58F
 3358:9011       loc_4C591
 3358:902D       loc_4C5AD
 3358:903A       loc_4C5BA
 3358:9056       loc_4C5D6
 3358:9079       loc_4C5F9
 3358:908B       loc_4C60B
 3358:90B6       loc_4C636
 3358:90FA       loc_4C67A
 3358:910C       loc_4C68C
 3358:9154       loc_4C6D4
 3358:9166       loc_4C6E6
 3358:9179       loc_4C6F9
 3358:91A2       loc_4C722
 3358:91AE       loc_4C72E
 3358:91C4       loc_4C744
 3358:91C5       loc_4C745
 3358:91C8       loc_4C748
 3358:91C9       loc_4C749
 3358:91D2       loc_4C752
 3358:91D9       loc_4C759
 3358:91DA       loc_4C75A
 3358:91DC       loc_4C75C
 3358:91DD       locret_4C75D
 3358:91DE       sub_4C75E
 3358:91DF       loc_4C75F
 3358:91E8       loc_4C768
 3358:91FA       loc_4C77A
 3358:9219       loc_4C799
 3358:921C       sub_4C79C
 3358:9222       loc_4C7A2
 3358:922E       loc_4C7AE
 3358:9231       loc_4C7B1
 3358:9236       loc_4C7B6
 3358:9244       loc_4C7C4
 3358:9247       loc_4C7C7
 3358:924A       loc_4C7CA
 3358:9252       loc_4C7D2
 3358:9257       loc_4C7D7
 3358:925A       loc_4C7DA
 3358:925D       loc_4C7DD
 3358:92C0       loc_4C840
 3358:93AC       loc_4C92C
 3358:93B5       loc_4C935
 3358:9444       loc_4C9C4
 3358:9456       loc_4C9D6
 3358:9490       loc_4CA10
 3358:94F4       loc_4CA74
 3358:9508       loc_4CA88
 3358:9514       loc_4CA94
 3358:9515       loc_4CA95
 3358:951D       loc_4CA9D
 3358:9520       loc_4CAA0
 3358:9526       loc_4CAA6
 3358:9529       loc_4CAA9
 3358:952F       sub_4CAAF
 3358:956B       loc_4CAEB
 3358:956D       loc_4CAED
 3358:9571       loc_4CAF1
 3358:9573       sub_4CAF3
 3358:958A       loc_4CB0A
 3358:959C       loc_4CB1C
 3358:95BA       loc_4CB3A
 3358:95D0       loc_4CB50
 3358:95D5       sub_4CB55
 3358:95E6       loc_4CB66
 3358:975F       loc_4CCDF
 3358:97BE       loc_4CD3E
 3358:97C7       loc_4CD47
 3358:97F0       loc_4CD70
 3358:9802       loc_4CD82
 3358:983D       loc_4CDBD
 3358:9877       loc_4CDF7
 3358:98AD       loc_4CE2D
 3358:98B1       loc_4CE31
 3358:98B5       sub_4CE35
 3358:98C2       loc_4CE42
 3358:98C7       loc_4CE47
 3358:98CF       loc_4CE4F
 3358:98DA       loc_4CE5A
 3358:98EC       loc_4CE6C
 3358:9923       loc_4CEA3
 3358:9978       loc_4CEF8
 3358:997B       loc_4CEFB
 3358:9984       loc_4CF04
 3358:9985       loc_4CF05
 3358:998D       loc_4CF0D
 3358:998E       loc_4CF0E
 3358:9996       loc_4CF16
 3358:999C       sub_4CF1C
 3358:99B3       loc_4CF33
 3358:99C8       loc_4CF48
 3358:99CF       loc_4CF4F
 3358:99D1       loc_4CF51
 3358:99D3       loc_4CF53
 3358:99D9       loc_4CF59
 3358:99DB       loc_4CF5B
 3358:99E9       loc_4CF69
 3358:99F7       loc_4CF77
 3358:9A01       loc_4CF81
 3358:9A03       loc_4CF83
 3358:9A08       loc_4CF88
 3358:9A0A       loc_4CF8A
 3358:9A0C       sub_4CF8C
 3358:9A0D       loc_4CF8D
 3358:9A13       loc_4CF93
 3358:9A24       loc_4CFA4
 3358:9A27       loc_4CFA7
 3358:9A29       loc_4CFA9
 3358:9A30       loc_4CFB0
 3358:9A36       loc_4CFB6
 3358:9A3A       loc_4CFBA
 3358:9A3B       loc_4CFBB
 3358:9A3E       loc_4CFBE
 3358:9A5A       loc_4CFDA
 3358:9A5C       loc_4CFDC
 3358:9A5D       loc_4CFDD
 3358:9A66       loc_4CFE6
 3358:9A68       sub_4CFE8
 3358:9A6F       loc_4CFEF
 3358:9A9D       loc_4D01D
 3358:9A9F       loc_4D01F
 3358:9AA0       loc_4D020
 3358:9AA9       loc_4D029
 3358:9AAB       sub_4D02B
 3358:9AEB       loc_4D06B
 3358:9AEE       loc_4D06E
 3358:9AF0       loc_4D070
 3358:9AF4       loc_4D074
 3358:9AF6       sub_4D076
 3358:9B30       loc_4D0B0
 3358:9B33       loc_4D0B3
 3358:9B35       loc_4D0B5
 3358:9B43       loc_4D0C3
 3358:9B51       loc_4D0D1
 3358:9B59       loc_4D0D9
 3358:9B5D       loc_4D0DD
 3358:9B5F       sub_4D0DF
 3358:9B99       loc_4D119
 3358:9B9C       loc_4D11C
 3358:9B9E       loc_4D11E
 3358:9BAC       loc_4D12C
 3358:9BBA       loc_4D13A
 3358:9BBE       loc_4D13E
 3358:9BC0       sub_4D140
 3358:9BF9       loc_4D179
 3358:9BFC       loc_4D17C
 3358:9BFE       loc_4D17E
 3358:9C0C       loc_4D18C
 3358:9C1A       loc_4D19A
 3358:9C28       loc_4D1A8
 3358:9C2C       loc_4D1AC
 3358:9C2E       sub_4D1AE
 3358:9C6E       loc_4D1EE
 3358:9C71       loc_4D1F1
 3358:9C73       loc_4D1F3
 3358:9C77       loc_4D1F7
 3358:9C79       sub_4D1F9
 3358:9CB9       loc_4D239
 3358:9CBC       loc_4D23C
 3358:9CBE       loc_4D23E
 3358:9CC2       loc_4D242
 3358:9CC4       sub_4D244
 3358:9D04       loc_4D284
 3358:9D07       loc_4D287
 3358:9D09       loc_4D289
 3358:9D0D       loc_4D28D
 3358:9D0F       sub_4D28F
 3358:9D61       loc_4D2E1
 3358:9D64       loc_4D2E4
 3358:9D66       loc_4D2E6
 3358:9D6A       loc_4D2EA
 3358:9D6C       sub_4D2EC
 3358:9DB7       loc_4D337
 3358:9DBA       loc_4D33A
 3358:9DBC       loc_4D33C
 3358:9DC0       loc_4D340
 3358:9DC2       sub_4D342
 3358:9DEE       loc_4D36E
 3358:9DF0       loc_4D370
 3358:9DF3       loc_4D373
 3358:9DFE       loc_4D37E
 3358:9E09       loc_4D389
 3358:9E14       loc_4D394
 3358:9E1F       loc_4D39F
 3358:9E2A       loc_4D3AA
 3358:9E35       loc_4D3B5
 3358:9E3F       loc_4D3BF
 3358:9E4A       loc_4D3CA
 3358:9E54       loc_4D3D4
 3358:9E5F       loc_4D3DF
 3358:9E71       loc_4D3F1
 3358:9E76       loc_4D3F6
 3358:9E78       loc_4D3F8
 3358:9E7A       loc_4D3FA
 3358:9E7C       loc_4D3FC
 3358:9E7E       loc_4D3FE
 3358:9E80       loc_4D400
 3358:9E82       loc_4D402
 3358:9E87       loc_4D407
 3358:9E89       loc_4D409
 3358:9E8D       loc_4D40D
 3358:9E92       loc_4D412
 3358:9E97       loc_4D417
 3358:9E9A       off_4D41A
 3358:9EC8       sub_4D448
 3358:9EF2       loc_4D472
 3358:9F15       loc_4D495
 3358:9F29       sub_4D4A9
 3358:9F38       loc_4D4B8
 3358:9F44       word_4D4C4
 3358:9F46       word_4D4C6
 3358:9F50       word_4D4D0
 3358:9F52       word_4D4D2
 3358:9F5C       word_4D4DC
 3358:9F6A       loc_4D4EA
 3358:9F6F       loc_4D4EF
 3358:9F7D       loc_4D4FD
 3358:9F85       loc_4D505
 3358:9FA0       loc_4D520
 3358:9FA6       loc_4D526
 3358:9FB5       filebuf::terminate(void)
 3D54:0000       sub_4D540
 3D54:0001       loc_4D541
 3D54:0003       loc_4D543
 3D54:0006       loc_4D546
 3D54:0009       loc_4D549
 3D54:000C       loc_4D54C
 3D54:000D       loc_4D54D
 3D54:000F       loc_4D54F
 3D54:0011       loc_4D551
 3D54:0013       loc_4D553
 3D54:0015       loc_4D555
 3D54:0017       loc_4D557
 3D54:001C       loc_4D55C
 3D54:0021       loc_4D561
 3D54:0026       loc_4D566
 3D54:002B       loc_4D56B
 3D54:0030       loc_4D570
 3D54:0035       loc_4D575
 3D54:0039       loc_4D579
 3D54:003C       loc_4D57C
 3D54:003D       loc_4D57D
 3D54:0044       loc_4D584
 3D54:0048       loc_4D588
 3D54:004E       loc_4D58E
 3D54:0052       loc_4D592
 3D54:0056       loc_4D596
 3D54:005C       loc_4D59C
 3D54:005D       loc_4D59D
 3D54:0063       loc_4D5A3
 3D54:0065       loc_4D5A5
 3D54:0066       locret_4D5A6
 3D5B:0000       sub_4D5B0
 3D5B:0001       loc_4D5B1
 3D5B:0003       loc_4D5B3
 3D5B:0006       loc_4D5B6
 3D5B:0007       loc_4D5B7
 3D5B:0008       loc_4D5B8
 3D5B:000D       loc_4D5BD
 3D5B:0010       loc_4D5C0
 3D5B:0011       loc_4D5C1
 3D5B:0013       loc_4D5C3
 3D5B:0014       loc_4D5C4
 3D5B:0019       loc_4D5C9
 3D5B:001A       loc_4D5CA
 3D5B:001B       loc_4D5CB
 3D5B:001C       loc_4D5CC
 3D5B:001D       loc_4D5CD
 3D5B:0020       loc_4D5D0
 3D5B:0024       loc_4D5D4
 3D5B:0026       loc_4D5D6
 3D5B:0027       loc_4D5D7
 3D5B:002B       loc_4D5DB
 3D5B:0030       loc_4D5E0
 3D5B:0033       loc_4D5E3
 3D5B:0036       loc_4D5E6
 3D5B:003A       loc_4D5EA
 3D5B:003D       loc_4D5ED
 3D5B:003E       loc_4D5EE
 3D5B:0041       loc_4D5F1
 3D5B:0042       loc_4D5F2
 3D5B:0047       loc_4D5F7
 3D5B:004A       loc_4D5FA
 3D5B:004D       loc_4D5FD
 3D5B:0051       loc_4D601
 3D5B:0055       loc_4D605
 3D5B:0058       loc_4D608
 3D5B:0059       loc_4D609
 3D5B:005E       loc_4D60E
 3D5B:0061       loc_4D611
 3D5B:0064       loc_4D614
 3D5B:0068       loc_4D618
 3D5B:006C       loc_4D61C
 3D5B:0070       loc_4D620
 3D5B:0078       loc_4D628
 3D5B:007B       loc_4D62B
 3D5B:0080       loc_4D630
 3D5B:0089       loc_4D639
 3D5B:008A       loc_4D63A
 3D5B:008E       loc_4D63E
 3D5B:0091       loc_4D641
 3D5B:0092       loc_4D642
 3D5B:0097       loc_4D647
 3D5B:009D       loc_4D64D
 3D5B:00A0       loc_4D650
 3D5B:00AA       loc_4D65A
 3D5B:00AC       loc_4D65C
 3D5B:00B2       loc_4D662
 3D5B:00B5       loc_4D665
 3D5B:00B8       loc_4D668
 3D5B:00BB       loc_4D66B
 3D5B:00BE       loc_4D66E
 3D5B:00C6       loc_4D676
 3D5B:00CD       loc_4D67D
 3D5B:00D6       loc_4D686
 3D5B:00DE       loc_4D68E
 3D5B:00E2       loc_4D692
 3D5B:00E5       loc_4D695
 3D5B:00E7       loc_4D697
 3D5B:00EB       loc_4D69B
 3D5B:00EE       loc_4D69E
 3D5B:00F1       loc_4D6A1
 3D5B:00F2       loc_4D6A2
 3D5B:00F7       loc_4D6A7
 3D5B:00FA       loc_4D6AA
 3D5B:00FD       loc_4D6AD
 3D5B:0100       loc_4D6B0
 3D5B:0110       loc_4D6C0
 3D5B:0116       loc_4D6C6
 3D5B:0125       loc_4D6D5
 3D5B:0128       loc_4D6D8
 3D5B:013E       loc_4D6EE
 3D5B:015C       loc_4D70C
 3D5B:015D       loc_4D70D
 3D5B:0161       loc_4D711
 3D5B:0164       loc_4D714
 3D5B:0166       loc_4D716
 3D5B:0175       loc_4D725
 3D5B:017E       loc_4D72E
 3D5B:0186       loc_4D736
 3D5B:018A       loc_4D73A
 3D5B:0190       loc_4D740
 3D5B:019F       loc_4D74F
 3D5B:01A7       loc_4D757
 3D5B:01AF       loc_4D75F
 3D5B:01BF       loc_4D76F
 3D5B:01C9       loc_4D779
 3D5B:01D2       loc_4D782
 3D5B:01D7       loc_4D787
 3D5B:01E3       loc_4D793
 3D5B:01F1       sub_4D7A1
 3D5B:0200       loc_4D7B0
 3D5B:020D       loc_4D7BD
 3D5B:021F       loc_4D7CF
 3D5B:022F       loc_4D7DF
 3D5B:0246       loc_4D7F6
 3D5B:024E       loc_4D7FE
 3D5B:027E       loc_4D82E
 3D5B:028F       loc_4D83F
 3D5B:0292       loc_4D842
 3D5B:029A       loc_4D84A
 3D5B:02BE       loc_4D86E
 3D5B:0300       loc_4D8B0
 3D5B:0301       loc_4D8B1
 3D5B:0309       loc_4D8B9
 3D5B:0317       loc_4D8C7
 3D5B:0322       sub_4D8D2
 3D5B:032B       loc_4D8DB
 3D5B:0336       sub_4D8E6
 3D5B:034A       sub_4D8FA
 3D5B:0354       loc_4D904
 3D5B:0355       loc_4D905
 3D5B:035D       loc_4D90D
 3D5B:036A       loc_4D91A
 3D5B:0378       loc_4D928
 3D5B:0381       loc_4D931
 3D5B:03C3       loc_4D973
 3D5B:03C5       loc_4D975
 3D5B:03CD       loc_4D97D
 3D5B:03DA       loc_4D98A
 3D5B:03E7       loc_4D997
 3D5B:03EF       loc_4D99F
 3D5B:03F4       loc_4D9A4
 3D5B:03FC       loc_4D9AC
 3D5B:0408       loc_4D9B8
 3D5B:041A       loc_4D9CA
 3D5B:043E       loc_4D9EE
 3D5B:044E       loc_4D9FE
 3D5B:0452       sub_4DA02
 3D5B:0456       loc_4DA06
 3D5B:0462       loc_4DA12
 3D5B:0467       loc_4DA17
 3D5B:046A       loc_4DA1A
 3D5B:046E       loc_4DA1E
 3D5B:0472       loc_4DA22
 3D5B:0479       loc_4DA29
 3D5B:047B       loc_4DA2B
 3D5B:04A8       loc_4DA58
 3D5B:04AC       loc_4DA5C
 3D5B:04C8       loc_4DA78
 3D5B:04CD       loc_4DA7D
 3D5B:04D0       loc_4DA80
 3D5B:056C       loc_4DB1C
 3D5B:0581       loc_4DB31
 3D5B:0585       loc_4DB35
 3D5B:059C       locret_4DB4C
 3D5B:059D       sub_4DB4D
 3D5B:05C1       loc_4DB71
 3D5B:05CA       loc_4DB7A
 3D5B:05D7       loc_4DB87
 3D5B:05D8       loc_4DB88
 3D5B:05DC       loc_4DB8C
 3D5B:0688       loc_4DC38
 3D5B:06E8       loc_4DC98
 3D5B:0723       loc_4DCD3
 3D5B:072D       loc_4DCDD
 3D5B:074E       loc_4DCFE
 3D5B:075F       loc_4DD0F
 3D5B:077A       loc_4DD2A
 3D5B:0790       loc_4DD40
 3D5B:07B0       loc_4DD60
 3D5B:07BB       loc_4DD6B
 3D5B:07C8       loc_4DD78
 3D5B:07CF       loc_4DD7F
 3D5B:07DE       loc_4DD8E
 3D5B:07E2       loc_4DD92
 3D5B:07EC       loc_4DD9C
 3D5B:07FA       loc_4DDAA
 3D5B:07FB       loc_4DDAB
 3D5B:07FF       loc_4DDAF
 3D5B:0801       loc_4DDB1
 3D5B:0807       loc_4DDB7
 3D5B:080A       loc_4DDBA
 3D5B:0810       loc_4DDC0
 3D5B:0819       loc_4DDC9
 3D5B:0823       loc_4DDD3
 3D5B:0836       loc_4DDE6
 3D5B:083A       loc_4DDEA
 3D5B:0840       loc_4DDF0
 3D5B:0841       loc_4DDF1
 3D5B:084B       loc_4DDFB
 3D5B:0855       loc_4DE05
 3D5B:0892       loc_4DE42
 3D5B:0897       loc_4DE47
 3D5B:08CE       loc_4DE7E
 3D5B:08D4       loc_4DE84
 3D5B:08E0       loc_4DE90
 3D5B:08F0       loc_4DEA0
 3D5B:0901       loc_4DEB1
 3D5B:0943       loc_4DEF3
 3D5B:0955       loc_4DF05
 3D5B:095F       loc_4DF0F
 3D5B:0964       loc_4DF14
 3D5B:096E       loc_4DF1E
 3D5B:0973       loc_4DF23
 3D5B:097D       loc_4DF2D
 3D5B:099D       loc_4DF4D
 3D5B:09B8       loc_4DF68
 3D5B:09BE       loc_4DF6E
 3D5B:0A0F       loc_4DFBF
 3D5B:0A15       loc_4DFC5
 3D5B:0A19       loc_4DFC9
 3D5B:0A1C       loc_4DFCC
 3D5B:0A5E       loc_4E00E
 3D5B:0A67       loc_4E017
 3D5B:0A81       sub_4E031
 3D5B:0A8B       loc_4E03B
 3D5B:0A99       loc_4E049
 3D5B:0A9B       loc_4E04B
 3D5B:0AA5       loc_4E055
 3D5B:0B1C       loc_4E0CC
 3D5B:0B21       loc_4E0D1
 3D5B:0B3F       loc_4E0EF
 3D5B:0B53       loc_4E103
 3D5B:0BC2       loc_4E172
 3D5B:0BE9       loc_4E199
 3D5B:0BF4       loc_4E1A4
 3D5B:0C12       loc_4E1C2
 3D5B:0C22       loc_4E1D2
 3D5B:0C32       loc_4E1E2
 3D5B:0CAF       loc_4E25F
 3D5B:0CB4       loc_4E264
 3D5B:0CD2       loc_4E282
 3D5B:0CE6       loc_4E296
 3D5B:0CEB       loc_4E29B
 3D5B:0D5C       loc_4E30C
 3D5B:0D8A       loc_4E33A
 3D5B:0D95       loc_4E345
 3D5B:0D98       loc_4E348
 3D5B:0DB3       loc_4E363
 3D5B:0DC3       loc_4E373
 3D5B:0E07       loc_4E3B7
 3D5B:0E98       loc_4E448
 3D5B:0F08       loc_4E4B8
 3D5B:0F69       loc_4E519
 3D5B:0F8E       loc_4E53E
 3D5B:0FBD       loc_4E56D
 3D5B:0FFD       loc_4E5AD
 3D5B:1030       loc_4E5E0
 3D5B:107A       loc_4E62A
 3D5B:10B9       loc_4E669
 3D5B:10CE       loc_4E67E
 3D5B:10DB       loc_4E68B
 3D5B:10EB       loc_4E69B
 3D5B:113D       loc_4E6ED
 3D5B:1181       loc_4E731
 3D5B:118E       loc_4E73E
 3D5B:119D       loc_4E74D
 3D5B:11A1       sub_4E751
 3D5B:11B1       loc_4E761
 3D5B:11B5       loc_4E765
 3D5B:11DA       loc_4E78A
 3D5B:1202       loc_4E7B2
 3D5B:1203       loc_4E7B3
 3D5B:121C       loc_4E7CC
 3D5B:1230       loc_4E7E0
 3D5B:124F       loc_4E7FF
 3D5B:1289       loc_4E839
 3D5B:12B4       idk_ResourceLbx
 3D5B:12CD       loc_4E87D
 3D5B:12D0       loc_4E880
 3D5B:12EC       loc_4E89C
 3D5B:12F3       loc_4E8A3
 3D5B:12FA       loc_4E8AA
 3D5B:133B       loc_4E8EB
 3D5B:1383       loc_4E933
 3D5B:13CA       loc_4E97A
 3D5B:1411       loc_4E9C1
 3D5B:1415       loc_4E9C5
 3D5B:1434       loc_4E9E4
 3D5B:143C       off_4E9EC
 3D5B:1444       sub_4E9F4
 3D5B:1476       loc_4EA26
 3D5B:148C       loc_4EA3C
 3D5B:14A2       loc_4EA52
 3D5B:14B8       loc_4EA68
 3D5B:14C8       loc_4EA78
 3D5B:14D0       loc_4EA80
 3D5B:14D8       loc_4EA88
 3D5B:14E0       loc_4EA90
 3D5B:14E8       loc_4EA98
 3D5B:14F0       loc_4EAA0
 3D5B:150D       loc_4EABD
 3D5B:1532       loc_4EAE2
 3D5B:15DB       loc_4EB8B
 3D5B:161B       loc_4EBCB
 3D5B:1620       loc_4EBD0
 3D5B:165D       off_4EC0D
 3D5B:1667       sub_4EC17
 3D5B:1678       loc_4EC28
 3D5B:167A       loc_4EC2A
 3D5B:16A3       loc_4EC53
 3D5B:16CC       loc_4EC7C
 3D5B:1758       loc_4ED08
 3D5B:1763       loc_4ED13
 3D5B:179C       loc_4ED4C
 3D5B:17A6       loc_4ED56
 3D5B:17CC       loc_4ED7C
 3D5B:17D3       loc_4ED83
 3D5B:17F6       loc_4EDA6
 3D5B:182F       loc_4EDDF
 3D5B:1839       loc_4EDE9
 3D5B:18C3       loc_4EE73
 3D5B:18CF       loc_4EE7F
 3D5B:194B       loc_4EEFB
 3D5B:1997       loc_4EF47
 3D5B:19C0       loc_4EF70
 3D5B:19C4       sub_4EF74
 3D5B:19FB       loc_4EFAB
 3D5B:1A11       loc_4EFC1
 3D5B:1A27       loc_4EFD7
 3D5B:1A3D       loc_4EFED
 3D5B:1A4D       loc_4EFFD
 3D5B:1A55       loc_4F005
 3D5B:1A5D       loc_4F00D
 3D5B:1A65       loc_4F015
 3D5B:1A6D       loc_4F01D
 3D5B:1A75       loc_4F025
 3D5B:1A92       loc_4F042
 3D5B:1AB7       loc_4F067
 3D5B:1B36       loc_4F0E6
 3D5B:1B3C       loc_4F0EC
 3D5B:1B71       loc_4F121
 3D5B:1B9D       loc_4F14D
 3D5B:1BAF       loc_4F15F
 3D5B:1BB4       loc_4F164
 3D5B:1BF1       off_4F1A1
 3D5B:1BFB       sub_4F1AB
 3D5B:1C0B       loc_4F1BB
 3D5B:1C29       loc_4F1D9
 3D5B:1CFE       loc_4F2AE
 3D5B:1D08       loc_4F2B8
 3D5B:1D4C       loc_4F2FC
 3D5B:1D7F       loc_4F32F
 3D5B:1E63       loc_4F413
 3D5B:1E67       sub_4F417
 3D5B:1E9D       sub_4F44D
 3D5B:1EEC       yesEqual
 3D5B:1F08       loc_4F4B8
 3D5B:1F1F       loc_4F4CF
 3D5B:1F36       loc_4F4E6
 3D5B:1F4D       loc_4F4FD
 3D5B:200D       loc_4F5BD
 3D5B:207E       loc_4F62E
 3D5B:2095       loc_4F645
 3D5B:2144       loc_4F6F4
 3D5B:215B       loc_4F70B
 3D5B:21B2       loc_4F762
 3D5B:21E0       loc_4F790
 3D5B:21EB       loc_4F79B
 3D5B:21F3       loc_4F7A3
 3D5B:21FD       loc_4F7AD
 3D5B:2203       sub_4F7B3
 3D5B:2211       loc_4F7C1
 3D5B:2256       loc_4F806
 3D5B:2258       sub_4F808
 3D5B:228B       loc_4F83B
 3D5B:2293       loc_4F843
 3D5B:22CF       loc_4F87F
 3D5B:22F4       loc_4F8A4
 3D5B:2308       loc_4F8B8
 3D5B:2330       loc_4F8E0
 3D5B:2343       loc_4F8F3
 3D5B:236B       loc_4F91B
 3D5B:237E       loc_4F92E
 3D5B:2385       loc_4F935
 3D5B:238E       loc_4F93E
 3D5B:2391       loc_4F941
 3D5B:239A       loc_4F94A
 3D5B:23A5       loc_4F955
 3D5B:23AD       loc_4F95D
 3D5B:23B2       loc_4F962
 3D5B:24BD       loc_4FA6D
 3D5B:24C5       loc_4FA75
 3D5B:24C8       loc_4FA78
 3D5B:24D3       loc_4FA83
 3D5B:24DE       loc_4FA8E
 3D5B:25EF       loc_4FB9F
 3D5B:25F7       loc_4FBA7
 3D5B:25FA       loc_4FBAA
 3D5B:2603       loc_4FBB3
 3D5B:26ED       loc_4FC9D
 3D5B:26F8       loc_4FCA8
 3D5B:26FB       loc_4FCAB
 3D5B:2706       loc_4FCB6
 3D5B:270E       loc_4FCBE
 3D5B:2713       loc_4FCC3
 3D5B:278E       loc_4FD3E
 3D5B:2798       loc_4FD48
 3D5B:27C6       loc_4FD76
 3D5B:27C9       loc_4FD79
 3D5B:27F3       loc_4FDA3
 3D5B:27FD       loc_4FDAD
 3D5B:2800       loc_4FDB0
 3D5B:2809       loc_4FDB9
 3D5B:281E       loc_4FDCE
 3D5B:2826       loc_4FDD6
 3D5B:2829       loc_4FDD9
 3D5B:2834       loc_4FDE4
 3D5B:2837       loc_4FDE7
 3D5B:283F       loc_4FDEF
 3D5B:284E       loc_4FDFE
 3D5B:2860       loc_4FE10
 3D5B:2863       loc_4FE13
 3D5B:2870       loc_4FE20
 3D5B:2873       loc_4FE23
 3D5B:2878       loc_4FE28
 3D5B:287A       loc_4FE2A
 3D5B:287D       loc_4FE2D
 3D5B:287F       loc_4FE2F
 3D5B:28BF       loc_4FE6F
 3D5B:28C0       loc_4FE70
 3D5B:28C3       loc_4FE73
 3D5B:28D1       loc_4FE81
 3D5B:28E3       loc_4FE93
 3D5B:28E8       loc_4FE98
 3D5B:28EE       loc_4FE9E
 3D5B:28F1       loc_4FEA1
 3D5B:2932       loc_4FEE2
 3D5B:2948       loc_4FEF8
 3D5B:2950       loc_4FF00
 3D5B:2953       loc_4FF03
 3D5B:295F       loc_4FF0F
 3D5B:2A49       loc_4FFF9
 3D5B:2A4C       loc_4FFFC
 3D5B:2A54       loc_50004
 3D5B:2A57       loc_50007
 3D5B:2A5F       loc_5000F
 3D5B:2A64       loc_50014
 3D5B:2ABC       loc_5006C
 3D5B:2B3E       loc_500EE
 3D5B:2B46       loc_500F6
 3D5B:2B49       loc_500F9
 3D5B:2B54       loc_50104
 3D5B:2C38       loc_501E8
 3D5B:2C40       loc_501F0
 3D5B:2C53       sub_50203
 3D5B:2CC0       loc_50270
 3D5B:2CD9       loc_50289
 3D5B:2CEE       loc_5029E
 3D5B:2D04       loc_502B4
 3D5B:2D0E       loc_502BE
 3D5B:2D23       loc_502D3
 3D5B:2D91       loc_50341
 3D5B:2D9B       sub_5034B
 3D5B:2DA6       sub_50356
 3D5B:2DF0       sub_503A0
 403F:0000       sub_503F0
 403F:0001       loc_503F1
 403F:0003       loc_503F3
 403F:0007       loc_503F7
 403F:0008       loc_503F8
 403F:0009       loc_503F9
 403F:000C       loc_503FC
 403F:000E       loc_503FE
 403F:0010       loc_50400
 403F:0011       loc_50401
 403F:0014       loc_50404
 403F:0016       loc_50406
 403F:0018       loc_50408
 403F:001B       loc_5040B
 403F:001D       loc_5040D
 403F:001F       loc_5040F
 403F:0020       loc_50410
 403F:0023       loc_50413
 403F:0028       loc_50418
 403F:002D       loc_5041D
 403F:002F       loc_5041F
 403F:0030       loc_50420
 403F:0033       loc_50423
 403F:0036       loc_50426
 403F:0039       loc_50429
 403F:003C       loc_5042C
 403F:003E       loc_5042E
 403F:0040       loc_50430
 403F:0043       loc_50433
 403F:0045       loc_50435
 403F:0048       loc_50438
 403F:004B       loc_5043B
 403F:0050       loc_50440
 403F:0056       loc_50446
 403F:005B       loc_5044B
 403F:005E       loc_5044E
 403F:0061       loc_50451
 403F:0063       loc_50453
 403F:0065       loc_50455
 403F:0068       loc_50458
 403F:0070       loc_50460
 403F:0072       loc_50462
 403F:0073       loc_50463
 403F:0076       loc_50466
 403F:007E       loc_5046E
 403F:0080       loc_50470
 403F:0089       loc_50479
 403F:008C       loc_5047C
 403F:008F       loc_5047F
 403F:0092       loc_50482
 403F:0099       loc_50489
 403F:009E       loc_5048E
 403F:00A0       loc_50490
 403F:00A6       loc_50496
 403F:00AE       loc_5049E
 403F:00B4       loc_504A4
 403F:00B9       loc_504A9
 403F:00BD       loc_504AD
 403F:00C3       loc_504B3
 403F:00CD       loc_504BD
 403F:00D7       loc_504C7
 403F:00DB       loc_504CB
 403F:00E1       loc_504D1
 403F:00E7       loc_504D7
 403F:00EB       loc_504DB
 403F:00EF       loc_504DF
 403F:00F1       loc_504E1
 403F:00F4       loc_504E4
 403F:00F8       loc_504E8
 403F:00FA       loc_504EA
 403F:00FD       loc_504ED
 403F:0118       loc_50508
 403F:011A       loc_5050A
 403F:011D       loc_5050D
 403F:0125       loc_50515
 403F:0128       loc_50518
 403F:0131       loc_50521
 403F:013E       loc_5052E
 403F:0140       loc_50530
 403F:014F       loc_5053F
 403F:015C       loc_5054C
 403F:015E       loc_5054E
 403F:0161       loc_50551
 403F:0166       loc_50556
 403F:0169       loc_50559
 403F:0180       loc_50570
 403F:0185       loc_50575
 403F:0188       loc_50578
 403F:0198       loc_50588
 403F:01A9       loc_50599
 403F:01AC       loc_5059C
 403F:01B1       loc_505A1
 403F:01C2       loc_505B2
 403F:01D2       loc_505C2
 403F:01E5       loc_505D5
 403F:01FE       loc_505EE
 403F:0209       loc_505F9
 403F:020D       loc_505FD
 403F:0216       loc_50606
 403F:021B       loc_5060B
 403F:021C       loc_5060C
 403F:021F       loc_5060F
 403F:0221       loc_50611
 403F:0222       loc_50612
 403F:022A       loc_5061A
 403F:0245       loc_50635
 403F:024C       loc_5063C
 403F:027D       loc_5066D
 403F:02A6       loc_50696
 403F:02A7       loc_50697
 403F:02AC       loc_5069C
 403F:02B0       loc_506A0
 403F:02BB       loc_506AB
 403F:02BE       loc_506AE
 403F:02D9       loc_506C9
 403F:02DD       loc_506CD
 403F:0300       loc_506F0
 403F:0309       loc_506F9
 403F:0316       loc_50706
 403F:0320       loc_50710
 403F:0324       loc_50714
 403F:0336       loc_50726
 403F:0337       loc_50727
 403F:033C       loc_5072C
 403F:0345       loc_50735
 403F:0348       loc_50738
 403F:0367       loc_50757
 403F:0370       loc_50760
 403F:0390       loc_50780
 403F:0393       loc_50783
 403F:03C0       loc_507B0
 403F:03C1       loc_507B1
 403F:03C4       loc_507B4
 403F:03C6       loc_507B6
 403F:03CC       loc_507BC
 403F:03CF       loc_507BF
 403F:03D8       loc_507C8
 403F:03E6       loc_507D6
 403F:03F1       loc_507E1
 403F:044A       loc_5083A
 403F:044B       loc_5083B
 403F:0450       loc_50840
 403F:0454       loc_50844
 403F:045F       loc_5084F
 403F:046B       loc_5085B
 403F:0481       loc_50871
 403F:04C8       loc_508B8
 403F:04DA       loc_508CA
 403F:04DB       loc_508CB
 403F:04E0       loc_508D0
 403F:04E4       loc_508D4
 403F:04EF       loc_508DF
 403F:0511       loc_50901
 403F:056A       loc_5095A
 403F:056B       loc_5095B
 403F:0570       loc_50960
 403F:0579       loc_50969
 403F:059B       loc_5098B
 403F:05DC       loc_509CC
 403F:05F5       loc_509E5
 403F:05F6       loc_509E6
 403F:05FB       loc_509EB
 403F:05FF       loc_509EF
 403F:060A       loc_509FA
 403F:062C       loc_50A1C
 403F:067F       loc_50A6F
 403F:0686       loc_50A76
 403F:0687       loc_50A77
 403F:068C       loc_50A7C
 403F:068D       loc_50A7D
 403F:0696       loc_50A86
 403F:06A9       loc_50A99
 403F:06BD       loc_50AAD
 403F:06D8       loc_50AC8
 403F:06DF       loc_50ACF
 403F:06EF       loc_50ADF
 403F:0712       loc_50B02
 403F:0720       loc_50B10
 403F:0726       sub_50B16
 403F:0748       loc_50B38
 403F:074A       loc_50B3A
 403F:074D       loc_50B3D
 403F:07BA       loc_50BAA
 403F:07CF       loc_50BBF
 403F:07EC       loc_50BDC
 403F:07F7       loc_50BE7
 403F:0800       loc_50BF0
 403F:081F       loc_50C0F
 403F:0841       loc_50C31
 403F:084D       loc_50C3D
 403F:0866       loc_50C56
 403F:0884       loc_50C74
 403F:08D1       loc_50CC1
 403F:08DA       loc_50CCA
 403F:08E3       loc_50CD3
 403F:0902       loc_50CF2
 403F:091F       loc_50D0F
 403F:092A       loc_50D1A
 403F:0933       loc_50D23
 403F:0937       loc_50D27
 403F:095F       loc_50D4F
 403F:0975       loc_50D65
 403F:098E       loc_50D7E
 403F:09A5       loc_50D95
 403F:09AD       loc_50D9D
 403F:09CC       loc_50DBC
 403F:09CF       loc_50DBF
 403F:09D2       loc_50DC2
 403F:09E8       loc_50DD8
 403F:0A00       loc_50DF0
 403F:0A0E       loc_50DFE
 403F:0A15       loc_50E05
 403F:0A23       loc_50E13
 403F:0A26       loc_50E16
 403F:0A2C       loc_50E1C
 403F:0A2F       loc_50E1F
 403F:0A3F       loc_50E2F
 403F:0A42       loc_50E32
 403F:0A4A       loc_50E3A
 403F:0A50       loc_50E40
 403F:0A56       sub_50E46
 403F:0A8C       loc_50E7C
 403F:0A9E       loc_50E8E
 403F:0AC5       loc_50EB5
 403F:0AD7       loc_50EC7
 403F:0AE9       loc_50ED9
 403F:0AFB       loc_50EEB
 403F:0B04       loc_50EF4
 403F:0B08       loc_50EF8
 403F:0B35       loc_50F25
 403F:0B3B       loc_50F2B
 403F:0B4A       loc_50F3A
 403F:0B4E       loc_50F3E
 403F:0B79       loc_50F69
 403F:0B7F       loc_50F6F
 403F:0B84       loc_50F74
 403F:0B8E       loc_50F7E
 403F:0B92       loc_50F82
 403F:0BBC       loc_50FAC
 403F:0BC2       loc_50FB2
 403F:0BC7       loc_50FB7
 403F:0BD1       loc_50FC1
 403F:0BD5       loc_50FC5
 403F:0BEA       loc_50FDA
 403F:0BF0       loc_50FE0
 403F:0BF5       loc_50FE5
 403F:0BFF       loc_50FEF
 403F:0C03       loc_50FF3
 403F:0C17       loc_51007
 403F:0C1D       loc_5100D
 403F:0C22       loc_51012
 403F:0C33       loc_51023
 403F:0C4E       loc_5103E
 403F:0C51       loc_51041
 403F:0C81       loc_51071
 403F:0C9E       loc_5108E
 403F:0CBF       loc_510AF
 403F:0CCE       loc_510BE
 403F:0CEB       loc_510DB
 403F:0CEE       loc_510DE
 403F:0CF9       loc_510E9
 403F:0D04       sub_510F4
 403F:0D3A       loc_5112A
 403F:0D3F       loc_5112F
 403F:0D42       loc_51132
 403F:0D49       loc_51139
 403F:0D4E       loc_5113E
 403F:0D56       loc_51146
 403F:0D5C       loc_5114C
 403F:0D63       loc_51153
 403F:0D6C       loc_5115C
 403F:0DA9       loc_51199
 403F:0DBE       loc_511AE
 403F:0DD4       loc_511C4
 403F:0DE4       loc_511D4
 403F:0DF4       loc_511E4
 403F:0E04       loc_511F4
 403F:0E07       loc_511F7
 403F:0E10       loc_51200
 403F:0E18       loc_51208
 403F:0E1D       loc_5120D
 403F:0E31       loc_51221
 403F:0E4D       loc_5123D
 403F:0E50       loc_51240
 403F:0E52       loc_51242
 403F:0E5E       loc_5124E
 403F:0E73       loc_51263
 403F:0E75       loc_51265
 403F:0E82       loc_51272
 403F:0E87       loc_51277
 403F:0E8C       loc_5127C
 403F:0E91       loc_51281
 403F:0EBC       loc_512AC
 403F:0EBE       loc_512AE
 403F:0EC1       loc_512B1
 403F:0ECA       loc_512BA
 403F:0ECE       loc_512BE
 403F:0EDA       loc_512CA
 403F:0EE3       loc_512D3
 403F:0EE6       loc_512D6
 403F:0EF1       loc_512E1
 403F:0F08       loc_512F8
 403F:0F28       loc_51318
 403F:0F3A       loc_5132A
 403F:0F62       loc_51352
 403F:0F74       loc_51364
 403F:0F7D       loc_5136D
 403F:0F99       loc_51389
 403F:0FBC       loc_513AC
 403F:0FD8       loc_513C8
 403F:0FFF       loc_513EF
 403F:1026       loc_51416
 403F:102B       loc_5141B
 403F:102D       loc_5141D
 403F:1030       loc_51420
 403F:1054       loc_51444
 403F:1072       loc_51462
 403F:109B       loc_5148B
 403F:10A7       loc_51497
 403F:10BE       loc_514AE
 403F:10C2       loc_514B2
 403F:10C5       loc_514B5
 403F:10CD       loc_514BD
 403F:10E3       loc_514D3
 403F:10EE       loc_514DE
 403F:10FA       loc_514EA
 403F:1118       loc_51508
 403F:1128       loc_51518
 403F:114F       loc_5153F
 403F:115F       loc_5154F
 403F:116C       loc_5155C
 403F:1176       loc_51566
 403F:1186       loc_51576
 403F:11AB       loc_5159B
 403F:11BD       loc_515AD
 403F:11C2       loc_515B2
 403F:11D9       loc_515C9
 403F:11EB       loc_515DB
 403F:11F4       loc_515E4
 403F:1210       loc_51600
 403F:1214       loc_51604
 403F:121C       loc_5160C
 403F:121F       loc_5160F
 403F:1228       loc_51618
 403F:122B       loc_5161B
 403F:122E       loc_5161E
 403F:1231       loc_51621
 403F:1236       loc_51626
 403F:124A       loc_5163A
 403F:1253       loc_51643
 403F:125C       loc_5164C
 403F:1264       loc_51654
 403F:1278       loc_51668
 403F:127B       loc_5166B
 403F:129A       loc_5168A
 403F:129F       loc_5168F
 403F:12A6       loc_51696
 403F:12AF       loc_5169F
 403F:12BF       loc_516AF
 403F:12C2       loc_516B2
 403F:12C5       loc_516B5
 403F:12CA       loc_516BA
 403F:12D2       loc_516C2
 403F:12D9       loc_516C9
 403F:12E7       loc_516D7
 403F:12EC       loc_516DC
 403F:12ED       loc_516DD
 403F:12F8       loc_516E8
 403F:130A       loc_516FA
 403F:1315       loc_51705
 403F:1318       loc_51708
 403F:131C       loc_5170C
 403F:1337       loc_51727
 403F:133A       loc_5172A
 403F:1342       loc_51732
 403F:1349       loc_51739
 403F:134F       sub_5173F
 403F:135A       loc_5174A
 403F:137A       loc_5176A
 403F:138C       loc_5177C
 403F:138E       loc_5177E
 403F:1390       loc_51780
 403F:1392       loc_51782
 403F:1396       loc_51786
 403F:13D5       loc_517C5
 403F:13D6       loc_517C6
 403F:13DD       loc_517CD
 403F:13E1       loc_517D1
 403F:1400       loc_517F0
 403F:1404       loc_517F4
 403F:1428       loc_51818
 403F:1429       loc_51819
 403F:142E       loc_5181E
 403F:1431       loc_51821
 403F:143D       loc_5182D
 403F:1488       loc_51878
 403F:1489       loc_51879
 403F:1490       loc_51880
 403F:1494       loc_51884
 403F:149F       loc_5188F
 403F:14A5       loc_51895
 403F:14AC       loc_5189C
 403F:14AE       loc_5189E
 403F:14B6       loc_518A6
 403F:14D6       loc_518C6
 403F:14D9       loc_518C9
 403F:14DA       loc_518CA
 403F:14DF       loc_518CF
 418E:0000       sub_518E0
 418E:0001       loc_518E1
 418E:0003       loc_518E3
 418E:0007       loc_518E7
 418E:0008       loc_518E8
 418E:0009       loc_518E9
 418E:000B       loc_518EB
 418E:0010       loc_518F0
 418E:0013       loc_518F3
 418E:0018       loc_518F8
 418E:001D       loc_518FD
 418E:0020       loc_51900
 418E:0024       loc_51904
 418E:0028       loc_51908
 418E:002A       loc_5190A
 418E:002D       loc_5190D
 418E:002F       loc_5190F
 418E:0032       loc_51912
 418E:0034       loc_51914
 418E:0037       loc_51917
 418E:0039       loc_51919
 418E:003C       loc_5191C
 418E:0040       loc_51920
 418E:0044       loc_51924
 418E:0045       loc_51925
 418E:0048       loc_51928
 418E:004A       loc_5192A
 418E:004D       loc_5192D
 418E:004F       loc_5192F
 418E:0052       loc_51932
 418E:0056       loc_51936
 418E:0058       loc_51938
 418E:005B       loc_5193B
 418E:005E       loc_5193E
 418E:0060       loc_51940
 418E:0063       loc_51943
 418E:0065       loc_51945
 418E:0068       loc_51948
 418E:006F       loc_5194F
 418E:0072       loc_51952
 418E:0074       loc_51954
 418E:0077       loc_51957
 418E:007A       loc_5195A
 418E:007E       loc_5195E
 418E:0080       loc_51960
 418E:0082       loc_51962
 418E:0087       loc_51967
 418E:008A       loc_5196A
 418E:008C       loc_5196C
 418E:008F       loc_5196F
 418E:0095       loc_51975
 418E:0098       loc_51978
 418E:009D       loc_5197D
 418E:00A0       loc_51980
 418E:00AA       loc_5198A
 418E:00AE       loc_5198E
 418E:00B4       loc_51994
 418E:00B9       loc_51999
 418E:00BC       loc_5199C
 418E:00C0       loc_519A0
 418E:00C5       loc_519A5
 418E:00C8       loc_519A8
 418E:00CD       loc_519AD
 418E:00CF       loc_519AF
 418E:00D7       loc_519B7
 418E:00D9       loc_519B9
 418E:00DE       loc_519BE
 418E:00E1       loc_519C1
 418E:00E4       loc_519C4
 418E:00E7       loc_519C7
 418E:00EA       loc_519CA
 418E:00ED       loc_519CD
 418E:00EF       loc_519CF
 418E:00F5       loc_519D5
 418E:00F7       loc_519D7
 418E:00FA       loc_519DA
 418E:00FC       loc_519DC
 418E:00FF       loc_519DF
 418E:0126       loc_51A06
 418E:0128       loc_51A08
 418E:013F       loc_51A1F
 418E:0147       loc_51A27
 418E:0155       loc_51A35
 418E:015A       loc_51A3A
 418E:015F       loc_51A3F
 418E:0161       loc_51A41
 418E:0165       loc_51A45
 418E:017E       loc_51A5E
 418E:0186       loc_51A66
 418E:0193       loc_51A73
 418E:019B       loc_51A7B
 418E:01AB       loc_51A8B
 418E:01B0       loc_51A90
 418E:01B5       loc_51A95
 418E:01BC       loc_51A9C
 418E:01C3       loc_51AA3
 418E:01D0       loc_51AB0
 418E:01E5       loc_51AC5
 418E:01F3       loc_51AD3
 418E:01FF       loc_51ADF
 418E:0202       loc_51AE2
 418E:020E       loc_51AEE
 418E:021C       loc_51AFC
 418E:0220       loc_51B00
 418E:0225       loc_51B05
 418E:0247       loc_51B27
 418E:026E       loc_51B4E
 418E:0276       loc_51B56
 418E:027D       loc_51B5D
 418E:027F       loc_51B5F
 418E:02BD       loc_51B9D
 418E:02E1       loc_51BC1
 418E:02E4       loc_51BC4
 418E:02E9       loc_51BC9
 418E:02EC       loc_51BCC
 418E:02FD       loc_51BDD
 418E:02FF       loc_51BDF
 418E:0302       loc_51BE2
 418E:030A       loc_51BEA
 418E:034E       loc_51C2E
 418E:0356       loc_51C36
 418E:0364       loc_51C44
 418E:0370       loc_51C50
 418E:0374       loc_51C54
 418E:03A2       loc_51C82
 418E:03AA       loc_51C8A
 418E:03BA       loc_51C9A
 418E:03BF       loc_51C9F
 418E:03C4       loc_51CA4
 418E:03CB       loc_51CAB
 418E:03D2       loc_51CB2
 418E:03DA       loc_51CBA
 418E:03E7       loc_51CC7
 418E:03F1       loc_51CD1
 418E:0403       loc_51CE3
 418E:040F       loc_51CEF
 418E:0412       loc_51CF2
 418E:041E       loc_51CFE
 418E:042C       loc_51D0C
 418E:043D       loc_51D1D
 418E:043F       loc_51D1F
 418E:046A       loc_51D4A
 418E:046D       loc_51D4D
 418E:047D       loc_51D5D
 418E:0485       loc_51D65
 418E:048D       loc_51D6D
 418E:04AF       loc_51D8F
 418E:04C7       loc_51DA7
 418E:04E7       loc_51DC7
 418E:04EF       loc_51DCF
 418E:04F2       loc_51DD2
 418E:0502       loc_51DE2
 418E:0540       loc_51E20
 418E:0550       loc_51E30
 418E:0558       loc_51E38
 418E:0566       loc_51E46
 418E:0572       loc_51E52
 418E:0576       loc_51E56
 418E:05A4       loc_51E84
 418E:05AC       loc_51E8C
 418E:05B0       loc_51E90
 418E:05BF       loc_51E9F
 418E:05DC       loc_51EBC
 418E:05E9       loc_51EC9
 418E:05EF       loc_51ECF
 418E:05F6       loc_51ED6
 418E:05FD       loc_51EDD
 418E:062D       loc_51F0D
 418E:0639       loc_51F19
 418E:063C       loc_51F1C
 418E:0640       loc_51F20
 418E:0648       loc_51F28
 418E:0656       loc_51F36
 418E:0667       loc_51F47
 418E:0688       loc_51F68
 418E:0693       loc_51F73
 418E:06A7       loc_51F87
 418E:06AF       loc_51F8F
 418E:06B7       loc_51F97
 418E:0711       loc_51FF1
 418E:0719       loc_51FF9
 418E:071C       loc_51FFC
 418E:072C       loc_5200C
 418E:077A       loc_5205A
 418E:0782       loc_52062
 418E:0790       loc_52070
 418E:079C       loc_5207C
 418E:07A0       loc_52080
 418E:07CE       loc_520AE
 418E:07D6       loc_520B6
 418E:07E9       loc_520C9
 418E:07EC       loc_520CC
 418E:07FF       loc_520DF
 418E:080F       loc_520EF
 418E:0815       loc_520F5
 418E:081C       loc_520FC
 418E:0823       loc_52103
 418E:083F       loc_5211F
 418E:0854       loc_52134
 418E:0860       loc_52140
 418E:0863       loc_52143
 418E:086F       loc_5214F
 418E:087D       loc_5215D
 418E:089A       loc_5217A
 418E:08A3       loc_52183
 418E:08A9       loc_52189
 418E:08AF       loc_5218F
 418E:08B2       loc_52192
 418E:08BA       loc_5219A
 418E:08C2       loc_521A2
 418E:0901       loc_521E1
 418E:090A       loc_521EA
 418E:0952       loc_52232
 418E:095F       loc_5223F
 418E:098D       loc_5226D
 418E:099A       loc_5227A
 418E:09E2       loc_522C2
 418E:09E5       loc_522C5
 418E:09EE       loc_522CE
 418E:09F1       loc_522D1
 418E:09FA       loc_522DA
 418E:09FE       loc_522DE
 422E:0000       sub_522E0
 422E:0001       loc_522E1
 422E:0003       loc_522E3
 422E:0004       loc_522E4
 422E:0005       loc_522E5
 422E:0006       loc_522E6
 422E:0007       loc_522E7
 422E:000A       loc_522EA
 422E:000D       loc_522ED
 422E:0010       loc_522F0
 422E:0012       loc_522F2
 422E:0015       loc_522F5
 422E:0017       loc_522F7
 422E:001A       loc_522FA
 422E:001C       loc_522FC
 422E:001E       loc_522FE
 422E:0020       loc_52300
 422E:0022       loc_52302
 422E:0024       loc_52304
 422E:0026       loc_52306
 422E:002A       loc_5230A
 422E:002C       loc_5230C
 422E:0030       loc_52310
 422E:0032       loc_52312
 422E:0037       loc_52317
 422E:0039       loc_52319
 422E:003B       loc_5231B
 422E:003D       loc_5231D
 422E:003F       loc_5231F
 422E:0041       loc_52321
 422E:0045       loc_52325
 422E:0047       loc_52327
 422E:004B       loc_5232B
 422E:004D       loc_5232D
 422E:0050       loc_52330
 422E:0052       loc_52332
 422E:0056       loc_52336
 422E:0058       loc_52338
 422E:005C       loc_5233C
 422E:0060       loc_52340
 422E:0062       loc_52342
 422E:0066       loc_52346
 422E:0068       loc_52348
 422E:006B       loc_5234B
 422E:006F       loc_5234F
 422E:0071       loc_52351
 422E:0073       loc_52353
 422E:0077       loc_52357
 422E:007D       loc_5235D
 422E:0081       loc_52361
 422E:0083       loc_52363
 422E:0088       loc_52368
 422E:008A       loc_5236A
 422E:008C       loc_5236C
 422E:008E       loc_5236E
 422E:0090       loc_52370
 422E:0092       loc_52372
 422E:0096       loc_52376
 422E:0098       loc_52378
 422E:009D       loc_5237D
 422E:00A0       loc_52380
 422E:00A5       loc_52385
 422E:00A6       loc_52386
 422E:00AA       loc_5238A
 422E:00AC       loc_5238C
 422E:00AF       loc_5238F
 422E:00B0       loc_52390
 422E:00B4       loc_52394
 422E:00B9       loc_52399
 422E:00BF       loc_5239F
 422E:00C0       loc_523A0
 422E:00C3       sub_523A3
 422E:00C7       loc_523A7
 422E:00CB       loc_523AB
 422E:00D7       loc_523B7
 422E:00E0       loc_523C0
 422E:00E2       loc_523C2
 422E:00E5       loc_523C5
 422E:00E7       loc_523C7
 422E:00EB       loc_523CB
 422E:00EC       loc_523CC
 422E:00F0       loc_523D0
 422E:00F1       loc_523D1
 422E:00F6       loc_523D6
 422E:00F8       loc_523D8
 422E:00FA       loc_523DA
 422E:00FD       loc_523DD
 422E:00FF       loc_523DF
 422E:0119       loc_523F9
 422E:0124       loc_52404
 422E:0127       loc_52407
 422E:012E       loc_5240E
 422E:0138       loc_52418
 422E:0161       loc_52441
 422E:016A       sub_5244A
 422E:017D       loc_5245D
 422E:0180       loc_52460
 422E:0185       loc_52465
 422E:0187       loc_52467
 422E:019E       loc_5247E
 422E:01B0       loc_52490
 422E:01B9       loc_52499
 422E:01C2       loc_524A2
 422E:01D2       loc_524B2
 422E:01E2       loc_524C2
 422E:0200       loc_524E0
 422E:020B       loc_524EB
 422E:021F       loc_524FF
 422E:0224       loc_52504
 422E:0231       loc_52511
 422E:0235       loc_52515
 422E:023E       loc_5251E
 422E:0245       loc_52525
 422E:026A       loc_5254A
 422E:027E       loc_5255E
 422E:029F       loc_5257F
 422E:02AF       loc_5258F
 422E:02BD       loc_5259D
 422E:02D4       loc_525B4
 422E:02E8       loc_525C8
 422E:02F8       loc_525D8
 422E:02FE       loc_525DE
 422E:0301       loc_525E1
 422E:0309       loc_525E9
 422E:0318       loc_525F8
 422E:033F       loc_5261F
 422E:0359       loc_52639
 422E:035B       loc_5263B
 422E:0369       loc_52649
 422E:0375       loc_52655
 422E:037E       loc_5265E
 422E:037F       loc_5265F
 422E:0388       loc_52668
 422E:038E       sub_5266E
 422E:0395       loc_52675
 422E:03A9       loc_52689
 422E:03AF       loc_5268F
 422E:03B3       loc_52693
 422E:03BE       loc_5269E
 422E:03C4       loc_526A4
 422E:03C5       locret_526A5
 422E:03C6       sub_526A6
 422E:03CC       loc_526AC
 422E:03CF       loc_526AF
 422E:03D9       loc_526B9
 422E:03E8       loc_526C8
 422E:03F1       loc_526D1
 422E:0407       loc_526E7
 422E:042A       loc_5270A
 422E:043F       loc_5271F
 422E:045B       loc_5273B
 422E:046B       loc_5274B
 422E:046D       loc_5274D
 422E:0496       loc_52776
 422E:049B       loc_5277B
 422E:04A5       loc_52785
 422E:04A6       loc_52786
 422E:04AF       loc_5278F
 422E:04B0       loc_52790
 422E:04B2       sub_52792
 422E:04BA       loc_5279A
 422E:04BF       loc_5279F
 422E:04C8       loc_527A8
 422E:04CA       loc_527AA
 422E:04CC       loc_527AC
 422E:04E5       loc_527C5
 422E:04E6       loc_527C6
 422E:04F3       loc_527D3
 422E:04FB       loc_527DB
 422E:0508       loc_527E8
 422E:050B       loc_527EB
 422E:051B       loc_527FB
 422E:051C       loc_527FC
 422E:0526       loc_52806
 422E:0530       loc_52810
 422E:0533       loc_52813
 422E:053F       loc_5281F
 422E:0545       loc_52825
 422E:055F       loc_5283F
 422E:0564       loc_52844
 422E:057C       loc_5285C
 422E:0590       loc_52870
 422E:0591       loc_52871
 422E:0596       loc_52876
 422E:05A5       loc_52885
 422E:05AE       loc_5288E
 422E:05B5       loc_52895
 422E:05C5       loc_528A5
 422E:05CE       loc_528AE
 422E:05D5       loc_528B5
 422E:05DC       loc_528BC
 422E:05E5       loc_528C5
 422E:05F5       loc_528D5
 422E:05FF       loc_528DF
 422E:060A       loc_528EA
 422E:0611       loc_528F1
 422E:062F       loc_5290F
 422E:0632       loc_52912
 422E:0640       loc_52920
 422E:0650       loc_52930
 422E:0652       loc_52932
 422E:0670       loc_52950
 422E:0672       loc_52952
 422E:0689       loc_52969
 422E:0690       loc_52970
 422E:0692       loc_52972
 422E:06B0       loc_52990
 422E:06B2       loc_52992
 422E:06CC       loc_529AC
 422E:06EE       loc_529CE
 422E:0702       loc_529E2
 422E:0703       loc_529E3
 422E:0725       loc_52A05
 422E:0749       loc_52A29
 422E:0769       loc_52A49
 422E:0772       loc_52A52
 422E:0792       loc_52A72
 422E:07B7       loc_52A97
 422E:07CE       loc_52AAE
 422E:07D0       loc_52AB0
 422E:07E5       loc_52AC5
 422E:07EC       loc_52ACC
 422E:07F9       loc_52AD9
 422E:0800       loc_52AE0
 422E:080D       loc_52AED
 422E:0821       loc_52B01
 422E:0835       loc_52B15
 422E:0849       loc_52B29
 422E:085D       loc_52B3D
 422E:0871       loc_52B51
 422E:087C       loc_52B5C
 422E:0887       loc_52B67
 422E:0890       loc_52B70
 422E:089F       loc_52B7F
 422E:08AD       loc_52B8D
 422E:08BA       loc_52B9A
 422E:08C0       loc_52BA0
 422E:08C9       loc_52BA9
 422E:08D8       loc_52BB8
 422E:08E1       loc_52BC1
 422E:08F0       loc_52BD0
 422E:08F8       loc_52BD8
 422E:0901       loc_52BE1
 422E:090B       loc_52BEB
 422E:090E       loc_52BEE
 422E:091A       loc_52BFA
 422E:091D       loc_52BFD
 422E:0929       loc_52C09
 422E:0945       loc_52C25
 422E:0949       loc_52C29
 422E:094A       loc_52C2A
 422E:0950       loc_52C30
 422E:0953       loc_52C33
 422E:0959       off_52C39
 422E:0963       off_52C43
 422E:096D       sub_52C4D
 422E:0973       loc_52C53
 422E:0976       loc_52C56
 422E:097F       loc_52C5F
 422E:098A       loc_52C6A
 422E:09A7       loc_52C87
 422E:09B8       loc_52C98
 422E:09C0       loc_52CA0
 422E:09CF       loc_52CAF
 422E:09E1       loc_52CC1
 422E:09F4       loc_52CD4
 422E:09FB       loc_52CDB
 422E:0A01       loc_52CE1
 422E:0A04       loc_52CE4
 422E:0A07       sub_52CE7
 422E:0A0F       loc_52CEF
 422E:0A14       loc_52CF4
 422E:0A35       loc_52D15
 422E:0A3E       loc_52D1E
 422E:0A44       loc_52D24
 422E:0A89       loc_52D69
 422E:0AA2       loc_52D82
 422E:0ACA       loc_52DAA
 422E:0AF3       loc_52DD3
 422E:0BCB       loc_52EAB
 422E:0C34       loc_52F14
 422E:0C60       loc_52F40
 422E:0C65       loc_52F45
 422E:0C6E       loc_52F4E
 422E:0CA6       loc_52F86
 422E:0CAC       loc_52F8C
 422E:0CD2       loc_52FB2
 422E:0CDD       loc_52FBD
 422E:0D0C       loc_52FEC
 422E:0D1D       loc_52FFD
 422E:0D28       loc_53008
 422E:0D2F       loc_5300F
 422E:0D38       loc_53018
 422E:0D3E       sub_5301E
 422E:0D4A       loc_5302A
 422E:0D58       loc_53038
 422E:0D5B       loc_5303B
 422E:0D6E       loc_5304E
 422E:0D73       loc_53053
 422E:0D8D       loc_5306D
 422E:0DA6       loc_53086
 422E:0DA9       loc_53089
 422E:0DB6       loc_53096
 422E:0DC7       loc_530A7
 422E:0DD2       loc_530B2
 422E:0DD4       loc_530B4
 422E:0DFC       loc_530DC
 422E:0E08       loc_530E8
 422E:0E87       loc_53167
 422E:0EED       loc_531CD
 422E:0EF7       loc_531D7
 422E:0EFE       loc_531DE
 422E:0F07       loc_531E7
 422E:0F49       loc_53229
 422E:0F4A       loc_5322A
 422E:0F53       loc_53233
 422E:0F59       loc_53239
 422E:0F69       loc_53249
 422E:0F70       loc_53250
 422E:0F72       loc_53252
 422E:0F81       loc_53261
 422E:0F91       loc_53271
 422E:0FA1       loc_53281
 422E:0FAF       loc_5328F
 422E:0FBE       loc_5329E
 422E:0FC0       loc_532A0
 422E:0FD0       loc_532B0
 422E:0FE9       loc_532C9
 422E:0FF0       loc_532D0
 422E:1000       loc_532E0
 422E:100D       loc_532ED
 422E:1010       loc_532F0
 422E:102D       loc_5330D
 422E:1030       loc_53310
 422E:104D       loc_5332D
 422E:104F       loc_5332F
 422E:106C       loc_5334C
 422E:106E       loc_5334E
 422E:108B       loc_5336B
 422E:108D       loc_5336D
 422E:10A1       loc_53381
 422E:10AC       loc_5338C
 422E:10B4       loc_53394
 422E:10B5       loc_53395
 422E:10BD       loc_5339D
 422E:10BE       loc_5339E
 422E:10C7       loc_533A7
 422E:10CD       loc_533AD
 422E:10ED       loc_533CD
 422E:1130       loc_53410
 422E:113A       loc_5341A
 422E:1145       loc_53425
 422E:114D       loc_5342D
 422E:1159       loc_53439
 422E:115E       loc_5343E
 422E:1164       loc_53444
 422E:1167       loc_53447
 422E:1168       loc_53448
 422E:116B       loc_5344B
 422E:116D       loc_5344D
 422E:1172       loc_53452
 422E:117E       loc_5345E
 422E:118A       loc_5346A
 422E:118D       loc_5346D
 422E:11BC       loc_5349C
 422E:11CD       loc_534AD
 422E:11D0       loc_534B0
 422E:11DB       loc_534BB
 422E:11E6       loc_534C6
 422E:11F2       loc_534D2
 422E:11F9       loc_534D9
 422E:120B       loc_534EB
 422E:1212       loc_534F2
 422E:1225       loc_53505
 422E:1229       loc_53509
 422E:1239       loc_53519
 422E:1248       loc_53528
 422E:124B       loc_5352B
 422E:1262       loc_53542
 422E:1264       loc_53544
 422E:126D       loc_5354D
 422E:127B       loc_5355B
 422E:1284       loc_53564
 422E:1289       loc_53569
 422E:1292       loc_53572
 422E:1294       loc_53574
 422E:129A       loc_5357A
 422E:129D       loc_5357D
 422E:129F       loc_5357F
 422E:12BD       loc_5359D
 422E:12BF       loc_5359F
 422E:12DC       loc_535BC
 422E:12DF       loc_535BF
 422E:12E1       loc_535C1
 422E:12E4       loc_535C4
 422E:12F9       loc_535D9
 422E:12FF       loc_535DF
 422E:131E       loc_535FE
 422E:1321       loc_53601
 422E:1341       loc_53621
 422E:1360       loc_53640
 422E:1363       loc_53643
 422E:137A       loc_5365A
 422E:1383       loc_53663
 422E:138A       loc_5366A
 422E:13AD       loc_5368D
 422E:13C8       loc_536A8
 422E:13D8       loc_536B8
 422E:13DD       loc_536BD
 422E:13F2       loc_536D2
 422E:140D       loc_536ED
 422E:1412       loc_536F2
 422E:142D       loc_5370D
 422E:1432       loc_53712
 422E:143E       loc_5371E
 422E:144A       loc_5372A
 422E:1450       loc_53730
 422E:147E       loc_5375E
 422E:148B       loc_5376B
 422E:1498       loc_53778
 422E:14A5       loc_53785
 422E:14B0       loc_53790
 422E:14B9       loc_53799
 422E:14BB       loc_5379B
 422E:14CD       loc_537AD
 422E:14DF       loc_537BF
 422E:14E1       loc_537C1
 422E:14FB       loc_537DB
 422E:14FD       loc_537DD
 422E:1506       loc_537E6
 422E:1508       loc_537E8
 422E:155E       loc_5383E
 422E:1573       loc_53853
 422E:158C       loc_5386C
 422E:1592       loc_53872
 422E:1595       loc_53875
 422E:1596       loc_53876
 422E:159B       loc_5387B
 422E:15A6       loc_53886
 422E:15A7       loc_53887
 422E:15B0       loc_53890
 422E:15BA       loc_5389A
 422E:15CD       loc_538AD
 422E:15CE       loc_538AE
 422E:15E0       loc_538C0
 422E:15FD       loc_538DD
 422E:1603       loc_538E3
 422E:162F       loc_5390F
 422E:163F       loc_5391F
 422E:165B       loc_5393B
 422E:1676       loc_53956
 422E:1686       loc_53966
 422E:16B1       loc_53991
 422E:16D0       loc_539B0
 422E:16EE       loc_539CE
 422E:16EF       loc_539CF
 422E:16F8       loc_539D8
 422E:16FE       off_539DE
 422E:170E       off_539EE
 422E:171A       off_539FA
 422E:1726       sub_53A06
 422E:1736       loc_53A16
 422E:173D       loc_53A1D
 422E:1744       loc_53A24
 422E:1763       loc_53A43
 422E:176C       loc_53A4C
 422E:177A       loc_53A5A
 422E:1783       loc_53A63
 422E:17D4       loc_53AB4
 422E:18CB       loc_53BAB
 422E:18E6       loc_53BC6
 422E:1901       loc_53BE1
 422E:1905       loc_53BE5
 422E:1921       loc_53C01
 422E:1931       loc_53C11
 422E:1938       loc_53C18
 422E:193F       loc_53C1F
 422E:1950       loc_53C30
 422E:195E       loc_53C3E
 422E:1964       loc_53C44
 422E:198F       loc_53C6F
 422E:19B7       loc_53C97
 422E:19E6       loc_53CC6
 422E:19ED       loc_53CCD
 422E:19EF       loc_53CCF
 422E:19F7       loc_53CD7
 422E:19FE       loc_53CDE
 422E:1A1D       loc_53CFD
 422E:1A26       loc_53D06
 422E:1AA8       loc_53D88
 422E:1AAF       loc_53D8F
 422E:1ACE       loc_53DAE
 422E:1B59       loc_53E39
 422E:1B60       loc_53E40
 422E:1B7F       loc_53E5F
 422E:1BB8       loc_53E98
 422E:1BCF       loc_53EAF
 422E:1C0A       loc_53EEA
 422E:1C0F       loc_53EEF
 422E:1C11       loc_53EF1
 422E:1C28       loc_53F08
 422E:1C30       loc_53F10
 422E:1CBB       loc_53F9B
 422E:1CBE       loc_53F9E
 422E:1CC2       loc_53FA2
 422E:1CD0       loc_53FB0
 422E:1CF7       loc_53FD7
 422E:1CFE       loc_53FDE
 422E:1D05       loc_53FE5
 422E:1D0C       loc_53FEC
 422E:1D13       loc_53FF3
 422E:1D1A       loc_53FFA
 422E:1D21       loc_54001
 422E:1D23       loc_54003
 422E:1D25       loc_54005
 422E:1D27       loc_54007
 422E:1D2E       loc_5400E
 422E:1D39       loc_54019
 422E:1D40       loc_54020
 422E:1D44       loc_54024
 422E:1D7B       loc_5405B
 422E:1D98       loc_54078
 422E:1D9C       loc_5407C
 422E:1DD3       loc_540B3
 422E:1DD9       loc_540B9
 422E:1DE0       loc_540C0
 422E:1DF0       loc_540D0
 422E:1DF4       loc_540D4
 422E:1DFD       loc_540DD
 422E:1E08       loc_540E8
 422E:1E0B       loc_540EB
 422E:1E10       loc_540F0
 422E:1E12       loc_540F2
 422E:1E1D       loc_540FD
 422E:1E2B       loc_5410B
 422E:1E33       loc_54113
 422E:1E36       loc_54116
 422E:1E38       loc_54118
 422E:1E48       loc_54128
 422E:1E4C       loc_5412C
 422E:1E63       loc_54143
 422E:1E70       loc_54150
 422E:1E79       loc_54159
 422E:1E83       loc_54163
 422E:1E8B       loc_5416B
 422E:1E9F       loc_5417F
 422E:1EA3       loc_54183
 422E:1EB2       loc_54192
 422E:1EBF       loc_5419F
 422E:1ED2       loc_541B2
 422E:1EDA       loc_541BA
 422E:1EE2       loc_541C2
 422E:1EE9       loc_541C9
 422E:1EEB       loc_541CB
 422E:1EF0       loc_541D0
 422E:1EF6       loc_541D6
 422E:1F11       loc_541F1
 422E:1F32       loc_54212
 422E:1F56       loc_54236
 422E:1F5F       loc_5423F
 422E:1F7C       loc_5425C
 422E:1F7F       loc_5425F
 422E:1F80       loc_54260
 422E:1F85       loc_54265
 422E:1FA9       loc_54289
 422E:1FC5       loc_542A5
 422E:1FCD       loc_542AD
 422E:1FD1       loc_542B1
 422E:1FDF       loc_542BF
 422E:1FEC       loc_542CC
 422E:2006       loc_542E6
 422E:200D       loc_542ED
 422E:2014       loc_542F4
 422E:201B       loc_542FB
 422E:2022       loc_54302
 422E:2029       loc_54309
 422E:2030       loc_54310
 422E:2035       loc_54315
 422E:2037       loc_54317
 422E:2039       loc_54319
 422E:203B       loc_5431B
 422E:2042       loc_54322
 422E:2046       loc_54326
 422E:2065       loc_54345
 422E:2068       loc_54348
 422E:2074       loc_54354
 422E:2077       loc_54357
 422E:207D       loc_5435D
 422E:20A6       loc_54386
 422E:20A7       loc_54387
 422E:20AC       loc_5438C
 422E:20AF       loc_5438F
 422E:20BB       loc_5439B
 422E:20C8       loc_543A8
 422E:20E4       loc_543C4
 422E:20EC       loc_543CC
 422E:20F0       loc_543D0
 422E:20FE       loc_543DE
 422E:210E       loc_543EE
 422E:2110       loc_543F0
 422E:2125       loc_54405
 422E:212C       loc_5440C
 422E:2133       loc_54413
 422E:213A       loc_5441A
 422E:2141       loc_54421
 422E:2146       loc_54426
 422E:2148       loc_54428
 422E:214F       loc_5442F
 422E:2156       loc_54436
 422E:215D       loc_5443D
 422E:2164       loc_54444
 422E:2168       loc_54448
 422E:216C       loc_5444C
 422E:2187       loc_54467
 422E:2196       loc_54476
 422E:219B       loc_5447B
 422E:219F       loc_5447F
 422E:21AB       loc_5448B
 422E:21B3       loc_54493
 422E:21C8       loc_544A8
 422E:21C9       loc_544A9
 422E:21CE       loc_544AE
 422E:21EA       loc_544CA
 422E:21ED       loc_544CD
 422E:21F0       loc_544D0
 422E:21F6       loc_544D6
 422E:2206       loc_544E6
 422E:220E       loc_544EE
 422E:2212       loc_544F2
 422E:2214       loc_544F4
 422E:2220       loc_54500
 422E:2236       loc_54516
 422E:223B       loc_5451B
 422E:2247       loc_54527
 422E:224E       loc_5452E
 422E:2250       loc_54530
 422E:2257       loc_54537
 422E:225E       loc_5453E
 422E:2265       loc_54545
 422E:226C       loc_5454C
 422E:2273       loc_54553
 422E:227A       loc_5455A
 422E:2281       loc_54561
 422E:2285       loc_54565
 422E:2289       loc_54569
 422E:2293       loc_54573
 422E:22A4       loc_54584
 422E:22AC       loc_5458C
 422E:22B3       loc_54593
 422E:22BC       loc_5459C
 422E:22CA       loc_545AA
 422E:22DC       loc_545BC
 422E:22E5       loc_545C5
 422E:22E6       loc_545C6
 422E:22EB       loc_545CB
 422E:22EE       loc_545CE
 422E:22F7       loc_545D7
 422E:2335       loc_54615
 422E:2338       loc_54618
 422E:2344       loc_54624
 422E:234B       off_5462B
 422E:235D       off_5463D
 422E:236F       off_5464F
 422E:2383       off_54663
 422E:238D       off_5466D
 422E:23A1       off_54681
 422E:23AB       sub_5468B
 422E:2447       loc_54727
 422E:245B       loc_5473B
 422E:2465       loc_54745
 422E:246D       sub_5474D
 422E:246E       loc_5474E
 422E:2475       loc_54755
 422E:247D       loc_5475D
 422E:2485       loc_54765
 422E:2496       loc_54776
 422E:24C2       loc_547A2
 422E:24C9       loc_547A9
 422E:24D9       loc_547B9
 422E:24EC       loc_547CC
 422E:24FF       loc_547DF
 422E:250D       loc_547ED
 422E:2537       loc_54817
 422E:253A       loc_5481A
 422E:254F       loc_5482F
 422E:2556       loc_54836
 422E:2597       loc_54877
 422E:25A0       loc_54880
 422E:25AD       loc_5488D
 422E:25B0       loc_54890
 422E:25F1       loc_548D1
 422E:25FA       loc_548DA
 422E:2607       loc_548E7
 422E:260A       loc_548EA
 422E:2649       loc_54929
 422E:264F       loc_5492F
 422E:2659       loc_54939
 422E:265C       loc_5493C
 422E:2662       loc_54942
 422E:2666       loc_54946
 422E:2669       loc_54949
 422E:26AC       loc_5498C
 422E:26B5       loc_54995
 422E:26BE       loc_5499E
 422E:26C2       loc_549A2
 422E:26C5       loc_549A5
 422E:270B       loc_549EB
 422E:2718       loc_549F8
 422E:2722       loc_54A02
 422E:2725       loc_54A05
 422E:2755       loc_54A35
 422E:2758       loc_54A38
 422E:276A       loc_54A4A
 422E:2774       loc_54A54
 422E:2781       loc_54A61
 422E:2784       loc_54A64
 422E:2787       loc_54A67
 422E:2790       loc_54A70
 422E:27B0       loc_54A90
 422E:27D0       loc_54AB0
 422E:27D2       loc_54AB2
 422E:27F2       loc_54AD2
 422E:27FE       loc_54ADE
 422E:2808       loc_54AE8
 422E:280B       loc_54AEB
 422E:2834       loc_54B14
 422E:2837       loc_54B17
 422E:284C       loc_54B2C
 422E:2851       loc_54B31
 422E:285D       loc_54B3D
 422E:2863       loc_54B43
 422E:2867       loc_54B47
 422E:286A       loc_54B4A
 422E:2870       loc_54B50
 422E:2877       loc_54B57
 422E:287A       loc_54B5A
 422E:28A6       loc_54B86
 422E:28A9       loc_54B89
 422E:28BC       loc_54B9C
 422E:28BF       loc_54B9F
 422E:28D1       loc_54BB1
 422E:28E1       loc_54BC1
 422E:28E4       loc_54BC4
 422E:28E7       loc_54BC7
 422E:28ED       loc_54BCD
 422E:28F0       loc_54BD0
 422E:290A       loc_54BEA
 422E:2931       loc_54C11
 422E:294E       loc_54C2E
 422E:2951       loc_54C31
 422E:295A       loc_54C3A
 422E:2964       loc_54C44
 422E:2966       loc_54C46
 422E:29AC       loc_54C8C
 422E:29B8       loc_54C98
 422E:29C2       loc_54CA2
 422E:29C4       loc_54CA4
 422E:29CB       loc_54CAB
 422E:29D4       loc_54CB4
 422E:29EF       loc_54CCF
 422E:2A59       loc_54D39
 422E:2A5D       loc_54D3D
 422E:2AB2       loc_54D92
 422E:2ABB       loc_54D9B
 422E:2ABE       loc_54D9E
 422E:2AC7       loc_54DA7
 422E:2ACC       locret_54DAC
 422E:2ACD       off_54DAD
 422E:2AE9       sub_54DC9
 422E:2AEC       loc_54DCC
 422E:2B20       sub_54E00
 422E:2B2F       loc_54E0F
 422E:2B4A       loc_54E2A
 422E:2B6A       loc_54E4A
 422E:2B80       loc_54E60
 422E:2B84       loc_54E64
 422E:2B8E       loc_54E6E
 422E:2B91       sub_54E71
 422E:2BF4       loc_54ED4
 422E:2C1F       loc_54EFF
 422E:2C7B       loc_54F5B
 422E:2CA6       loc_54F86
 422E:2CED       loc_54FCD
 422E:2D02       loc_54FE2
 422E:2D2D       loc_5500D
 422E:2D89       loc_55069
 422E:2DB4       loc_55094
 422E:2E10       loc_550F0
 422E:2E3B       loc_5511B
 422E:2E3D       loc_5511D
 422E:2E40       loc_55120
 422E:2E54       loc_55134
 422E:2E81       loc_55161
 422E:2E82       loc_55162
 422E:2E97       loc_55177
 422E:2EB8       loc_55198
 422E:2EC2       loc_551A2
 422E:2EC7       loc_551A7
 422E:2ECB       loc_551AB
 422E:2EDB       loc_551BB
 422E:2EE0       loc_551C0
 422E:2EEF       loc_551CF
 422E:2F1E       loc_551FE
 422E:2F49       loc_55229
 422E:2FA5       loc_55285
 422E:2FD0       loc_552B0
 422E:2FD3       sub_552B3
 422E:2FDE       loc_552BE
 422E:2FEE       loc_552CE
 422E:2FFB       loc_552DB
 422E:3004       loc_552E4
 422E:3018       loc_552F8
 422E:302B       loc_5530B
 422E:3035       sub_55315
 422E:3040       loc_55320
 422E:3049       loc_55329
 422E:3056       loc_55336
 422E:305B       loc_5533B
 422E:305D       loc_5533D
 422E:3062       loc_55342
 422E:3070       loc_55350
 422E:307A       loc_5535A
 422E:307D       loc_5535D
 422E:308B       loc_5536B
 422E:308D       loc_5536D
 422E:30A0       loc_55380
 422E:30B0       loc_55390
 422E:30BD       loc_5539D
 422E:30BF       loc_5539F
 422E:30C4       loc_553A4
 453B:0000       idk_EmsPgNm_TileFigureCont_s553B0
 453B:0001       loc_553B1
 453B:0003       loc_553B3
 453B:0004       loc_553B4
 453B:0007       loc_553B7
 453B:0008       loc_553B8
 453B:000B       loc_553BB
 453B:000C       loc_553BC
 453B:000F       loc_553BF
 453B:0010       loc_553C0
 453B:0015       loc_553C5
 453B:001B       loc_553CB
 453B:001E       loc_553CE
 453B:001F       loc_553CF
 453B:0062       loc_55412
 453B:0066       loc_55416
 453B:006C       loc_5541C
 453B:0077       loc_55427
 453B:007F       loc_5542F
 453B:0085       loc_55435
 453B:0089       loc_55439
 453B:008C       loc_5543C
 453B:008F       loc_5543F
 453B:0091       loc_55441
 453B:0096       loc_55446
 453B:0099       loc_55449
 453B:009E       loc_5544E
 453B:009F       loc_5544F
 453B:00AB       loc_5545B
 453B:00B3       loc_55463
 453B:00B9       loc_55469
 453B:00BD       loc_5546D
 453B:00C0       loc_55470
 453B:00C5       loc_55475
 453B:00CA       loc_5547A
 453B:00CD       loc_5547D
 453B:00D7       loc_55487
 453B:00DA       loc_5548A
 453B:00DF       loc_5548F
 453B:00E5       loc_55495
 453B:00E7       loc_55497
 453B:00ED       loc_5549D
 453B:00F1       loc_554A1
 453B:00F7       loc_554A7
 453B:00F9       loc_554A9
 453B:00FE       loc_554AE
 453B:00FF       loc_554AF
 453B:0100       loc_554B0
 453B:0101       loc_554B1
 453B:011B       loc_554CB
 453B:0120       loc_554D0
 453B:0125       loc_554D5
 453B:0128       loc_554D8
 453B:012D       loc_554DD
 453B:013F       loc_554EF
 453B:015C       loc_5550C
 453B:015F       loc_5550F
 453B:0161       loc_55511
 453B:0166       loc_55516
 453B:0180       loc_55530
 453B:0186       loc_55536
 453B:018E       loc_5553E
 453B:01AD       loc_5555D
 453B:01D2       loc_55582
 453B:01E3       loc_55593
 453B:01F4       loc_555A4
 453B:01F5       loc_555A5
 453B:01FF       loc_555AF
 453B:020C       loc_555BC
 453B:021E       loc_555CE
 453B:022B       loc_555DB
 453B:022F       loc_555DF
 453B:0232       loc_555E2
 453B:023C       loc_555EC
 453B:023D       loc_555ED
 453B:0247       loc_555F7
 453B:0253       loc_55603
 453B:0255       loc_55605
 453B:027E       loc_5562E
 453B:0296       loc_55646
 453B:029D       loc_5564D
 453B:02AA       loc_5565A
 453B:02BB       loc_5566B
 453B:02D3       loc_55683
 453B:02EB       loc_5569B
 453B:02FD       loc_556AD
 453B:0302       loc_556B2
 453B:0303       loc_556B3
 453B:030A       loc_556BA
 453B:031F       loc_556CF
 453B:033E       loc_556EE
 453B:039A       loc_5574A
 453B:03C0       loc_55770
 453B:03CC       loc_5577C
 453B:03D8       loc_55788
 453B:03E4       loc_55794
 453B:03F0       loc_557A0
 453B:040C       loc_557BC
 453B:0420       loc_557D0
 457E:0000       ST_LoadMusicSoundfxIntro
 457E:0006       loc_557E6
 457E:0008       loc_557E8
 457E:000C       loc_557EC
 457E:004F       loc_5582F
 457E:0058       loc_55838
 457E:009F       loc_5587F
 457E:00B4       loc_55894
 457E:00B9       loc_55899
 457E:00C0       loc_558A0
 457E:00CA       loc_558AA
 457E:00D4       loc_558B4
 457E:00DE       loc_558BE
 457E:00E3       loc_558C3
 457E:00F8       loc_558D8
 457E:0100       loc_558E0
 457E:0105       loc_558E5
 457E:0127       loc_55907
 457E:0136       loc_55916
 457E:0158       loc_55938
 457E:015D       loc_5593D
 457E:0161       loc_55941
 457E:0171       loc_55951
 457E:01CD       loc_559AD
 457E:01D2       loc_559B2
 457E:01D6       loc_559B6
 457E:01DD       loc_559BD
 457E:01E6       loc_559C6
 457E:01F0       loc_559D0
 457E:0242       loc_55A22
 457E:0247       loc_55A27
 457E:029D       loc_55A7D
 457E:02E2       loc_55AC2
 457E:02FC       loc_55ADC
 457E:02FF       loc_55ADF
 457E:0301       loc_55AE1
 457E:0306       loc_55AE6
 457E:0316       loc_55AF6
 457E:0330       loc_55B10
 457E:0345       loc_55B25
 457E:0355       loc_55B35
 457E:0357       loc_55B37
 457E:035C       loc_55B3C
 457E:0379       loc_55B59
 457E:037A       loc_55B5A
 457E:0387       loc_55B67
 457E:0390       loc_55B70
 457E:0391       loc_55B71
 457E:0399       loc_55B79
 457E:039F       sub_55B7F
 457E:03A8       loc_55B88
 457E:03CF       loc_55BAF
 457E:03D7       sub_55BB7
 457E:03DA       loc_55BBA
 457E:03DE       loc_55BBE
 457E:03E0       loc_55BC0
 457E:03F1       loc_55BD1
 457E:0407       loc_55BE7
 457E:040F       sub_55BEF
 457E:0418       loc_55BF8
 457E:043F       loc_55C1F
 457E:0447       sub_55C27
 457E:0450       loc_55C30
 457E:045C       loc_55C3C
 457E:0464       loc_55C44
 457E:046A       loc_55C4A
 457E:046E       loc_55C4E
 457E:0477       loc_55C57
 457E:047E       sub_55C5E
 457E:0485       loc_55C65
 457E:0487       loc_55C67
 457E:04AE       loc_55C8E
 457E:04B2       loc_55C92
 45CA:0000       idk_OVR_LoadLbxHelp
 45CA:0001       loc_55CA1
 45CA:0003       loc_55CA3
 45CA:0006       loc_55CA6
 45CA:0007       loc_55CA7
 45CA:0008       loc_55CA8
 45CA:000D       loc_55CAD
 45CA:0010       loc_55CB0
 45CA:0011       loc_55CB1
 45CA:0014       loc_55CB4
 45CA:0015       loc_55CB5
 45CA:001A       loc_55CBA
 45CA:001B       loc_55CBB
 45CA:001C       loc_55CBC
 45CA:001E       loc_55CBE
 45CA:0021       loc_55CC1
 45CA:0024       loc_55CC4
 45CA:0026       loc_55CC6
 45CA:002B       loc_55CCB
 45CA:002F       loc_55CCF
 45CA:0032       loc_55CD2
 45CA:0037       loc_55CD7
 45CA:0038       loc_55CD8
 45CA:003D       loc_55CDD
 45CA:0040       loc_55CE0
 45CA:0042       loc_55CE2
 45CA:0046       loc_55CE6
 45CA:0047       loc_55CE7
 45CA:004A       loc_55CEA
 45CA:004E       loc_55CEE
 45CA:0050       loc_55CF0
 45CA:0051       loc_55CF1
 45CA:0057       loc_55CF7
 45CA:0058       loc_55CF8
 45CA:005B       loc_55CFB
 45CA:0060       loc_55D00
 45CA:0063       loc_55D03
 45CA:0066       loc_55D06
 45CA:0069       loc_55D09
 45CA:006F       loc_55D0F
 45CA:0072       loc_55D12
 45CA:0073       loc_55D13
 45CA:0077       loc_55D17
 45CA:007E       loc_55D1E
 45CA:0088       loc_55D28
 45CA:008C       loc_55D2C
 45CA:008F       loc_55D2F
 45CA:0091       loc_55D31
 45CA:0092       loc_55D32
 45CA:0097       loc_55D37
 45CA:009E       loc_55D3E
 45CA:00A9       loc_55D49
 45CA:00AC       loc_55D4C
 45CA:00B4       loc_55D54
 45CA:00B5       loc_55D55
 45CA:00BA       loc_55D5A
 45CA:00BB       loc_55D5B
 45CA:00BE       loc_55D5E
 45CA:00C3       loc_55D63
 45CA:00C8       loc_55D68
 45CA:00CD       loc_55D6D
 45CA:00D5       loc_55D75
 45CA:00D8       loc_55D78
 45CA:00DC       loc_55D7C
 45CA:00E0       loc_55D80
 45CA:00E1       loc_55D81
 45CA:00E5       loc_55D85
 45CA:00E8       loc_55D88
 45CA:00E9       loc_55D89
 45CA:00ED       loc_55D8D
 45CA:00F5       loc_55D95
 45CA:00F9       loc_55D99
 45CA:00FC       loc_55D9C
 45CA:00FF       loc_55D9F
 45CA:0108       loc_55DA8
 45CA:010B       loc_55DAB
 45CA:010F       loc_55DAF
 45CA:0118       loc_55DB8
 45CA:011C       loc_55DBC
 45CA:0126       loc_55DC6
 45CA:013E       loc_55DDE
 45CA:0153       loc_55DF3
 45CA:0156       loc_55DF6
 45CA:015B       loc_55DFB
 45CA:015D       loc_55DFD
 45CA:015F       loc_55DFF
 45CA:0165       loc_55E05
 45CA:0166       loc_55E06
 45CA:017E       loc_55E1E
 45CA:0184       loc_55E24
 45CA:018F       loc_55E2F
 45CA:019A       loc_55E3A
 45CA:019D       loc_55E3D
 45CA:019F       loc_55E3F
 45CA:01AD       loc_55E4D
 45CA:01B0       loc_55E50
 45CA:01B9       loc_55E59
 45CA:01C3       loc_55E63
 45CA:01D0       loc_55E70
 45CA:01E3       loc_55E83
 45CA:01E8       loc_55E88
 45CA:01FE       loc_55E9E
 45CA:021D       loc_55EBD
 45CA:0220       loc_55EC0
 45CA:022B       loc_55ECB
 45CA:023D       loc_55EDD
 45CA:0244       loc_55EE4
 45CA:0247       loc_55EE7
 45CA:027D       loc_55F1D
 45CA:0284       loc_55F24
 45CA:028E       loc_55F2E
 45CA:02A0       loc_55F40
 45CA:02B3       loc_55F53
 45CA:02B6       loc_55F56
 45CA:02B9       loc_55F59
 45CA:02BC       loc_55F5C
 45CA:02FE       loc_55F9E
 45CA:0301       loc_55FA1
 45CA:0304       loc_55FA4
 45CA:0308       loc_55FA8
 45CA:030A       loc_55FAA
 45CA:0310       loc_55FB0
 45CA:032C       loc_55FCC
 45CA:0339       loc_55FD9
 45CA:033E       loc_55FDE
 45CA:0341       loc_55FE1
 45CA:034F       loc_55FEF
 45CA:035C       loc_55FFC
 45CA:0363       loc_56003
 45CA:0366       loc_56006
 45CA:0374       loc_56014
 45CA:038F       loc_5602F
 45CA:0392       loc_56032
 45CA:03A4       loc_56044
 45CA:03BB       loc_5605B
 45CA:03C3       loc_56063
 45CA:03CD       loc_5606D
 45CA:03D6       loc_56076
 45CA:03E2       loc_56082
 45CA:03E7       loc_56087
 45CA:03F1       loc_56091
 45CA:041D       loc_560BD
 45CA:0420       loc_560C0
 45CA:0442       loc_560E2
 45CA:044B       loc_560EB
 45CA:046A       loc_5610A
 45CA:046E       loc_5610E
 45CA:049E       loc_5613E
 45CA:04AA       loc_5614A
 45CA:04B5       loc_56155
 45CA:04C7       loc_56167
 45CA:04CC       loc_5616C
 45CA:04CF       loc_5616F
 45CA:04DA       loc_5617A
 45CA:0517       loc_561B7
 45CA:051B       loc_561BB
 45CA:0520       loc_561C0
 45CA:0544       loc_561E4
 45CA:054E       loc_561EE
 45CA:0564       loc_56204
 45CA:057B       filebuf::terminate(void)
 45CA:0580       sub_56220
 45CA:0598       locret_56238
 4624:0000       sub_56240
 4624:0001       loc_56241
 4624:0003       loc_56243
 4624:0006       loc_56246
 4624:0007       loc_56247
 4624:0008       loc_56248
 4624:000C       loc_5624C
 4624:0012       loc_56252
 4624:0014       loc_56254
 4624:001A       loc_5625A
 4624:001F       loc_5625F
 4624:0021       loc_56261
 4624:0023       loc_56263
 4624:0026       loc_56266
 4624:002A       loc_5626A
 4624:002F       loc_5626F
 4624:0031       loc_56271
 4624:0036       loc_56276
 4624:0039       loc_56279
 4624:003C       loc_5627C
 4624:003E       loc_5627E
 4624:0040       loc_56280
 4624:0043       loc_56283
 4624:0047       loc_56287
 4624:0049       loc_56289
 4624:004E       loc_5628E
 4624:0050       loc_56290
 4624:0062       loc_562A2
 4624:0066       loc_562A6
 4624:0068       loc_562A8
 4624:006C       loc_562AC
 4624:008F       loc_562CF
 4624:009B       loc_562DB
 4624:00A0       loc_562E0
 4624:00A3       loc_562E3
 4624:00AB       loc_562EB
 4624:00AE       loc_562EE
 4624:00B4       loc_562F4
 4624:00B9       loc_562F9
 4624:00BD       loc_562FD
 4624:00C0       loc_56300
 4624:00C7       loc_56307
 4624:00CC       loc_5630C
 4624:00D1       loc_56311
 4624:00D6       loc_56316
 4624:00E0       loc_56320
 4624:00E3       loc_56323
 4624:00E5       loc_56325
 4624:00E7       loc_56327
 4624:00EA       loc_5632A
 4624:00ED       loc_5632D
 4624:00EE       loc_5632E
 4624:00F1       loc_56331
 4624:00F7       loc_56337
 4624:00F9       loc_56339
 4624:00FD       loc_5633D
 4624:0123       loc_56363
 4624:0127       loc_56367
 4624:013C       loc_5637C
 4624:013E       loc_5637E
 4624:0142       loc_56382
 4624:0153       loc_56393
 4624:0158       loc_56398
 4624:0165       loc_563A5
 4624:017B       NEXT_x10
 4624:017E       LOOP_x10
 4624:0184       loc_563C4
 4624:0187       loc_563C7
 4624:01A0       loc_563E0
 4624:01A2       loc_563E2
 4624:01AE       loc_563EE
 4624:01B4       loc_563F4
 4624:01C8       loc_56408
 4624:01CD       loc_5640D
 4624:01D2       locret_56412
 4624:01D3       sub_56413
 4645:0000       sub_56450
 4645:00BA       loc_5650A
 4645:00F5       loc_56545
 4645:00F8       loc_56548
 4645:0110       loc_56560
 4645:0196       loc_565E6
 4645:01A2       idk_HoF_s565F2
 4645:01BD       loc_5660D
 4645:01C9       loc_56619
 4645:01D1       loc_56621
 4645:01D5       loc_56625
 4645:01DD       loc_5662D
 4645:01E1       loc_56631
 4645:01E5       loc_56635
 4645:01ED       loc_5663D
 4645:01F5       loc_56645
 4645:01FE       loc_5664E
 4645:0216       loc_56666
 4645:0220       loc_56670
 4645:0237       loc_56687
 4645:023F       loc_5668F
 4645:0246       loc_56696
 4645:024A       loc_5669A
 4645:0259       loc_566A9
 4645:025D       loc_566AD
 4645:026C       loc_566BC
 4645:027B       loc_566CB
 4645:029A       loc_566EA
 4645:029F       loc_566EF
 4645:02B7       loc_56707
 4645:02BD       loc_5670D
 4645:02DC       loc_5672C
 4645:02E4       loc_56734
 4645:02F2       loc_56742
 4645:02FC       loc_5674C
 4645:0332       loc_56782
 4645:0427       loc_56877
 4645:0428       loc_56878
 4645:0430       loc_56880

Program entry point at 0000:0000
